
canneal-lockperf:     file format elf64-x86-64


Disassembly of section .init:

0000000000402af8 <_init>:
  402af8:	48 83 ec 08          	sub    $0x8,%rsp
  402afc:	48 8b 05 f5 74 20 00 	mov    0x2074f5(%rip),%rax        # 609ff8 <_DYNAMIC+0x220>
  402b03:	48 85 c0             	test   %rax,%rax
  402b06:	74 05                	je     402b0d <_init+0x15>
  402b08:	e8 93 00 00 00       	callq  402ba0 <__gmon_start__@plt>
  402b0d:	48 83 c4 08          	add    $0x8,%rsp
  402b11:	c3                   	retq   

Disassembly of section .plt:

0000000000402b20 <_ZSt20__throw_length_errorPKc@plt-0x10>:
  402b20:	ff 35 e2 74 20 00    	pushq  0x2074e2(%rip)        # 60a008 <_GLOBAL_OFFSET_TABLE_+0x8>
  402b26:	ff 25 e4 74 20 00    	jmpq   *0x2074e4(%rip)        # 60a010 <_GLOBAL_OFFSET_TABLE_+0x10>
  402b2c:	0f 1f 40 00          	nopl   0x0(%rax)

0000000000402b30 <_ZSt20__throw_length_errorPKc@plt>:
  402b30:	ff 25 e2 74 20 00    	jmpq   *0x2074e2(%rip)        # 60a018 <_GLOBAL_OFFSET_TABLE_+0x18>
  402b36:	68 00 00 00 00       	pushq  $0x0
  402b3b:	e9 e0 ff ff ff       	jmpq   402b20 <_init+0x28>

0000000000402b40 <exp@plt>:
  402b40:	ff 25 da 74 20 00    	jmpq   *0x2074da(%rip)        # 60a020 <_GLOBAL_OFFSET_TABLE_+0x20>
  402b46:	68 01 00 00 00       	pushq  $0x1
  402b4b:	e9 d0 ff ff ff       	jmpq   402b20 <_init+0x28>

0000000000402b50 <_ZNSolsEi@plt>:
  402b50:	ff 25 d2 74 20 00    	jmpq   *0x2074d2(%rip)        # 60a028 <_GLOBAL_OFFSET_TABLE_+0x28>
  402b56:	68 02 00 00 00       	pushq  $0x2
  402b5b:	e9 c0 ff ff ff       	jmpq   402b20 <_init+0x28>

0000000000402b60 <_ZSt16__throw_bad_castv@plt>:
  402b60:	ff 25 ca 74 20 00    	jmpq   *0x2074ca(%rip)        # 60a030 <_GLOBAL_OFFSET_TABLE_+0x30>
  402b66:	68 03 00 00 00       	pushq  $0x3
  402b6b:	e9 b0 ff ff ff       	jmpq   402b20 <_init+0x28>

0000000000402b70 <_ZSt24__throw_out_of_range_fmtPKcz@plt>:
  402b70:	ff 25 c2 74 20 00    	jmpq   *0x2074c2(%rip)        # 60a038 <_GLOBAL_OFFSET_TABLE_+0x38>
  402b76:	68 04 00 00 00       	pushq  $0x4
  402b7b:	e9 a0 ff ff ff       	jmpq   402b20 <_init+0x28>

0000000000402b80 <_ZNSt8ios_baseC2Ev@plt>:
  402b80:	ff 25 ba 74 20 00    	jmpq   *0x2074ba(%rip)        # 60a040 <_GLOBAL_OFFSET_TABLE_+0x40>
  402b86:	68 05 00 00 00       	pushq  $0x5
  402b8b:	e9 90 ff ff ff       	jmpq   402b20 <_init+0x28>

0000000000402b90 <_ZNSi10_M_extractIjEERSiRT_@plt>:
  402b90:	ff 25 b2 74 20 00    	jmpq   *0x2074b2(%rip)        # 60a048 <_GLOBAL_OFFSET_TABLE_+0x48>
  402b96:	68 06 00 00 00       	pushq  $0x6
  402b9b:	e9 80 ff ff ff       	jmpq   402b20 <_init+0x28>

0000000000402ba0 <__gmon_start__@plt>:
  402ba0:	ff 25 aa 74 20 00    	jmpq   *0x2074aa(%rip)        # 60a050 <_GLOBAL_OFFSET_TABLE_+0x50>
  402ba6:	68 07 00 00 00       	pushq  $0x7
  402bab:	e9 70 ff ff ff       	jmpq   402b20 <_init+0x28>

0000000000402bb0 <_ZdlPv@plt>:
  402bb0:	ff 25 a2 74 20 00    	jmpq   *0x2074a2(%rip)        # 60a058 <_GLOBAL_OFFSET_TABLE_+0x58>
  402bb6:	68 08 00 00 00       	pushq  $0x8
  402bbb:	e9 60 ff ff ff       	jmpq   402b20 <_init+0x28>

0000000000402bc0 <pthread_mutex_init@plt>:
  402bc0:	ff 25 9a 74 20 00    	jmpq   *0x20749a(%rip)        # 60a060 <_GLOBAL_OFFSET_TABLE_+0x60>
  402bc6:	68 09 00 00 00       	pushq  $0x9
  402bcb:	e9 50 ff ff ff       	jmpq   402b20 <_init+0x28>

0000000000402bd0 <exit@plt>:
  402bd0:	ff 25 92 74 20 00    	jmpq   *0x207492(%rip)        # 60a068 <_GLOBAL_OFFSET_TABLE_+0x68>
  402bd6:	68 0a 00 00 00       	pushq  $0xa
  402bdb:	e9 40 ff ff ff       	jmpq   402b20 <_init+0x28>

0000000000402be0 <_ZNKSt5ctypeIcE13_M_widen_initEv@plt>:
  402be0:	ff 25 8a 74 20 00    	jmpq   *0x20748a(%rip)        # 60a070 <_GLOBAL_OFFSET_TABLE_+0x70>
  402be6:	68 0b 00 00 00       	pushq  $0xb
  402beb:	e9 30 ff ff ff       	jmpq   402b20 <_init+0x28>

0000000000402bf0 <_ZNSo9_M_insertIPKvEERSoT_@plt>:
  402bf0:	ff 25 82 74 20 00    	jmpq   *0x207482(%rip)        # 60a078 <_GLOBAL_OFFSET_TABLE_+0x78>
  402bf6:	68 0c 00 00 00       	pushq  $0xc
  402bfb:	e9 20 ff ff ff       	jmpq   402b20 <_init+0x28>

0000000000402c00 <__cxa_rethrow@plt>:
  402c00:	ff 25 7a 74 20 00    	jmpq   *0x20747a(%rip)        # 60a080 <_GLOBAL_OFFSET_TABLE_+0x80>
  402c06:	68 0d 00 00 00       	pushq  $0xd
  402c0b:	e9 10 ff ff ff       	jmpq   402b20 <_init+0x28>

0000000000402c10 <_ZNSt8ios_base4InitC1Ev@plt>:
  402c10:	ff 25 72 74 20 00    	jmpq   *0x207472(%rip)        # 60a088 <_GLOBAL_OFFSET_TABLE_+0x88>
  402c16:	68 0e 00 00 00       	pushq  $0xe
  402c1b:	e9 00 ff ff ff       	jmpq   402b20 <_init+0x28>

0000000000402c20 <__libc_start_main@plt>:
  402c20:	ff 25 6a 74 20 00    	jmpq   *0x20746a(%rip)        # 60a090 <_GLOBAL_OFFSET_TABLE_+0x90>
  402c26:	68 0f 00 00 00       	pushq  $0xf
  402c2b:	e9 f0 fe ff ff       	jmpq   402b20 <_init+0x28>

0000000000402c30 <_ZSt18_Rb_tree_decrementPSt18_Rb_tree_node_base@plt>:
  402c30:	ff 25 62 74 20 00    	jmpq   *0x207462(%rip)        # 60a098 <_GLOBAL_OFFSET_TABLE_+0x98>
  402c36:	68 10 00 00 00       	pushq  $0x10
  402c3b:	e9 e0 fe ff ff       	jmpq   402b20 <_init+0x28>

0000000000402c40 <pthread_barrier_wait@plt>:
  402c40:	ff 25 5a 74 20 00    	jmpq   *0x20745a(%rip)        # 60a0a0 <_GLOBAL_OFFSET_TABLE_+0xa0>
  402c46:	68 11 00 00 00       	pushq  $0x11
  402c4b:	e9 d0 fe ff ff       	jmpq   402b20 <_init+0x28>

0000000000402c50 <_ZNSsC1ERKSs@plt>:
  402c50:	ff 25 52 74 20 00    	jmpq   *0x207452(%rip)        # 60a0a8 <_GLOBAL_OFFSET_TABLE_+0xa8>
  402c56:	68 12 00 00 00       	pushq  $0x12
  402c5b:	e9 c0 fe ff ff       	jmpq   402b20 <_init+0x28>

0000000000402c60 <__cxa_atexit@plt>:
  402c60:	ff 25 4a 74 20 00    	jmpq   *0x20744a(%rip)        # 60a0b0 <_GLOBAL_OFFSET_TABLE_+0xb0>
  402c66:	68 13 00 00 00       	pushq  $0x13
  402c6b:	e9 b0 fe ff ff       	jmpq   402b20 <_init+0x28>

0000000000402c70 <_ZNSt13basic_filebufIcSt11char_traitsIcEE4openEPKcSt13_Ios_Openmode@plt>:
  402c70:	ff 25 42 74 20 00    	jmpq   *0x207442(%rip)        # 60a0b8 <_GLOBAL_OFFSET_TABLE_+0xb8>
  402c76:	68 14 00 00 00       	pushq  $0x14
  402c7b:	e9 a0 fe ff ff       	jmpq   402b20 <_init+0x28>

0000000000402c80 <srandom@plt>:
  402c80:	ff 25 3a 74 20 00    	jmpq   *0x20743a(%rip)        # 60a0c0 <_GLOBAL_OFFSET_TABLE_+0xc0>
  402c86:	68 15 00 00 00       	pushq  $0x15
  402c8b:	e9 90 fe ff ff       	jmpq   402b20 <_init+0x28>

0000000000402c90 <pthread_mutex_lock@plt>:
  402c90:	ff 25 32 74 20 00    	jmpq   *0x207432(%rip)        # 60a0c8 <_GLOBAL_OFFSET_TABLE_+0xc8>
  402c96:	68 16 00 00 00       	pushq  $0x16
  402c9b:	e9 80 fe ff ff       	jmpq   402b20 <_init+0x28>

0000000000402ca0 <_ZNSt8ios_base4InitD1Ev@plt>:
  402ca0:	ff 25 2a 74 20 00    	jmpq   *0x20742a(%rip)        # 60a0d0 <_GLOBAL_OFFSET_TABLE_+0xd0>
  402ca6:	68 17 00 00 00       	pushq  $0x17
  402cab:	e9 70 fe ff ff       	jmpq   402b20 <_init+0x28>

0000000000402cb0 <_ZStlsISt11char_traitsIcEERSt13basic_ostreamIcT_ES5_PKc@plt>:
  402cb0:	ff 25 22 74 20 00    	jmpq   *0x207422(%rip)        # 60a0d8 <_GLOBAL_OFFSET_TABLE_+0xd8>
  402cb6:	68 18 00 00 00       	pushq  $0x18
  402cbb:	e9 60 fe ff ff       	jmpq   402b20 <_init+0x28>

0000000000402cc0 <_ZStrsIcSt11char_traitsIcESaIcEERSt13basic_istreamIT_T0_ES7_RSbIS4_S5_T1_E@plt>:
  402cc0:	ff 25 1a 74 20 00    	jmpq   *0x20741a(%rip)        # 60a0e0 <_GLOBAL_OFFSET_TABLE_+0xe0>
  402cc6:	68 19 00 00 00       	pushq  $0x19
  402ccb:	e9 50 fe ff ff       	jmpq   402b20 <_init+0x28>

0000000000402cd0 <_ZNSs4_Rep10_M_destroyERKSaIcE@plt>:
  402cd0:	ff 25 12 74 20 00    	jmpq   *0x207412(%rip)        # 60a0e8 <_GLOBAL_OFFSET_TABLE_+0xe8>
  402cd6:	68 1a 00 00 00       	pushq  $0x1a
  402cdb:	e9 40 fe ff ff       	jmpq   402b20 <_init+0x28>

0000000000402ce0 <pthread_create@plt>:
  402ce0:	ff 25 0a 74 20 00    	jmpq   *0x20740a(%rip)        # 60a0f0 <_GLOBAL_OFFSET_TABLE_+0xf0>
  402ce6:	68 1b 00 00 00       	pushq  $0x1b
  402ceb:	e9 30 fe ff ff       	jmpq   402b20 <_init+0x28>

0000000000402cf0 <_ZNKSs7compareEPKc@plt>:
  402cf0:	ff 25 02 74 20 00    	jmpq   *0x207402(%rip)        # 60a0f8 <_GLOBAL_OFFSET_TABLE_+0xf8>
  402cf6:	68 1c 00 00 00       	pushq  $0x1c
  402cfb:	e9 20 fe ff ff       	jmpq   402b20 <_init+0x28>

0000000000402d00 <_ZNSsC1EPKcRKSaIcE@plt>:
  402d00:	ff 25 fa 73 20 00    	jmpq   *0x2073fa(%rip)        # 60a100 <_GLOBAL_OFFSET_TABLE_+0x100>
  402d06:	68 1d 00 00 00       	pushq  $0x1d
  402d0b:	e9 10 fe ff ff       	jmpq   402b20 <_init+0x28>

0000000000402d10 <_ZSt9terminatev@plt>:
  402d10:	ff 25 f2 73 20 00    	jmpq   *0x2073f2(%rip)        # 60a108 <_GLOBAL_OFFSET_TABLE_+0x108>
  402d16:	68 1e 00 00 00       	pushq  $0x1e
  402d1b:	e9 00 fe ff ff       	jmpq   402b20 <_init+0x28>

0000000000402d20 <pthread_barrier_init@plt>:
  402d20:	ff 25 ea 73 20 00    	jmpq   *0x2073ea(%rip)        # 60a110 <_GLOBAL_OFFSET_TABLE_+0x110>
  402d26:	68 1f 00 00 00       	pushq  $0x1f
  402d2b:	e9 f0 fd ff ff       	jmpq   402b20 <_init+0x28>

0000000000402d30 <strtol@plt>:
  402d30:	ff 25 e2 73 20 00    	jmpq   *0x2073e2(%rip)        # 60a118 <_GLOBAL_OFFSET_TABLE_+0x118>
  402d36:	68 20 00 00 00       	pushq  $0x20
  402d3b:	e9 e0 fd ff ff       	jmpq   402b20 <_init+0x28>

0000000000402d40 <_ZNSt14basic_ofstreamIcSt11char_traitsIcEED1Ev@plt>:
  402d40:	ff 25 da 73 20 00    	jmpq   *0x2073da(%rip)        # 60a120 <_GLOBAL_OFFSET_TABLE_+0x120>
  402d46:	68 21 00 00 00       	pushq  $0x21
  402d4b:	e9 d0 fd ff ff       	jmpq   402b20 <_init+0x28>

0000000000402d50 <_ZSt16__ostream_insertIcSt11char_traitsIcEERSt13basic_ostreamIT_T0_ES6_PKS3_l@plt>:
  402d50:	ff 25 d2 73 20 00    	jmpq   *0x2073d2(%rip)        # 60a128 <_GLOBAL_OFFSET_TABLE_+0x128>
  402d56:	68 22 00 00 00       	pushq  $0x22
  402d5b:	e9 c0 fd ff ff       	jmpq   402b20 <_init+0x28>

0000000000402d60 <memmove@plt>:
  402d60:	ff 25 ca 73 20 00    	jmpq   *0x2073ca(%rip)        # 60a130 <_GLOBAL_OFFSET_TABLE_+0x130>
  402d66:	68 23 00 00 00       	pushq  $0x23
  402d6b:	e9 b0 fd ff ff       	jmpq   402b20 <_init+0x28>

0000000000402d70 <_ZNSt9basic_iosIcSt11char_traitsIcEE4initEPSt15basic_streambufIcS1_E@plt>:
  402d70:	ff 25 c2 73 20 00    	jmpq   *0x2073c2(%rip)        # 60a138 <_GLOBAL_OFFSET_TABLE_+0x138>
  402d76:	68 24 00 00 00       	pushq  $0x24
  402d7b:	e9 a0 fd ff ff       	jmpq   402b20 <_init+0x28>

0000000000402d80 <_ZSt29_Rb_tree_insert_and_rebalancebPSt18_Rb_tree_node_baseS0_RS_@plt>:
  402d80:	ff 25 ba 73 20 00    	jmpq   *0x2073ba(%rip)        # 60a140 <_GLOBAL_OFFSET_TABLE_+0x140>
  402d86:	68 25 00 00 00       	pushq  $0x25
  402d8b:	e9 90 fd ff ff       	jmpq   402b20 <_init+0x28>

0000000000402d90 <_ZNSo5flushEv@plt>:
  402d90:	ff 25 b2 73 20 00    	jmpq   *0x2073b2(%rip)        # 60a148 <_GLOBAL_OFFSET_TABLE_+0x148>
  402d96:	68 26 00 00 00       	pushq  $0x26
  402d9b:	e9 80 fd ff ff       	jmpq   402b20 <_init+0x28>

0000000000402da0 <__stack_chk_fail@plt>:
  402da0:	ff 25 aa 73 20 00    	jmpq   *0x2073aa(%rip)        # 60a150 <_GLOBAL_OFFSET_TABLE_+0x150>
  402da6:	68 27 00 00 00       	pushq  $0x27
  402dab:	e9 70 fd ff ff       	jmpq   402b20 <_init+0x28>

0000000000402db0 <_ZNSt8ios_baseD2Ev@plt>:
  402db0:	ff 25 a2 73 20 00    	jmpq   *0x2073a2(%rip)        # 60a158 <_GLOBAL_OFFSET_TABLE_+0x158>
  402db6:	68 28 00 00 00       	pushq  $0x28
  402dbb:	e9 60 fd ff ff       	jmpq   402b20 <_init+0x28>

0000000000402dc0 <_ZNSt12__basic_fileIcED1Ev@plt>:
  402dc0:	ff 25 9a 73 20 00    	jmpq   *0x20739a(%rip)        # 60a160 <_GLOBAL_OFFSET_TABLE_+0x160>
  402dc6:	68 29 00 00 00       	pushq  $0x29
  402dcb:	e9 50 fd ff ff       	jmpq   402b20 <_init+0x28>

0000000000402dd0 <_ZNSirsERi@plt>:
  402dd0:	ff 25 92 73 20 00    	jmpq   *0x207392(%rip)        # 60a168 <_GLOBAL_OFFSET_TABLE_+0x168>
  402dd6:	68 2a 00 00 00       	pushq  $0x2a
  402ddb:	e9 40 fd ff ff       	jmpq   402b20 <_init+0x28>

0000000000402de0 <_ZNSs6assignERKSs@plt>:
  402de0:	ff 25 8a 73 20 00    	jmpq   *0x20738a(%rip)        # 60a170 <_GLOBAL_OFFSET_TABLE_+0x170>
  402de6:	68 2b 00 00 00       	pushq  $0x2b
  402deb:	e9 30 fd ff ff       	jmpq   402b20 <_init+0x28>

0000000000402df0 <_ZSt5flushIcSt11char_traitsIcEERSt13basic_ostreamIT_T0_ES6_@plt>:
  402df0:	ff 25 82 73 20 00    	jmpq   *0x207382(%rip)        # 60a178 <_GLOBAL_OFFSET_TABLE_+0x178>
  402df6:	68 2c 00 00 00       	pushq  $0x2c
  402dfb:	e9 20 fd ff ff       	jmpq   402b20 <_init+0x28>

0000000000402e00 <memcmp@plt>:
  402e00:	ff 25 7a 73 20 00    	jmpq   *0x20737a(%rip)        # 60a180 <_GLOBAL_OFFSET_TABLE_+0x180>
  402e06:	68 2d 00 00 00       	pushq  $0x2d
  402e0b:	e9 10 fd ff ff       	jmpq   402b20 <_init+0x28>

0000000000402e10 <_ZNSt9basic_iosIcSt11char_traitsIcEE5clearESt12_Ios_Iostate@plt>:
  402e10:	ff 25 72 73 20 00    	jmpq   *0x207372(%rip)        # 60a188 <_GLOBAL_OFFSET_TABLE_+0x188>
  402e16:	68 2e 00 00 00       	pushq  $0x2e
  402e1b:	e9 00 fd ff ff       	jmpq   402b20 <_init+0x28>

0000000000402e20 <_ZNSt13basic_filebufIcSt11char_traitsIcEEC1Ev@plt>:
  402e20:	ff 25 6a 73 20 00    	jmpq   *0x20736a(%rip)        # 60a190 <_GLOBAL_OFFSET_TABLE_+0x190>
  402e26:	68 2f 00 00 00       	pushq  $0x2f
  402e2b:	e9 f0 fc ff ff       	jmpq   402b20 <_init+0x28>

0000000000402e30 <pthread_barrier_destroy@plt>:
  402e30:	ff 25 62 73 20 00    	jmpq   *0x207362(%rip)        # 60a198 <_GLOBAL_OFFSET_TABLE_+0x198>
  402e36:	68 30 00 00 00       	pushq  $0x30
  402e3b:	e9 e0 fc ff ff       	jmpq   402b20 <_init+0x28>

0000000000402e40 <pthread_mutex_unlock@plt>:
  402e40:	ff 25 5a 73 20 00    	jmpq   *0x20735a(%rip)        # 60a1a0 <_GLOBAL_OFFSET_TABLE_+0x1a0>
  402e46:	68 31 00 00 00       	pushq  $0x31
  402e4b:	e9 d0 fc ff ff       	jmpq   402b20 <_init+0x28>

0000000000402e50 <_ZSt18_Rb_tree_incrementPSt18_Rb_tree_node_base@plt>:
  402e50:	ff 25 52 73 20 00    	jmpq   *0x207352(%rip)        # 60a1a8 <_GLOBAL_OFFSET_TABLE_+0x1a8>
  402e56:	68 32 00 00 00       	pushq  $0x32
  402e5b:	e9 c0 fc ff ff       	jmpq   402b20 <_init+0x28>

0000000000402e60 <_ZNSo9_M_insertIdEERSoT_@plt>:
  402e60:	ff 25 4a 73 20 00    	jmpq   *0x20734a(%rip)        # 60a1b0 <_GLOBAL_OFFSET_TABLE_+0x1b0>
  402e66:	68 33 00 00 00       	pushq  $0x33
  402e6b:	e9 b0 fc ff ff       	jmpq   402b20 <_init+0x28>

0000000000402e70 <__cxa_end_catch@plt>:
  402e70:	ff 25 42 73 20 00    	jmpq   *0x207342(%rip)        # 60a1b8 <_GLOBAL_OFFSET_TABLE_+0x1b8>
  402e76:	68 34 00 00 00       	pushq  $0x34
  402e7b:	e9 a0 fc ff ff       	jmpq   402b20 <_init+0x28>

0000000000402e80 <_ZSt17__throw_bad_allocv@plt>:
  402e80:	ff 25 3a 73 20 00    	jmpq   *0x20733a(%rip)        # 60a1c0 <_GLOBAL_OFFSET_TABLE_+0x1c0>
  402e86:	68 35 00 00 00       	pushq  $0x35
  402e8b:	e9 90 fc ff ff       	jmpq   402b20 <_init+0x28>

0000000000402e90 <_ZNSt13basic_filebufIcSt11char_traitsIcEED1Ev@plt>:
  402e90:	ff 25 32 73 20 00    	jmpq   *0x207332(%rip)        # 60a1c8 <_GLOBAL_OFFSET_TABLE_+0x1c8>
  402e96:	68 36 00 00 00       	pushq  $0x36
  402e9b:	e9 80 fc ff ff       	jmpq   402b20 <_init+0x28>

0000000000402ea0 <_ZSt4endlIcSt11char_traitsIcEERSt13basic_ostreamIT_T0_ES6_@plt>:
  402ea0:	ff 25 2a 73 20 00    	jmpq   *0x20732a(%rip)        # 60a1d0 <_GLOBAL_OFFSET_TABLE_+0x1d0>
  402ea6:	68 37 00 00 00       	pushq  $0x37
  402eab:	e9 70 fc ff ff       	jmpq   402b20 <_init+0x28>

0000000000402eb0 <__pthread_key_create@plt>:
  402eb0:	ff 25 22 73 20 00    	jmpq   *0x207322(%rip)        # 60a1d8 <_GLOBAL_OFFSET_TABLE_+0x1d8>
  402eb6:	68 38 00 00 00       	pushq  $0x38
  402ebb:	e9 60 fc ff ff       	jmpq   402b20 <_init+0x28>

0000000000402ec0 <__cxa_begin_catch@plt>:
  402ec0:	ff 25 1a 73 20 00    	jmpq   *0x20731a(%rip)        # 60a1e0 <_GLOBAL_OFFSET_TABLE_+0x1e0>
  402ec6:	68 39 00 00 00       	pushq  $0x39
  402ecb:	e9 50 fc ff ff       	jmpq   402b20 <_init+0x28>

0000000000402ed0 <__gxx_personality_v0@plt>:
  402ed0:	ff 25 12 73 20 00    	jmpq   *0x207312(%rip)        # 60a1e8 <_GLOBAL_OFFSET_TABLE_+0x1e8>
  402ed6:	68 3a 00 00 00       	pushq  $0x3a
  402edb:	e9 40 fc ff ff       	jmpq   402b20 <_init+0x28>

0000000000402ee0 <_Znwm@plt>:
  402ee0:	ff 25 0a 73 20 00    	jmpq   *0x20730a(%rip)        # 60a1f0 <_GLOBAL_OFFSET_TABLE_+0x1f0>
  402ee6:	68 3b 00 00 00       	pushq  $0x3b
  402eeb:	e9 30 fc ff ff       	jmpq   402b20 <_init+0x28>

0000000000402ef0 <_Unwind_Resume@plt>:
  402ef0:	ff 25 02 73 20 00    	jmpq   *0x207302(%rip)        # 60a1f8 <_GLOBAL_OFFSET_TABLE_+0x1f8>
  402ef6:	68 3c 00 00 00       	pushq  $0x3c
  402efb:	e9 20 fc ff ff       	jmpq   402b20 <_init+0x28>

0000000000402f00 <_ZNSt6localeD1Ev@plt>:
  402f00:	ff 25 fa 72 20 00    	jmpq   *0x2072fa(%rip)        # 60a200 <_GLOBAL_OFFSET_TABLE_+0x200>
  402f06:	68 3d 00 00 00       	pushq  $0x3d
  402f0b:	e9 10 fc ff ff       	jmpq   402b20 <_init+0x28>

0000000000402f10 <_ZNSo3putEc@plt>:
  402f10:	ff 25 f2 72 20 00    	jmpq   *0x2072f2(%rip)        # 60a208 <_GLOBAL_OFFSET_TABLE_+0x208>
  402f16:	68 3e 00 00 00       	pushq  $0x3e
  402f1b:	e9 00 fc ff ff       	jmpq   402b20 <_init+0x28>

0000000000402f20 <_ZNSt13basic_filebufIcSt11char_traitsIcEE5closeEv@plt>:
  402f20:	ff 25 ea 72 20 00    	jmpq   *0x2072ea(%rip)        # 60a210 <_GLOBAL_OFFSET_TABLE_+0x210>
  402f26:	68 3f 00 00 00       	pushq  $0x3f
  402f2b:	e9 f0 fb ff ff       	jmpq   402b20 <_init+0x28>

0000000000402f30 <pthread_join@plt>:
  402f30:	ff 25 e2 72 20 00    	jmpq   *0x2072e2(%rip)        # 60a218 <_GLOBAL_OFFSET_TABLE_+0x218>
  402f36:	68 40 00 00 00       	pushq  $0x40
  402f3b:	e9 e0 fb ff ff       	jmpq   402b20 <_init+0x28>

Disassembly of section .text:

0000000000402f40 <_GLOBAL__sub_I__ZN15annealer_thread3RunEv>:
  402f40:	55                   	push   %rbp
  402f41:	bf 11 a6 60 00       	mov    $0x60a611,%edi
  402f46:	48 89 e5             	mov    %rsp,%rbp
  402f49:	e8 c2 fc ff ff       	callq  402c10 <_ZNSt8ios_base4InitC1Ev@plt>
  402f4e:	5d                   	pop    %rbp
  402f4f:	ba 28 a2 60 00       	mov    $0x60a228,%edx
  402f54:	be 11 a6 60 00       	mov    $0x60a611,%esi
  402f59:	bf a0 2c 40 00       	mov    $0x402ca0,%edi
  402f5e:	e9 fd fc ff ff       	jmpq   402c60 <__cxa_atexit@plt>
  402f63:	66 2e 0f 1f 84 00 00 	nopw   %cs:0x0(%rax,%rax,1)
  402f6a:	00 00 00 
  402f6d:	0f 1f 00             	nopl   (%rax)

0000000000402f70 <_GLOBAL__sub_I__ZN3Rng4seedE>:
  402f70:	55                   	push   %rbp
  402f71:	bf 4c a6 60 00       	mov    $0x60a64c,%edi
  402f76:	48 89 e5             	mov    %rsp,%rbp
  402f79:	e8 92 fc ff ff       	callq  402c10 <_ZNSt8ios_base4InitC1Ev@plt>
  402f7e:	5d                   	pop    %rbp
  402f7f:	ba 28 a2 60 00       	mov    $0x60a228,%edx
  402f84:	be 4c a6 60 00       	mov    $0x60a64c,%esi
  402f89:	bf a0 2c 40 00       	mov    $0x402ca0,%edi
  402f8e:	e9 cd fc ff ff       	jmpq   402c60 <__cxa_atexit@plt>
  402f93:	66 2e 0f 1f 84 00 00 	nopw   %cs:0x0(%rax,%rax,1)
  402f9a:	00 00 00 
  402f9d:	0f 1f 00             	nopl   (%rax)

0000000000402fa0 <_GLOBAL__sub_I__ZN7netlist7releaseEP12netlist_elem>:
  402fa0:	55                   	push   %rbp
  402fa1:	bf 54 a6 60 00       	mov    $0x60a654,%edi
  402fa6:	48 89 e5             	mov    %rsp,%rbp
  402fa9:	e8 62 fc ff ff       	callq  402c10 <_ZNSt8ios_base4InitC1Ev@plt>
  402fae:	5d                   	pop    %rbp
  402faf:	ba 28 a2 60 00       	mov    $0x60a228,%edx
  402fb4:	be 54 a6 60 00       	mov    $0x60a654,%esi
  402fb9:	bf a0 2c 40 00       	mov    $0x402ca0,%edi
  402fbe:	e9 9d fc ff ff       	jmpq   402c60 <__cxa_atexit@plt>
  402fc3:	66 2e 0f 1f 84 00 00 	nopw   %cs:0x0(%rax,%rax,1)
  402fca:	00 00 00 
  402fcd:	0f 1f 00             	nopl   (%rax)

0000000000402fd0 <main>:
  402fd0:	55                   	push   %rbp
  402fd1:	48 89 e5             	mov    %rsp,%rbp
  402fd4:	41 57                	push   %r15
  402fd6:	41 56                	push   %r14
  402fd8:	41 55                	push   %r13
  402fda:	41 54                	push   %r12
  402fdc:	41 89 ff             	mov    %edi,%r15d
  402fdf:	53                   	push   %rbx
  402fe0:	bf c0 a3 60 00       	mov    $0x60a3c0,%edi
  402fe5:	49 89 f6             	mov    %rsi,%r14
  402fe8:	be f0 8a 40 00       	mov    $0x408af0,%esi
  402fed:	48 81 ec 08 01 00 00 	sub    $0x108,%rsp
  402ff4:	64 48 8b 04 25 28 00 	mov    %fs:0x28,%rax
  402ffb:	00 00 
  402ffd:	48 89 45 c8          	mov    %rax,-0x38(%rbp)
  403001:	31 c0                	xor    %eax,%eax
  403003:	e8 a8 fc ff ff       	callq  402cb0 <_ZStlsISt11char_traitsIcEERSt13basic_ostreamIcT_ES5_PKc@plt>
  403008:	48 89 c7             	mov    %rax,%rdi
  40300b:	e8 90 fe ff ff       	callq  402ea0 <_ZSt4endlIcSt11char_traitsIcEERSt13basic_ostreamIT_T0_ES6_@plt>
  403010:	48 89 c7             	mov    %rax,%rdi
  403013:	e8 d8 fd ff ff       	callq  402df0 <_ZSt5flushIcSt11char_traitsIcEERSt13basic_ostreamIT_T0_ES6_@plt>
  403018:	bf 03 00 00 00       	mov    $0x3,%edi
  40301d:	e8 5e fc ff ff       	callq  402c80 <srandom@plt>
  403022:	41 8d 47 fb          	lea    -0x5(%r15),%eax
  403026:	83 f8 01             	cmp    $0x1,%eax
  403029:	0f 87 90 03 00 00    	ja     4033bf <main+0x3ef>
  40302f:	49 8b 7e 08          	mov    0x8(%r14),%rdi
  403033:	ba 0a 00 00 00       	mov    $0xa,%edx
  403038:	31 f6                	xor    %esi,%esi
  40303a:	e8 f1 fc ff ff       	callq  402d30 <strtol@plt>
  40303f:	be 0f 8b 40 00       	mov    $0x408b0f,%esi
  403044:	49 89 c4             	mov    %rax,%r12
  403047:	bf c0 a3 60 00       	mov    $0x60a3c0,%edi
  40304c:	89 c3                	mov    %eax,%ebx
  40304e:	e8 5d fc ff ff       	callq  402cb0 <_ZStlsISt11char_traitsIcEERSt13basic_ostreamIcT_ES5_PKc@plt>
  403053:	44 89 e6             	mov    %r12d,%esi
  403056:	48 89 c7             	mov    %rax,%rdi
  403059:	e8 f2 fa ff ff       	callq  402b50 <_ZNSolsEi@plt>
  40305e:	48 89 c7             	mov    %rax,%rdi
  403061:	e8 3a fe ff ff       	callq  402ea0 <_ZSt4endlIcSt11char_traitsIcEERSt13basic_ostreamIT_T0_ES6_@plt>
  403066:	49 8b 7e 10          	mov    0x10(%r14),%rdi
  40306a:	ba 0a 00 00 00       	mov    $0xa,%edx
  40306f:	31 f6                	xor    %esi,%esi
  403071:	e8 ba fc ff ff       	callq  402d30 <strtol@plt>
  403076:	bf c0 a3 60 00       	mov    $0x60a3c0,%edi
  40307b:	89 c6                	mov    %eax,%esi
  40307d:	89 85 dc fe ff ff    	mov    %eax,-0x124(%rbp)
  403083:	e8 c8 fa ff ff       	callq  402b50 <_ZNSolsEi@plt>
  403088:	be 1d 8b 40 00       	mov    $0x408b1d,%esi
  40308d:	48 89 c7             	mov    %rax,%rdi
  403090:	e8 1b fc ff ff       	callq  402cb0 <_ZStlsISt11char_traitsIcEERSt13basic_ostreamIcT_ES5_PKc@plt>
  403095:	48 89 c7             	mov    %rax,%rdi
  403098:	e8 03 fe ff ff       	callq  402ea0 <_ZSt4endlIcSt11char_traitsIcEERSt13basic_ostreamIT_T0_ES6_@plt>
  40309d:	49 8b 7e 18          	mov    0x18(%r14),%rdi
  4030a1:	ba 0a 00 00 00       	mov    $0xa,%edx
  4030a6:	31 f6                	xor    %esi,%esi
  4030a8:	e8 83 fc ff ff       	callq  402d30 <strtol@plt>
  4030ad:	be 39 8b 40 00       	mov    $0x408b39,%esi
  4030b2:	49 89 c5             	mov    %rax,%r13
  4030b5:	bf c0 a3 60 00       	mov    $0x60a3c0,%edi
  4030ba:	48 89 85 e0 fe ff ff 	mov    %rax,-0x120(%rbp)
  4030c1:	e8 ea fb ff ff       	callq  402cb0 <_ZStlsISt11char_traitsIcEERSt13basic_ostreamIcT_ES5_PKc@plt>
  4030c6:	44 89 ee             	mov    %r13d,%esi
  4030c9:	48 89 c7             	mov    %rax,%rdi
  4030cc:	4c 8d ad 50 ff ff ff 	lea    -0xb0(%rbp),%r13
  4030d3:	e8 78 fa ff ff       	callq  402b50 <_ZNSolsEi@plt>
  4030d8:	48 89 c7             	mov    %rax,%rdi
  4030db:	e8 c0 fd ff ff       	callq  402ea0 <_ZSt4endlIcSt11char_traitsIcEERSt13basic_ostreamIT_T0_ES6_@plt>
  4030e0:	49 8b 76 20          	mov    0x20(%r14),%rsi
  4030e4:	48 8d bd 00 ff ff ff 	lea    -0x100(%rbp),%rdi
  4030eb:	4c 89 ea             	mov    %r13,%rdx
  4030ee:	e8 0d fc ff ff       	callq  402d00 <_ZNSsC1EPKcRKSaIcE@plt>
  4030f3:	be 4d 8b 40 00       	mov    $0x408b4d,%esi
  4030f8:	bf c0 a3 60 00       	mov    $0x60a3c0,%edi
  4030fd:	e8 ae fb ff ff       	callq  402cb0 <_ZStlsISt11char_traitsIcEERSt13basic_ostreamIcT_ES5_PKc@plt>
  403102:	48 8b b5 00 ff ff ff 	mov    -0x100(%rbp),%rsi
  403109:	48 89 c7             	mov    %rax,%rdi
  40310c:	48 8b 56 e8          	mov    -0x18(%rsi),%rdx
  403110:	e8 3b fc ff ff       	callq  402d50 <_ZSt16__ostream_insertIcSt11char_traitsIcEERSt13basic_ostreamIT_T0_ES6_PKS3_l@plt>
  403115:	48 89 c7             	mov    %rax,%rdi
  403118:	e8 83 fd ff ff       	callq  402ea0 <_ZSt4endlIcSt11char_traitsIcEERSt13basic_ostreamIT_T0_ES6_@plt>
  40311d:	41 83 ff 06          	cmp    $0x6,%r15d
  403121:	c7 85 e8 fe ff ff ff 	movl   $0xffffffff,-0x118(%rbp)
  403128:	ff ff ff 
  40312b:	0f 84 f5 01 00 00    	je     403326 <main+0x356>
  403131:	be 7e 8b 40 00       	mov    $0x408b7e,%esi
  403136:	bf c0 a3 60 00       	mov    $0x60a3c0,%edi
  40313b:	e8 70 fb ff ff       	callq  402cb0 <_ZStlsISt11char_traitsIcEERSt13basic_ostreamIcT_ES5_PKc@plt>
  403140:	48 89 c7             	mov    %rax,%rdi
  403143:	e8 58 fd ff ff       	callq  402ea0 <_ZSt4endlIcSt11char_traitsIcEERSt13basic_ostreamIT_T0_ES6_@plt>
  403148:	48 8d b5 00 ff ff ff 	lea    -0x100(%rbp),%rsi
  40314f:	4c 89 ef             	mov    %r13,%rdi
  403152:	e8 79 19 00 00       	callq  404ad0 <_ZN7netlistC1ERKSs>
  403157:	be 93 8b 40 00       	mov    $0x408b93,%esi
  40315c:	bf c0 a3 60 00       	mov    $0x60a3c0,%edi
  403161:	e8 4a fb ff ff       	callq  402cb0 <_ZStlsISt11char_traitsIcEERSt13basic_ostreamIcT_ES5_PKc@plt>
  403166:	48 89 c7             	mov    %rax,%rdi
  403169:	e8 32 fd ff ff       	callq  402ea0 <_ZSt4endlIcSt11char_traitsIcEERSt13basic_ostreamIT_T0_ES6_@plt>
  40316e:	8b 85 dc fe ff ff    	mov    -0x124(%rbp),%eax
  403174:	31 f6                	xor    %esi,%esi
  403176:	4c 89 ad 10 ff ff ff 	mov    %r13,-0xf0(%rbp)
  40317d:	c6 85 18 ff ff ff 01 	movb   $0x1,-0xe8(%rbp)
  403184:	4d 63 fc             	movslq %r12d,%r15
  403187:	45 31 f6             	xor    %r14d,%r14d
  40318a:	99                   	cltd   
  40318b:	f7 fb                	idiv   %ebx
  40318d:	44 89 e2             	mov    %r12d,%edx
  403190:	89 85 1c ff ff ff    	mov    %eax,-0xe4(%rbp)
  403196:	8b 85 e0 fe ff ff    	mov    -0x120(%rbp),%eax
  40319c:	89 85 20 ff ff ff    	mov    %eax,-0xe0(%rbp)
  4031a2:	8b 85 e8 fe ff ff    	mov    -0x118(%rbp),%eax
  4031a8:	89 85 24 ff ff ff    	mov    %eax,-0xdc(%rbp)
  4031ae:	48 8d 85 10 ff ff ff 	lea    -0xf0(%rbp),%rax
  4031b5:	48 8d 78 18          	lea    0x18(%rax),%rdi
  4031b9:	e8 62 fb ff ff       	callq  402d20 <pthread_barrier_init@plt>
  4031be:	31 f6                	xor    %esi,%esi
  4031c0:	bf 20 a6 60 00       	mov    $0x60a620,%edi
  4031c5:	e8 f6 f9 ff ff       	callq  402bc0 <pthread_mutex_init@plt>
  4031ca:	4d 85 ff             	test   %r15,%r15
  4031cd:	0f 85 14 01 00 00    	jne    4032e7 <main+0x317>
  4031d3:	be f0 8b 40 00       	mov    $0x408bf0,%esi
  4031d8:	bf c0 a3 60 00       	mov    $0x60a3c0,%edi
  4031dd:	e8 ce fa ff ff       	callq  402cb0 <_ZStlsISt11char_traitsIcEERSt13basic_ostreamIcT_ES5_PKc@plt>
  4031e2:	48 8d b5 10 ff ff ff 	lea    -0xf0(%rbp),%rsi
  4031e9:	48 89 c7             	mov    %rax,%rdi
  4031ec:	e8 ff f9 ff ff       	callq  402bf0 <_ZNSo9_M_insertIPKvEERSoT_@plt>
  4031f1:	48 89 c7             	mov    %rax,%rdi
  4031f4:	e8 a7 fc ff ff       	callq  402ea0 <_ZSt4endlIcSt11char_traitsIcEERSt13basic_ostreamIT_T0_ES6_@plt>
  4031f9:	45 85 e4             	test   %r12d,%r12d
  4031fc:	7e 4e                	jle    40324c <main+0x27c>
  4031fe:	41 83 ec 01          	sub    $0x1,%r12d
  403202:	4d 89 f7             	mov    %r14,%r15
  403205:	4f 8d 64 e6 08       	lea    0x8(%r14,%r12,8),%r12
  40320a:	66 0f 1f 44 00 00    	nopw   0x0(%rax,%rax,1)
  403210:	48 8d 8d 10 ff ff ff 	lea    -0xf0(%rbp),%rcx
  403217:	31 f6                	xor    %esi,%esi
  403219:	4c 89 ff             	mov    %r15,%rdi
  40321c:	ba c0 84 40 00       	mov    $0x4084c0,%edx
  403221:	49 83 c7 08          	add    $0x8,%r15
  403225:	e8 b6 fa ff ff       	callq  402ce0 <pthread_create@plt>
  40322a:	4d 39 e7             	cmp    %r12,%r15
  40322d:	75 e1                	jne    403210 <main+0x240>
  40322f:	45 31 e4             	xor    %r12d,%r12d
  403232:	66 0f 1f 44 00 00    	nopw   0x0(%rax,%rax,1)
  403238:	4b 8b 3c e6          	mov    (%r14,%r12,8),%rdi
  40323c:	31 f6                	xor    %esi,%esi
  40323e:	e8 ed fc ff ff       	callq  402f30 <pthread_join@plt>
  403243:	49 83 c4 01          	add    $0x1,%r12
  403247:	44 39 e3             	cmp    %r12d,%ebx
  40324a:	7f ec                	jg     403238 <main+0x268>
  40324c:	4c 89 ef             	mov    %r13,%rdi
  40324f:	e8 5c 0c 00 00       	callq  403eb0 <_ZN7netlist18total_routing_costEv>
  403254:	be b1 8b 40 00       	mov    $0x408bb1,%esi
  403259:	bf c0 a3 60 00       	mov    $0x60a3c0,%edi
  40325e:	f2 0f 11 85 e8 fe ff 	movsd  %xmm0,-0x118(%rbp)
  403265:	ff 
  403266:	e8 45 fa ff ff       	callq  402cb0 <_ZStlsISt11char_traitsIcEERSt13basic_ostreamIcT_ES5_PKc@plt>
  40326b:	f2 0f 10 85 e8 fe ff 	movsd  -0x118(%rbp),%xmm0
  403272:	ff 
  403273:	48 89 c7             	mov    %rax,%rdi
  403276:	e8 e5 fb ff ff       	callq  402e60 <_ZNSo9_M_insertIdEERSoT_@plt>
  40327b:	48 89 c7             	mov    %rax,%rdi
  40327e:	e8 1d fc ff ff       	callq  402ea0 <_ZSt4endlIcSt11char_traitsIcEERSt13basic_ostreamIT_T0_ES6_@plt>
  403283:	4d 85 f6             	test   %r14,%r14
  403286:	74 08                	je     403290 <main+0x2c0>
  403288:	4c 89 f7             	mov    %r14,%rdi
  40328b:	e8 20 f9 ff ff       	callq  402bb0 <_ZdlPv@plt>
  403290:	48 8d 85 10 ff ff ff 	lea    -0xf0(%rbp),%rax
  403297:	48 8d 78 18          	lea    0x18(%rax),%rdi
  40329b:	e8 90 fb ff ff       	callq  402e30 <pthread_barrier_destroy@plt>
  4032a0:	4c 89 ef             	mov    %r13,%rdi
  4032a3:	e8 58 52 00 00       	callq  408500 <_ZN7netlistD1Ev>
  4032a8:	48 8b 85 00 ff ff ff 	mov    -0x100(%rbp),%rax
  4032af:	48 8d 78 e8          	lea    -0x18(%rax),%rdi
  4032b3:	48 81 ff 80 a5 60 00 	cmp    $0x60a580,%rdi
  4032ba:	0f 85 a6 00 00 00    	jne    403366 <main+0x396>
  4032c0:	31 c0                	xor    %eax,%eax
  4032c2:	48 8b 55 c8          	mov    -0x38(%rbp),%rdx
  4032c6:	64 48 33 14 25 28 00 	xor    %fs:0x28,%rdx
  4032cd:	00 00 
  4032cf:	0f 85 2b 01 00 00    	jne    403400 <main+0x430>
  4032d5:	48 81 c4 08 01 00 00 	add    $0x108,%rsp
  4032dc:	5b                   	pop    %rbx
  4032dd:	41 5c                	pop    %r12
  4032df:	41 5d                	pop    %r13
  4032e1:	41 5e                	pop    %r14
  4032e3:	41 5f                	pop    %r15
  4032e5:	5d                   	pop    %rbp
  4032e6:	c3                   	retq   
  4032e7:	48 b8 ff ff ff ff ff 	movabs $0x1fffffffffffffff,%rax
  4032ee:	ff ff 1f 
  4032f1:	49 39 c7             	cmp    %rax,%r15
  4032f4:	0f 87 28 01 00 00    	ja     403422 <main+0x452>
  4032fa:	4a 8d 3c fd 00 00 00 	lea    0x0(,%r15,8),%rdi
  403301:	00 
  403302:	e8 d9 fb ff ff       	callq  402ee0 <_Znwm@plt>
  403307:	49 89 c6             	mov    %rax,%r14
  40330a:	31 c0                	xor    %eax,%eax
  40330c:	0f 1f 40 00          	nopl   0x0(%rax)
  403310:	49 c7 04 c6 00 00 00 	movq   $0x0,(%r14,%rax,8)
  403317:	00 
  403318:	48 83 c0 01          	add    $0x1,%rax
  40331c:	49 39 c7             	cmp    %rax,%r15
  40331f:	75 ef                	jne    403310 <main+0x340>
  403321:	e9 ad fe ff ff       	jmpq   4031d3 <main+0x203>
  403326:	49 8b 7e 28          	mov    0x28(%r14),%rdi
  40332a:	31 f6                	xor    %esi,%esi
  40332c:	ba 0a 00 00 00       	mov    $0xa,%edx
  403331:	e8 fa f9 ff ff       	callq  402d30 <strtol@plt>
  403336:	be 60 8b 40 00       	mov    $0x408b60,%esi
  40333b:	bf c0 a3 60 00       	mov    $0x60a3c0,%edi
  403340:	49 89 c6             	mov    %rax,%r14
  403343:	89 85 e8 fe ff ff    	mov    %eax,-0x118(%rbp)
  403349:	e8 62 f9 ff ff       	callq  402cb0 <_ZStlsISt11char_traitsIcEERSt13basic_ostreamIcT_ES5_PKc@plt>
  40334e:	44 89 f6             	mov    %r14d,%esi
  403351:	48 89 c7             	mov    %rax,%rdi
  403354:	e8 f7 f7 ff ff       	callq  402b50 <_ZNSolsEi@plt>
  403359:	48 89 c7             	mov    %rax,%rdi
  40335c:	e8 3f fb ff ff       	callq  402ea0 <_ZSt4endlIcSt11char_traitsIcEERSt13basic_ostreamIT_T0_ES6_@plt>
  403361:	e9 cb fd ff ff       	jmpq   403131 <main+0x161>
  403366:	48 8d b5 ff fe ff ff 	lea    -0x101(%rbp),%rsi
  40336d:	e8 5e 51 00 00       	callq  4084d0 <_ZNSs4_Rep10_M_disposeERKSaIcE.part.1>
  403372:	e9 49 ff ff ff       	jmpq   4032c0 <main+0x2f0>
  403377:	48 89 c3             	mov    %rax,%rbx
  40337a:	48 8d 85 10 ff ff ff 	lea    -0xf0(%rbp),%rax
  403381:	48 8d 78 18          	lea    0x18(%rax),%rdi
  403385:	e8 a6 fa ff ff       	callq  402e30 <pthread_barrier_destroy@plt>
  40338a:	4c 89 ef             	mov    %r13,%rdi
  40338d:	e8 6e 51 00 00       	callq  408500 <_ZN7netlistD1Ev>
  403392:	48 8b 85 00 ff ff ff 	mov    -0x100(%rbp),%rax
  403399:	48 8d 78 e8          	lea    -0x18(%rax),%rdi
  40339d:	48 81 ff 80 a5 60 00 	cmp    $0x60a580,%rdi
  4033a4:	74 0c                	je     4033b2 <main+0x3e2>
  4033a6:	48 8d b5 ff fe ff ff 	lea    -0x101(%rbp),%rsi
  4033ad:	e8 1e 51 00 00       	callq  4084d0 <_ZNSs4_Rep10_M_disposeERKSaIcE.part.1>
  4033b2:	48 89 df             	mov    %rbx,%rdi
  4033b5:	e8 36 fb ff ff       	callq  402ef0 <_Unwind_Resume@plt>
  4033ba:	48 89 c3             	mov    %rax,%rbx
  4033bd:	eb d3                	jmp    403392 <main+0x3c2>
  4033bf:	49 8b 1e             	mov    (%r14),%rbx
  4033c2:	be 07 8b 40 00       	mov    $0x408b07,%esi
  4033c7:	bf c0 a3 60 00       	mov    $0x60a3c0,%edi
  4033cc:	e8 df f8 ff ff       	callq  402cb0 <_ZStlsISt11char_traitsIcEERSt13basic_ostreamIcT_ES5_PKc@plt>
  4033d1:	48 89 c7             	mov    %rax,%rdi
  4033d4:	48 89 de             	mov    %rbx,%rsi
  4033d7:	e8 d4 f8 ff ff       	callq  402cb0 <_ZStlsISt11char_traitsIcEERSt13basic_ostreamIcT_ES5_PKc@plt>
  4033dc:	be c8 8b 40 00       	mov    $0x408bc8,%esi
  4033e1:	48 89 c7             	mov    %rax,%rdi
  4033e4:	e8 c7 f8 ff ff       	callq  402cb0 <_ZStlsISt11char_traitsIcEERSt13basic_ostreamIcT_ES5_PKc@plt>
  4033e9:	48 89 c7             	mov    %rax,%rdi
  4033ec:	e8 af fa ff ff       	callq  402ea0 <_ZSt4endlIcSt11char_traitsIcEERSt13basic_ostreamIT_T0_ES6_@plt>
  4033f1:	bf 01 00 00 00       	mov    $0x1,%edi
  4033f6:	e8 d5 f7 ff ff       	callq  402bd0 <exit@plt>
  4033fb:	48 89 c3             	mov    %rax,%rbx
  4033fe:	eb 8a                	jmp    40338a <main+0x3ba>
  403400:	e8 9b f9 ff ff       	callq  402da0 <__stack_chk_fail@plt>
  403405:	48 89 c3             	mov    %rax,%rbx
  403408:	4c 89 f7             	mov    %r14,%rdi
  40340b:	e8 a0 f7 ff ff       	callq  402bb0 <_ZdlPv@plt>
  403410:	e9 65 ff ff ff       	jmpq   40337a <main+0x3aa>
  403415:	4d 85 f6             	test   %r14,%r14
  403418:	48 89 c3             	mov    %rax,%rbx
  40341b:	75 eb                	jne    403408 <main+0x438>
  40341d:	e9 58 ff ff ff       	jmpq   40337a <main+0x3aa>
  403422:	e8 59 fa ff ff       	callq  402e80 <_ZSt17__throw_bad_allocv@plt>
  403427:	66 0f 1f 84 00 00 00 	nopw   0x0(%rax,%rax,1)
  40342e:	00 00 

0000000000403430 <_GLOBAL__sub_I_main>:
  403430:	55                   	push   %rbp
  403431:	bf 55 a6 60 00       	mov    $0x60a655,%edi
  403436:	48 89 e5             	mov    %rsp,%rbp
  403439:	e8 d2 f7 ff ff       	callq  402c10 <_ZNSt8ios_base4InitC1Ev@plt>
  40343e:	5d                   	pop    %rbp
  40343f:	ba 28 a2 60 00       	mov    $0x60a228,%edx
  403444:	be 55 a6 60 00       	mov    $0x60a655,%esi
  403449:	bf a0 2c 40 00       	mov    $0x402ca0,%edi
  40344e:	e9 0d f8 ff ff       	jmpq   402c60 <__cxa_atexit@plt>

0000000000403453 <_start>:
  403453:	31 ed                	xor    %ebp,%ebp
  403455:	49 89 d1             	mov    %rdx,%r9
  403458:	5e                   	pop    %rsi
  403459:	48 89 e2             	mov    %rsp,%rdx
  40345c:	48 83 e4 f0          	and    $0xfffffffffffffff0,%rsp
  403460:	50                   	push   %rax
  403461:	54                   	push   %rsp
  403462:	49 c7 c0 d0 89 40 00 	mov    $0x4089d0,%r8
  403469:	48 c7 c1 60 89 40 00 	mov    $0x408960,%rcx
  403470:	48 c7 c7 d0 2f 40 00 	mov    $0x402fd0,%rdi
  403477:	e8 a4 f7 ff ff       	callq  402c20 <__libc_start_main@plt>
  40347c:	f4                   	hlt    
  40347d:	0f 1f 00             	nopl   (%rax)

0000000000403480 <deregister_tm_clones>:
  403480:	b8 3f a2 60 00       	mov    $0x60a23f,%eax
  403485:	55                   	push   %rbp
  403486:	48 2d 38 a2 60 00    	sub    $0x60a238,%rax
  40348c:	48 83 f8 0e          	cmp    $0xe,%rax
  403490:	48 89 e5             	mov    %rsp,%rbp
  403493:	76 1b                	jbe    4034b0 <deregister_tm_clones+0x30>
  403495:	b8 00 00 00 00       	mov    $0x0,%eax
  40349a:	48 85 c0             	test   %rax,%rax
  40349d:	74 11                	je     4034b0 <deregister_tm_clones+0x30>
  40349f:	5d                   	pop    %rbp
  4034a0:	bf 38 a2 60 00       	mov    $0x60a238,%edi
  4034a5:	ff e0                	jmpq   *%rax
  4034a7:	66 0f 1f 84 00 00 00 	nopw   0x0(%rax,%rax,1)
  4034ae:	00 00 
  4034b0:	5d                   	pop    %rbp
  4034b1:	c3                   	retq   
  4034b2:	66 66 66 66 66 2e 0f 	data16 data16 data16 data16 nopw %cs:0x0(%rax,%rax,1)
  4034b9:	1f 84 00 00 00 00 00 

00000000004034c0 <register_tm_clones>:
  4034c0:	be 38 a2 60 00       	mov    $0x60a238,%esi
  4034c5:	55                   	push   %rbp
  4034c6:	48 81 ee 38 a2 60 00 	sub    $0x60a238,%rsi
  4034cd:	48 c1 fe 03          	sar    $0x3,%rsi
  4034d1:	48 89 e5             	mov    %rsp,%rbp
  4034d4:	48 89 f0             	mov    %rsi,%rax
  4034d7:	48 c1 e8 3f          	shr    $0x3f,%rax
  4034db:	48 01 c6             	add    %rax,%rsi
  4034de:	48 d1 fe             	sar    %rsi
  4034e1:	74 15                	je     4034f8 <register_tm_clones+0x38>
  4034e3:	b8 00 00 00 00       	mov    $0x0,%eax
  4034e8:	48 85 c0             	test   %rax,%rax
  4034eb:	74 0b                	je     4034f8 <register_tm_clones+0x38>
  4034ed:	5d                   	pop    %rbp
  4034ee:	bf 38 a2 60 00       	mov    $0x60a238,%edi
  4034f3:	ff e0                	jmpq   *%rax
  4034f5:	0f 1f 00             	nopl   (%rax)
  4034f8:	5d                   	pop    %rbp
  4034f9:	c3                   	retq   
  4034fa:	66 0f 1f 44 00 00    	nopw   0x0(%rax,%rax,1)

0000000000403500 <__do_global_dtors_aux>:
  403500:	80 3d 09 71 20 00 00 	cmpb   $0x0,0x207109(%rip)        # 60a610 <completed.7259>
  403507:	75 11                	jne    40351a <__do_global_dtors_aux+0x1a>
  403509:	55                   	push   %rbp
  40350a:	48 89 e5             	mov    %rsp,%rbp
  40350d:	e8 6e ff ff ff       	callq  403480 <deregister_tm_clones>
  403512:	5d                   	pop    %rbp
  403513:	c6 05 f6 70 20 00 01 	movb   $0x1,0x2070f6(%rip)        # 60a610 <completed.7259>
  40351a:	f3 c3                	repz retq 
  40351c:	0f 1f 40 00          	nopl   0x0(%rax)

0000000000403520 <frame_dummy>:
  403520:	bf d0 9d 60 00       	mov    $0x609dd0,%edi
  403525:	48 83 3f 00          	cmpq   $0x0,(%rdi)
  403529:	75 05                	jne    403530 <frame_dummy+0x10>
  40352b:	eb 93                	jmp    4034c0 <register_tm_clones>
  40352d:	0f 1f 00             	nopl   (%rax)
  403530:	b8 00 00 00 00       	mov    $0x0,%eax
  403535:	48 85 c0             	test   %rax,%rax
  403538:	74 f1                	je     40352b <frame_dummy+0xb>
  40353a:	55                   	push   %rbp
  40353b:	48 89 e5             	mov    %rsp,%rbp
  40353e:	ff d0                	callq  *%rax
  403540:	5d                   	pop    %rbp
  403541:	e9 7a ff ff ff       	jmpq   4034c0 <register_tm_clones>
  403546:	66 2e 0f 1f 84 00 00 	nopw   %cs:0x0(%rax,%rax,1)
  40354d:	00 00 00 

0000000000403550 <_ZN15annealer_thread11accept_moveEddP3Rng>:
  403550:	66 0f ef d2          	pxor   %xmm2,%xmm2
  403554:	31 c0                	xor    %eax,%eax
  403556:	66 0f 2e d0          	ucomisd %xmm0,%xmm2
  40355a:	77 48                	ja     4035a4 <_ZN15annealer_thread11accept_moveEddP3Rng+0x54>
  40355c:	55                   	push   %rbp
  40355d:	48 89 f7             	mov    %rsi,%rdi
  403560:	48 89 e5             	mov    %rsp,%rbp
  403563:	48 83 ec 20          	sub    $0x20,%rsp
  403567:	f2 0f 11 4d f0       	movsd  %xmm1,-0x10(%rbp)
  40356c:	f2 0f 11 45 e8       	movsd  %xmm0,-0x18(%rbp)
  403571:	e8 5a 07 00 00       	callq  403cd0 <_ZN3Rng5drandEv>
  403576:	f2 0f 10 4d e8       	movsd  -0x18(%rbp),%xmm1
  40357b:	f2 0f 11 45 f8       	movsd  %xmm0,-0x8(%rbp)
  403580:	f2 0f 10 05 68 54 00 	movsd  0x5468(%rip),%xmm0        # 4089f0 <_IO_stdin_used+0x10>
  403587:	00 
  403588:	66 0f 57 c1          	xorpd  %xmm1,%xmm0
  40358c:	f2 0f 5e 45 f0       	divsd  -0x10(%rbp),%xmm0
  403591:	e8 aa f5 ff ff       	callq  402b40 <exp@plt>
  403596:	31 c0                	xor    %eax,%eax
  403598:	66 0f 2e 45 f8       	ucomisd -0x8(%rbp),%xmm0
  40359d:	c9                   	leaveq 
  40359e:	0f 96 c0             	setbe  %al
  4035a1:	83 c0 01             	add    $0x1,%eax
  4035a4:	f3 c3                	repz retq 
  4035a6:	66 2e 0f 1f 84 00 00 	nopw   %cs:0x0(%rax,%rax,1)
  4035ad:	00 00 00 

00000000004035b0 <_ZN15annealer_thread28calculate_delta_routing_costEP12netlist_elemS1_>:
  4035b0:	55                   	push   %rbp
  4035b1:	48 8d 4e 38          	lea    0x38(%rsi),%rcx
  4035b5:	48 89 f7             	mov    %rsi,%rdi
  4035b8:	48 89 e5             	mov    %rsp,%rbp
  4035bb:	41 55                	push   %r13
  4035bd:	41 54                	push   %r12
  4035bf:	49 89 d5             	mov    %rdx,%r13
  4035c2:	48 83 ec 10          	sub    $0x10,%rsp
  4035c6:	66 2e 0f 1f 84 00 00 	nopw   %cs:0x0(%rax,%rax,1)
  4035cd:	00 00 00 
  4035d0:	f0 48 0f b1 01       	lock cmpxchg %rax,(%rcx)
  4035d5:	48 3b 05 54 6c 20 00 	cmp    0x206c54(%rip),%rax        # 60a230 <_ZN7threads9AtomicPtrI10location_tE11ATOMIC_NULLE>
  4035dc:	49 89 c4             	mov    %rax,%r12
  4035df:	74 ef                	je     4035d0 <_ZN15annealer_thread28calculate_delta_routing_costEP12netlist_elemS1_+0x20>
  4035e1:	49 8d 4d 38          	lea    0x38(%r13),%rcx
  4035e5:	0f 1f 00             	nopl   (%rax)
  4035e8:	f0 48 0f b1 01       	lock cmpxchg %rax,(%rcx)
  4035ed:	48 3b 05 3c 6c 20 00 	cmp    0x206c3c(%rip),%rax        # 60a230 <_ZN7threads9AtomicPtrI10location_tE11ATOMIC_NULLE>
  4035f4:	74 f2                	je     4035e8 <_ZN15annealer_thread28calculate_delta_routing_costEP12netlist_elemS1_+0x38>
  4035f6:	48 89 c2             	mov    %rax,%rdx
  4035f9:	4c 89 e6             	mov    %r12,%rsi
  4035fc:	48 89 45 e0          	mov    %rax,-0x20(%rbp)
  403600:	e8 bb 51 00 00       	callq  4087c0 <_ZN12netlist_elem9swap_costEP10location_tS1_>
  403605:	48 8b 45 e0          	mov    -0x20(%rbp),%rax
  403609:	4c 89 e2             	mov    %r12,%rdx
  40360c:	4c 89 ef             	mov    %r13,%rdi
  40360f:	f2 0f 11 45 e8       	movsd  %xmm0,-0x18(%rbp)
  403614:	48 89 c6             	mov    %rax,%rsi
  403617:	e8 a4 51 00 00       	callq  4087c0 <_ZN12netlist_elem9swap_costEP10location_tS1_>
  40361c:	f2 0f 58 45 e8       	addsd  -0x18(%rbp),%xmm0
  403621:	48 83 c4 10          	add    $0x10,%rsp
  403625:	41 5c                	pop    %r12
  403627:	41 5d                	pop    %r13
  403629:	5d                   	pop    %rbp
  40362a:	c3                   	retq   
  40362b:	90                   	nop
  40362c:	0f 1f 40 00          	nopl   0x0(%rax)

0000000000403630 <_ZN15annealer_thread3RunEv>:
  403630:	55                   	push   %rbp
  403631:	66 0f ef f6          	pxor   %xmm6,%xmm6
  403635:	48 89 e5             	mov    %rsp,%rbp
  403638:	41 57                	push   %r15
  40363a:	41 56                	push   %r14
  40363c:	41 55                	push   %r13
  40363e:	41 54                	push   %r12
  403640:	53                   	push   %rbx
  403641:	48 89 fb             	mov    %rdi,%rbx
  403644:	48 83 ec 48          	sub    $0x48,%rsp
  403648:	f2 0f 2a 77 10       	cvtsi2sdl 0x10(%rdi),%xmm6
  40364d:	bf 20 a6 60 00       	mov    $0x60a620,%edi
  403652:	f2 0f 11 75 98       	movsd  %xmm6,-0x68(%rbp)
  403657:	64 48 8b 04 25 28 00 	mov    %fs:0x28,%rax
  40365e:	00 00 
  403660:	48 89 45 c8          	mov    %rax,-0x38(%rbp)
  403664:	31 c0                	xor    %eax,%eax
  403666:	e8 25 f6 ff ff       	callq  402c90 <pthread_mutex_lock@plt>
  40366b:	44 8b 25 d6 6f 20 00 	mov    0x206fd6(%rip),%r12d        # 60a648 <_ZN3Rng4seedE>
  403672:	bf 90 13 00 00       	mov    $0x1390,%edi
  403677:	41 8d 44 24 01       	lea    0x1(%r12),%eax
  40367c:	89 05 c6 6f 20 00    	mov    %eax,0x206fc6(%rip)        # 60a648 <_ZN3Rng4seedE>
  403682:	e8 59 f8 ff ff       	callq  402ee0 <_Znwm@plt>
  403687:	44 89 e2             	mov    %r12d,%edx
  40368a:	48 8d 78 08          	lea    0x8(%rax),%rdi
  40368e:	b9 01 00 00 00       	mov    $0x1,%ecx
  403693:	48 89 10             	mov    %rdx,(%rax)
  403696:	eb 10                	jmp    4036a8 <_ZN15annealer_thread3RunEv+0x78>
  403698:	0f 1f 84 00 00 00 00 	nopl   0x0(%rax,%rax,1)
  40369f:	00 
  4036a0:	48 8b 14 c8          	mov    (%rax,%rcx,8),%rdx
  4036a4:	48 83 c1 01          	add    $0x1,%rcx
  4036a8:	48 89 d6             	mov    %rdx,%rsi
  4036ab:	48 c1 ee 1e          	shr    $0x1e,%rsi
  4036af:	48 31 f2             	xor    %rsi,%rdx
  4036b2:	48 69 d2 65 89 07 6c 	imul   $0x6c078965,%rdx,%rdx
  4036b9:	01 ca                	add    %ecx,%edx
  4036bb:	48 81 f9 6f 02 00 00 	cmp    $0x26f,%rcx
  4036c2:	48 89 54 cf f8       	mov    %rdx,-0x8(%rdi,%rcx,8)
  4036c7:	75 d7                	jne    4036a0 <_ZN15annealer_thread3RunEv+0x70>
  4036c9:	48 8b 38             	mov    (%rax),%rdi
  4036cc:	48 8d b0 18 07 00 00 	lea    0x718(%rax),%rsi
  4036d3:	49 89 c0             	mov    %rax,%r8
  4036d6:	66 2e 0f 1f 84 00 00 	nopw   %cs:0x0(%rax,%rax,1)
  4036dd:	00 00 00 
  4036e0:	49 8b 50 08          	mov    0x8(%r8),%rdx
  4036e4:	81 e7 00 00 00 80    	and    $0x80000000,%edi
  4036ea:	49 83 c0 08          	add    $0x8,%r8
  4036ee:	48 89 d1             	mov    %rdx,%rcx
  4036f1:	81 e1 ff ff ff 7f    	and    $0x7fffffff,%ecx
  4036f7:	48 09 f9             	or     %rdi,%rcx
  4036fa:	48 d1 e9             	shr    %rcx
  4036fd:	48 89 cf             	mov    %rcx,%rdi
  403700:	48 89 d1             	mov    %rdx,%rcx
  403703:	83 e1 01             	and    $0x1,%ecx
  403706:	48 f7 d9             	neg    %rcx
  403709:	81 e1 df b0 08 99    	and    $0x9908b0df,%ecx
  40370f:	48 31 f9             	xor    %rdi,%rcx
  403712:	49 33 88 60 0c 00 00 	xor    0xc60(%r8),%rcx
  403719:	48 89 d7             	mov    %rdx,%rdi
  40371c:	49 89 48 f8          	mov    %rcx,-0x8(%r8)
  403720:	49 39 f0             	cmp    %rsi,%r8
  403723:	75 bb                	jne    4036e0 <_ZN15annealer_thread3RunEv+0xb0>
  403725:	4c 8d 80 78 13 00 00 	lea    0x1378(%rax),%r8
  40372c:	0f 1f 40 00          	nopl   0x0(%rax)
  403730:	48 8b 7e 08          	mov    0x8(%rsi),%rdi
  403734:	81 e2 00 00 00 80    	and    $0x80000000,%edx
  40373a:	48 83 c6 08          	add    $0x8,%rsi
  40373e:	48 89 f9             	mov    %rdi,%rcx
  403741:	81 e1 ff ff ff 7f    	and    $0x7fffffff,%ecx
  403747:	48 09 ca             	or     %rcx,%rdx
  40374a:	48 89 f9             	mov    %rdi,%rcx
  40374d:	83 e1 01             	and    $0x1,%ecx
  403750:	48 d1 ea             	shr    %rdx
  403753:	48 f7 d9             	neg    %rcx
  403756:	81 e1 df b0 08 99    	and    $0x9908b0df,%ecx
  40375c:	48 31 ca             	xor    %rcx,%rdx
  40375f:	48 33 96 e0 f8 ff ff 	xor    -0x720(%rsi),%rdx
  403766:	48 89 56 f8          	mov    %rdx,-0x8(%rsi)
  40376a:	4c 39 c6             	cmp    %r8,%rsi
  40376d:	48 89 fa             	mov    %rdi,%rdx
  403770:	75 be                	jne    403730 <_ZN15annealer_thread3RunEv+0x100>
  403772:	48 8b 08             	mov    (%rax),%rcx
  403775:	81 e2 00 00 00 80    	and    $0x80000000,%edx
  40377b:	bf 20 a6 60 00       	mov    $0x60a620,%edi
  403780:	c7 80 88 13 00 00 70 	movl   $0x270,0x1388(%rax)
  403787:	02 00 00 
  40378a:	48 89 80 80 13 00 00 	mov    %rax,0x1380(%rax)
  403791:	48 89 45 b0          	mov    %rax,-0x50(%rbp)
  403795:	48 89 ce             	mov    %rcx,%rsi
  403798:	81 e1 ff ff ff 7f    	and    $0x7fffffff,%ecx
  40379e:	83 e6 01             	and    $0x1,%esi
  4037a1:	48 09 ca             	or     %rcx,%rdx
  4037a4:	48 f7 de             	neg    %rsi
  4037a7:	48 d1 ea             	shr    %rdx
  4037aa:	81 e6 df b0 08 99    	and    $0x9908b0df,%esi
  4037b0:	48 33 b0 60 0c 00 00 	xor    0xc60(%rax),%rsi
  4037b7:	48 31 f2             	xor    %rsi,%rdx
  4037ba:	48 89 90 78 13 00 00 	mov    %rdx,0x1378(%rax)
  4037c1:	e8 7a f6 ff ff       	callq  402e40 <pthread_mutex_unlock@plt>
  4037c6:	48 8b 3b             	mov    (%rbx),%rdi
  4037c9:	48 8d 4d b0          	lea    -0x50(%rbp),%rcx
  4037cd:	48 8d 75 b8          	lea    -0x48(%rbp),%rsi
  4037d1:	48 c7 c2 ff ff ff ff 	mov    $0xffffffffffffffff,%rdx
  4037d8:	e8 d3 07 00 00       	callq  403fb0 <_ZN7netlist18get_random_elementEPllP3Rng>
  4037dd:	48 8b 3b             	mov    (%rbx),%rdi
  4037e0:	48 8d 4d b0          	lea    -0x50(%rbp),%rcx
  4037e4:	48 8d 75 c0          	lea    -0x40(%rbp),%rsi
  4037e8:	48 c7 c2 ff ff ff ff 	mov    $0xffffffffffffffff,%rdx
  4037ef:	e8 bc 07 00 00       	callq  403fb0 <_ZN7netlist18get_random_elementEPllP3Rng>
  4037f4:	49 89 c4             	mov    %rax,%r12
  4037f7:	8b 43 14             	mov    0x14(%rbx),%eax
  4037fa:	45 31 ff             	xor    %r15d,%r15d
  4037fd:	c7 45 90 00 00 00 00 	movl   $0x0,-0x70(%rbp)
  403804:	c7 45 94 ff ff ff ff 	movl   $0xffffffff,-0x6c(%rbp)
  40380b:	83 f8 ff             	cmp    $0xffffffff,%eax
  40380e:	0f 84 ed 00 00 00    	je     403901 <_ZN15annealer_thread3RunEv+0x2d1>
  403814:	0f 1f 40 00          	nopl   0x0(%rax)
  403818:	39 45 90             	cmp    %eax,-0x70(%rbp)
  40381b:	0f 8d f4 00 00 00    	jge    403915 <_ZN15annealer_thread3RunEv+0x2e5>
  403821:	f2 0f 10 6d 98       	movsd  -0x68(%rbp),%xmm5
  403826:	8b 43 0c             	mov    0xc(%rbx),%eax
  403829:	f2 0f 5e 2d cf 51 00 	divsd  0x51cf(%rip),%xmm5        # 408a00 <_IO_stdin_used+0x20>
  403830:	00 
  403831:	85 c0                	test   %eax,%eax
  403833:	f2 0f 11 6d 98       	movsd  %xmm5,-0x68(%rbp)
  403838:	0f 8e 19 01 00 00    	jle    403957 <_ZN15annealer_thread3RunEv+0x327>
  40383e:	4d 89 e6             	mov    %r12,%r14
  403841:	45 31 ed             	xor    %r13d,%r13d
  403844:	c7 45 94 00 00 00 00 	movl   $0x0,-0x6c(%rbp)
  40384b:	45 31 ff             	xor    %r15d,%r15d
  40384e:	eb 41                	jmp    403891 <_ZN15annealer_thread3RunEv+0x261>
  403850:	48 8d 7d b0          	lea    -0x50(%rbp),%rdi
  403854:	e8 77 04 00 00       	callq  403cd0 <_ZN3Rng5drandEv>
  403859:	f2 0f 10 4d a8       	movsd  -0x58(%rbp),%xmm1
  40385e:	f2 0f 11 45 a0       	movsd  %xmm0,-0x60(%rbp)
  403863:	66 0f 57 0d 85 51 00 	xorpd  0x5185(%rip),%xmm1        # 4089f0 <_IO_stdin_used+0x10>
  40386a:	00 
  40386b:	66 0f 28 c1          	movapd %xmm1,%xmm0
  40386f:	f2 0f 5e 45 98       	divsd  -0x68(%rbp),%xmm0
  403874:	e8 c7 f2 ff ff       	callq  402b40 <exp@plt>
  403879:	66 0f 2e 45 a0       	ucomisd -0x60(%rbp),%xmm0
  40387e:	0f 87 bc 00 00 00    	ja     403940 <_ZN15annealer_thread3RunEv+0x310>
  403884:	41 83 c5 01          	add    $0x1,%r13d
  403888:	44 39 6b 0c          	cmp    %r13d,0xc(%rbx)
  40388c:	4d 89 e6             	mov    %r12,%r14
  40388f:	7e 57                	jle    4038e8 <_ZN15annealer_thread3RunEv+0x2b8>
  403891:	48 8b 55 c0          	mov    -0x40(%rbp),%rdx
  403895:	48 8b 3b             	mov    (%rbx),%rdi
  403898:	48 8d 4d b0          	lea    -0x50(%rbp),%rcx
  40389c:	48 8d 75 c0          	lea    -0x40(%rbp),%rsi
  4038a0:	48 89 55 b8          	mov    %rdx,-0x48(%rbp)
  4038a4:	e8 07 07 00 00       	callq  403fb0 <_ZN7netlist18get_random_elementEPllP3Rng>
  4038a9:	48 89 c2             	mov    %rax,%rdx
  4038ac:	4c 89 f6             	mov    %r14,%rsi
  4038af:	48 89 df             	mov    %rbx,%rdi
  4038b2:	49 89 c4             	mov    %rax,%r12
  4038b5:	e8 f6 fc ff ff       	callq  4035b0 <_ZN15annealer_thread28calculate_delta_routing_costEP12netlist_elemS1_>
  4038ba:	66 0f ef d2          	pxor   %xmm2,%xmm2
  4038be:	f2 0f 11 45 a8       	movsd  %xmm0,-0x58(%rbp)
  4038c3:	66 0f 2e d0          	ucomisd %xmm0,%xmm2
  4038c7:	76 87                	jbe    403850 <_ZN15annealer_thread3RunEv+0x220>
  4038c9:	48 8b 3b             	mov    (%rbx),%rdi
  4038cc:	4c 89 e2             	mov    %r12,%rdx
  4038cf:	4c 89 f6             	mov    %r14,%rsi
  4038d2:	41 83 c7 01          	add    $0x1,%r15d
  4038d6:	e8 55 06 00 00       	callq  403f30 <_ZN7netlist14swap_locationsEP12netlist_elemS1_>
  4038db:	41 83 c5 01          	add    $0x1,%r13d
  4038df:	44 39 6b 0c          	cmp    %r13d,0xc(%rbx)
  4038e3:	4d 89 e6             	mov    %r12,%r14
  4038e6:	7f a9                	jg     403891 <_ZN15annealer_thread3RunEv+0x261>
  4038e8:	48 8d 7b 18          	lea    0x18(%rbx),%rdi
  4038ec:	83 45 90 01          	addl   $0x1,-0x70(%rbp)
  4038f0:	e8 4b f3 ff ff       	callq  402c40 <pthread_barrier_wait@plt>
  4038f5:	8b 43 14             	mov    0x14(%rbx),%eax
  4038f8:	83 f8 ff             	cmp    $0xffffffff,%eax
  4038fb:	0f 85 17 ff ff ff    	jne    403818 <_ZN15annealer_thread3RunEv+0x1e8>
  403901:	44 3b 7d 94          	cmp    -0x6c(%rbp),%r15d
  403905:	7e 0a                	jle    403911 <_ZN15annealer_thread3RunEv+0x2e1>
  403907:	80 7b 08 00          	cmpb   $0x0,0x8(%rbx)
  40390b:	0f 85 10 ff ff ff    	jne    403821 <_ZN15annealer_thread3RunEv+0x1f1>
  403911:	c6 43 08 00          	movb   $0x0,0x8(%rbx)
  403915:	48 8b 7d b0          	mov    -0x50(%rbp),%rdi
  403919:	e8 92 f2 ff ff       	callq  402bb0 <_ZdlPv@plt>
  40391e:	48 8b 45 c8          	mov    -0x38(%rbp),%rax
  403922:	64 48 33 04 25 28 00 	xor    %fs:0x28,%rax
  403929:	00 00 
  40392b:	75 57                	jne    403984 <_ZN15annealer_thread3RunEv+0x354>
  40392d:	48 83 c4 48          	add    $0x48,%rsp
  403931:	5b                   	pop    %rbx
  403932:	41 5c                	pop    %r12
  403934:	41 5d                	pop    %r13
  403936:	41 5e                	pop    %r14
  403938:	41 5f                	pop    %r15
  40393a:	5d                   	pop    %rbp
  40393b:	c3                   	retq   
  40393c:	0f 1f 40 00          	nopl   0x0(%rax)
  403940:	48 8b 3b             	mov    (%rbx),%rdi
  403943:	4c 89 e2             	mov    %r12,%rdx
  403946:	4c 89 f6             	mov    %r14,%rsi
  403949:	83 45 94 01          	addl   $0x1,-0x6c(%rbp)
  40394d:	e8 de 05 00 00       	callq  403f30 <_ZN7netlist14swap_locationsEP12netlist_elemS1_>
  403952:	e9 2d ff ff ff       	jmpq   403884 <_ZN15annealer_thread3RunEv+0x254>
  403957:	48 8d 7b 18          	lea    0x18(%rbx),%rdi
  40395b:	c7 45 94 00 00 00 00 	movl   $0x0,-0x6c(%rbp)
  403962:	45 31 ff             	xor    %r15d,%r15d
  403965:	83 45 90 01          	addl   $0x1,-0x70(%rbp)
  403969:	e8 d2 f2 ff ff       	callq  402c40 <pthread_barrier_wait@plt>
  40396e:	eb 85                	jmp    4038f5 <_ZN15annealer_thread3RunEv+0x2c5>
  403970:	48 8b 7d b0          	mov    -0x50(%rbp),%rdi
  403974:	48 89 c3             	mov    %rax,%rbx
  403977:	e8 34 f2 ff ff       	callq  402bb0 <_ZdlPv@plt>
  40397c:	48 89 df             	mov    %rbx,%rdi
  40397f:	e8 6c f5 ff ff       	callq  402ef0 <_Unwind_Resume@plt>
  403984:	e8 17 f4 ff ff       	callq  402da0 <__stack_chk_fail@plt>
  403989:	90                   	nop
  40398a:	66 0f 1f 44 00 00    	nopw   0x0(%rax,%rax,1)

0000000000403990 <_ZN15annealer_thread10keep_goingEiii>:
  403990:	44 8b 47 14          	mov    0x14(%rdi),%r8d
  403994:	55                   	push   %rbp
  403995:	48 89 e5             	mov    %rsp,%rbp
  403998:	41 39 f0             	cmp    %esi,%r8d
  40399b:	0f 9f c0             	setg   %al
  40399e:	41 83 f8 ff          	cmp    $0xffffffff,%r8d
  4039a2:	74 0c                	je     4039b0 <_ZN15annealer_thread10keep_goingEiii+0x20>
  4039a4:	5d                   	pop    %rbp
  4039a5:	c3                   	retq   
  4039a6:	66 2e 0f 1f 84 00 00 	nopw   %cs:0x0(%rax,%rax,1)
  4039ad:	00 00 00 
  4039b0:	39 ca                	cmp    %ecx,%edx
  4039b2:	7e 0b                	jle    4039bf <_ZN15annealer_thread10keep_goingEiii+0x2f>
  4039b4:	80 7f 08 00          	cmpb   $0x0,0x8(%rdi)
  4039b8:	b8 01 00 00 00       	mov    $0x1,%eax
  4039bd:	75 e5                	jne    4039a4 <_ZN15annealer_thread10keep_goingEiii+0x14>
  4039bf:	31 c0                	xor    %eax,%eax
  4039c1:	c6 47 08 00          	movb   $0x0,0x8(%rdi)
  4039c5:	5d                   	pop    %rbp
  4039c6:	c3                   	retq   
  4039c7:	66 0f 1f 84 00 00 00 	nopw   0x0(%rax,%rax,1)
  4039ce:	00 00 

00000000004039d0 <_ZN3Rng4randEi>:
  4039d0:	44 8d 56 ff          	lea    -0x1(%rsi),%r10d
  4039d4:	55                   	push   %rbp
  4039d5:	4d 63 d2             	movslq %r10d,%r10
  4039d8:	48 89 e5             	mov    %rsp,%rbp
  4039db:	53                   	push   %rbx
  4039dc:	4c 89 d0             	mov    %r10,%rax
  4039df:	4c 8b 07             	mov    (%rdi),%r8
  4039e2:	48 d1 e8             	shr    %rax
  4039e5:	4c 09 d0             	or     %r10,%rax
  4039e8:	48 89 c2             	mov    %rax,%rdx
  4039eb:	45 8b 98 88 13 00 00 	mov    0x1388(%r8),%r11d
  4039f2:	49 8d b0 18 07 00 00 	lea    0x718(%r8),%rsi
  4039f9:	48 c1 ea 02          	shr    $0x2,%rdx
  4039fd:	49 8d b8 78 13 00 00 	lea    0x1378(%r8),%rdi
  403a04:	48 09 d0             	or     %rdx,%rax
  403a07:	49 89 c1             	mov    %rax,%r9
  403a0a:	49 c1 e9 04          	shr    $0x4,%r9
  403a0e:	4c 09 c8             	or     %r9,%rax
  403a11:	49 89 c1             	mov    %rax,%r9
  403a14:	49 c1 e9 08          	shr    $0x8,%r9
  403a18:	4c 09 c8             	or     %r9,%rax
  403a1b:	49 89 c1             	mov    %rax,%r9
  403a1e:	49 c1 e9 10          	shr    $0x10,%r9
  403a22:	49 09 c1             	or     %rax,%r9
  403a25:	eb 6a                	jmp    403a91 <_ZN3Rng4randEi+0xc1>
  403a27:	66 0f 1f 84 00 00 00 	nopw   0x0(%rax,%rax,1)
  403a2e:	00 00 
  403a30:	49 8b 80 80 13 00 00 	mov    0x1380(%r8),%rax
  403a37:	41 83 eb 01          	sub    $0x1,%r11d
  403a3b:	48 8d 50 08          	lea    0x8(%rax),%rdx
  403a3f:	48 8b 00             	mov    (%rax),%rax
  403a42:	45 89 98 88 13 00 00 	mov    %r11d,0x1388(%r8)
  403a49:	49 89 90 80 13 00 00 	mov    %rdx,0x1380(%r8)
  403a50:	48 89 c2             	mov    %rax,%rdx
  403a53:	48 c1 ea 0b          	shr    $0xb,%rdx
  403a57:	48 89 d1             	mov    %rdx,%rcx
  403a5a:	48 31 c1             	xor    %rax,%rcx
  403a5d:	48 89 c8             	mov    %rcx,%rax
  403a60:	48 c1 e0 07          	shl    $0x7,%rax
  403a64:	25 80 56 2c 9d       	and    $0x9d2c5680,%eax
  403a69:	48 31 c8             	xor    %rcx,%rax
  403a6c:	48 89 c2             	mov    %rax,%rdx
  403a6f:	48 c1 e0 0f          	shl    $0xf,%rax
  403a73:	25 00 00 c6 ef       	and    $0xefc60000,%eax
  403a78:	48 31 d0             	xor    %rdx,%rax
  403a7b:	48 89 c2             	mov    %rax,%rdx
  403a7e:	48 c1 ea 12          	shr    $0x12,%rdx
  403a82:	48 31 d0             	xor    %rdx,%rax
  403a85:	4c 21 c8             	and    %r9,%rax
  403a88:	49 39 c2             	cmp    %rax,%r10
  403a8b:	0f 83 da 00 00 00    	jae    403b6b <_ZN3Rng4randEi+0x19b>
  403a91:	45 85 db             	test   %r11d,%r11d
  403a94:	75 9a                	jne    403a30 <_ZN3Rng4randEi+0x60>
  403a96:	4d 8b 18             	mov    (%r8),%r11
  403a99:	48 89 f1             	mov    %rsi,%rcx
  403a9c:	4c 89 c3             	mov    %r8,%rbx
  403a9f:	90                   	nop
  403aa0:	48 8b 43 08          	mov    0x8(%rbx),%rax
  403aa4:	41 81 e3 00 00 00 80 	and    $0x80000000,%r11d
  403aab:	48 83 c3 08          	add    $0x8,%rbx
  403aaf:	48 89 c2             	mov    %rax,%rdx
  403ab2:	81 e2 ff ff ff 7f    	and    $0x7fffffff,%edx
  403ab8:	4c 09 da             	or     %r11,%rdx
  403abb:	49 89 c3             	mov    %rax,%r11
  403abe:	41 83 e3 01          	and    $0x1,%r11d
  403ac2:	48 d1 ea             	shr    %rdx
  403ac5:	49 f7 db             	neg    %r11
  403ac8:	41 81 e3 df b0 08 99 	and    $0x9908b0df,%r11d
  403acf:	4c 31 da             	xor    %r11,%rdx
  403ad2:	48 33 93 60 0c 00 00 	xor    0xc60(%rbx),%rdx
  403ad9:	49 89 c3             	mov    %rax,%r11
  403adc:	48 89 53 f8          	mov    %rdx,-0x8(%rbx)
  403ae0:	48 39 f3             	cmp    %rsi,%rbx
  403ae3:	75 bb                	jne    403aa0 <_ZN3Rng4randEi+0xd0>
  403ae5:	0f 1f 00             	nopl   (%rax)
  403ae8:	4c 8b 59 08          	mov    0x8(%rcx),%r11
  403aec:	25 00 00 00 80       	and    $0x80000000,%eax
  403af1:	48 83 c1 08          	add    $0x8,%rcx
  403af5:	4c 89 da             	mov    %r11,%rdx
  403af8:	81 e2 ff ff ff 7f    	and    $0x7fffffff,%edx
  403afe:	48 09 d0             	or     %rdx,%rax
  403b01:	4c 89 da             	mov    %r11,%rdx
  403b04:	83 e2 01             	and    $0x1,%edx
  403b07:	48 d1 e8             	shr    %rax
  403b0a:	48 f7 da             	neg    %rdx
  403b0d:	81 e2 df b0 08 99    	and    $0x9908b0df,%edx
  403b13:	48 31 d0             	xor    %rdx,%rax
  403b16:	48 33 81 e0 f8 ff ff 	xor    -0x720(%rcx),%rax
  403b1d:	48 89 41 f8          	mov    %rax,-0x8(%rcx)
  403b21:	48 39 f9             	cmp    %rdi,%rcx
  403b24:	4c 89 d8             	mov    %r11,%rax
  403b27:	75 bf                	jne    403ae8 <_ZN3Rng4randEi+0x118>
  403b29:	49 8b 10             	mov    (%r8),%rdx
  403b2c:	25 00 00 00 80       	and    $0x80000000,%eax
  403b31:	41 bb 6f 02 00 00    	mov    $0x26f,%r11d
  403b37:	48 89 d1             	mov    %rdx,%rcx
  403b3a:	81 e2 ff ff ff 7f    	and    $0x7fffffff,%edx
  403b40:	83 e1 01             	and    $0x1,%ecx
  403b43:	48 09 d0             	or     %rdx,%rax
  403b46:	48 f7 d9             	neg    %rcx
  403b49:	48 d1 e8             	shr    %rax
  403b4c:	81 e1 df b0 08 99    	and    $0x9908b0df,%ecx
  403b52:	49 33 88 60 0c 00 00 	xor    0xc60(%r8),%rcx
  403b59:	48 31 c8             	xor    %rcx,%rax
  403b5c:	49 89 80 78 13 00 00 	mov    %rax,0x1378(%r8)
  403b63:	4c 89 c0             	mov    %r8,%rax
  403b66:	e9 d0 fe ff ff       	jmpq   403a3b <_ZN3Rng4randEi+0x6b>
  403b6b:	5b                   	pop    %rbx
  403b6c:	5d                   	pop    %rbp
  403b6d:	c3                   	retq   
  403b6e:	66 90                	xchg   %ax,%ax

0000000000403b70 <_ZN3Rng4randEv>:
  403b70:	55                   	push   %rbp
  403b71:	48 8b 3f             	mov    (%rdi),%rdi
  403b74:	48 89 e5             	mov    %rsp,%rbp
  403b77:	8b 87 88 13 00 00    	mov    0x1388(%rdi),%eax
  403b7d:	85 c0                	test   %eax,%eax
  403b7f:	74 5f                	je     403be0 <_ZN3Rng4randEv+0x70>
  403b81:	48 8b 97 80 13 00 00 	mov    0x1380(%rdi),%rdx
  403b88:	83 e8 01             	sub    $0x1,%eax
  403b8b:	89 87 88 13 00 00    	mov    %eax,0x1388(%rdi)
  403b91:	48 8d 42 08          	lea    0x8(%rdx),%rax
  403b95:	48 89 87 80 13 00 00 	mov    %rax,0x1380(%rdi)
  403b9c:	48 8b 02             	mov    (%rdx),%rax
  403b9f:	5d                   	pop    %rbp
  403ba0:	48 89 c2             	mov    %rax,%rdx
  403ba3:	48 c1 ea 0b          	shr    $0xb,%rdx
  403ba7:	48 89 d1             	mov    %rdx,%rcx
  403baa:	48 31 c1             	xor    %rax,%rcx
  403bad:	48 89 c8             	mov    %rcx,%rax
  403bb0:	48 c1 e0 07          	shl    $0x7,%rax
  403bb4:	25 80 56 2c 9d       	and    $0x9d2c5680,%eax
  403bb9:	48 31 c8             	xor    %rcx,%rax
  403bbc:	48 89 c2             	mov    %rax,%rdx
  403bbf:	48 c1 e0 0f          	shl    $0xf,%rax
  403bc3:	25 00 00 c6 ef       	and    $0xefc60000,%eax
  403bc8:	48 31 d0             	xor    %rdx,%rax
  403bcb:	48 89 c2             	mov    %rax,%rdx
  403bce:	48 c1 ea 12          	shr    $0x12,%rdx
  403bd2:	48 31 d0             	xor    %rdx,%rax
  403bd5:	c3                   	retq   
  403bd6:	66 2e 0f 1f 84 00 00 	nopw   %cs:0x0(%rax,%rax,1)
  403bdd:	00 00 00 
  403be0:	48 8b 0f             	mov    (%rdi),%rcx
  403be3:	48 8d b7 18 07 00 00 	lea    0x718(%rdi),%rsi
  403bea:	49 89 f8             	mov    %rdi,%r8
  403bed:	0f 1f 00             	nopl   (%rax)
  403bf0:	49 8b 40 08          	mov    0x8(%r8),%rax
  403bf4:	81 e1 00 00 00 80    	and    $0x80000000,%ecx
  403bfa:	49 83 c0 08          	add    $0x8,%r8
  403bfe:	48 89 c2             	mov    %rax,%rdx
  403c01:	81 e2 ff ff ff 7f    	and    $0x7fffffff,%edx
  403c07:	48 09 ca             	or     %rcx,%rdx
  403c0a:	48 89 c1             	mov    %rax,%rcx
  403c0d:	83 e1 01             	and    $0x1,%ecx
  403c10:	48 d1 ea             	shr    %rdx
  403c13:	48 f7 d9             	neg    %rcx
  403c16:	81 e1 df b0 08 99    	and    $0x9908b0df,%ecx
  403c1c:	48 31 ca             	xor    %rcx,%rdx
  403c1f:	49 33 90 60 0c 00 00 	xor    0xc60(%r8),%rdx
  403c26:	48 89 c1             	mov    %rax,%rcx
  403c29:	49 89 50 f8          	mov    %rdx,-0x8(%r8)
  403c2d:	49 39 f0             	cmp    %rsi,%r8
  403c30:	75 be                	jne    403bf0 <_ZN3Rng4randEv+0x80>
  403c32:	4c 8d 87 78 13 00 00 	lea    0x1378(%rdi),%r8
  403c39:	0f 1f 80 00 00 00 00 	nopl   0x0(%rax)
  403c40:	48 8b 4e 08          	mov    0x8(%rsi),%rcx
  403c44:	25 00 00 00 80       	and    $0x80000000,%eax
  403c49:	48 83 c6 08          	add    $0x8,%rsi
  403c4d:	48 89 ca             	mov    %rcx,%rdx
  403c50:	81 e2 ff ff ff 7f    	and    $0x7fffffff,%edx
  403c56:	48 09 d0             	or     %rdx,%rax
  403c59:	48 89 ca             	mov    %rcx,%rdx
  403c5c:	83 e2 01             	and    $0x1,%edx
  403c5f:	48 d1 e8             	shr    %rax
  403c62:	48 f7 da             	neg    %rdx
  403c65:	81 e2 df b0 08 99    	and    $0x9908b0df,%edx
  403c6b:	48 31 d0             	xor    %rdx,%rax
  403c6e:	48 33 86 e0 f8 ff ff 	xor    -0x720(%rsi),%rax
  403c75:	48 89 46 f8          	mov    %rax,-0x8(%rsi)
  403c79:	4c 39 c6             	cmp    %r8,%rsi
  403c7c:	48 89 c8             	mov    %rcx,%rax
  403c7f:	75 bf                	jne    403c40 <_ZN3Rng4randEv+0xd0>
  403c81:	48 8b 17             	mov    (%rdi),%rdx
  403c84:	25 00 00 00 80       	and    $0x80000000,%eax
  403c89:	48 89 d1             	mov    %rdx,%rcx
  403c8c:	81 e2 ff ff ff 7f    	and    $0x7fffffff,%edx
  403c92:	83 e1 01             	and    $0x1,%ecx
  403c95:	48 09 d0             	or     %rdx,%rax
  403c98:	48 89 fa             	mov    %rdi,%rdx
  403c9b:	48 f7 d9             	neg    %rcx
  403c9e:	48 d1 e8             	shr    %rax
  403ca1:	81 e1 df b0 08 99    	and    $0x9908b0df,%ecx
  403ca7:	48 33 8f 60 0c 00 00 	xor    0xc60(%rdi),%rcx
  403cae:	48 31 c8             	xor    %rcx,%rax
  403cb1:	48 89 87 78 13 00 00 	mov    %rax,0x1378(%rdi)
  403cb8:	b8 6f 02 00 00       	mov    $0x26f,%eax
  403cbd:	e9 c9 fe ff ff       	jmpq   403b8b <_ZN3Rng4randEv+0x1b>
  403cc2:	66 66 66 66 66 2e 0f 	data16 data16 data16 data16 nopw %cs:0x0(%rax,%rax,1)
  403cc9:	1f 84 00 00 00 00 00 

0000000000403cd0 <_ZN3Rng5drandEv>:
  403cd0:	55                   	push   %rbp
  403cd1:	48 8b 3f             	mov    (%rdi),%rdi
  403cd4:	48 89 e5             	mov    %rsp,%rbp
  403cd7:	8b 87 88 13 00 00    	mov    0x1388(%rdi),%eax
  403cdd:	85 c0                	test   %eax,%eax
  403cdf:	74 6f                	je     403d50 <_ZN3Rng5drandEv+0x80>
  403ce1:	48 8b 97 80 13 00 00 	mov    0x1380(%rdi),%rdx
  403ce8:	83 e8 01             	sub    $0x1,%eax
  403ceb:	89 87 88 13 00 00    	mov    %eax,0x1388(%rdi)
  403cf1:	48 8d 42 08          	lea    0x8(%rdx),%rax
  403cf5:	48 89 87 80 13 00 00 	mov    %rax,0x1380(%rdi)
  403cfc:	48 8b 02             	mov    (%rdx),%rax
  403cff:	48 89 c2             	mov    %rax,%rdx
  403d02:	48 c1 ea 0b          	shr    $0xb,%rdx
  403d06:	48 89 d1             	mov    %rdx,%rcx
  403d09:	48 31 c1             	xor    %rax,%rcx
  403d0c:	48 89 c8             	mov    %rcx,%rax
  403d0f:	48 c1 e0 07          	shl    $0x7,%rax
  403d13:	25 80 56 2c 9d       	and    $0x9d2c5680,%eax
  403d18:	48 31 c8             	xor    %rcx,%rax
  403d1b:	48 89 c2             	mov    %rax,%rdx
  403d1e:	48 c1 e0 0f          	shl    $0xf,%rax
  403d22:	25 00 00 c6 ef       	and    $0xefc60000,%eax
  403d27:	48 31 d0             	xor    %rdx,%rax
  403d2a:	48 89 c2             	mov    %rax,%rdx
  403d2d:	48 c1 ea 12          	shr    $0x12,%rdx
  403d31:	48 31 d0             	xor    %rdx,%rax
  403d34:	0f 88 f8 00 00 00    	js     403e32 <_ZN3Rng5drandEv+0x162>
  403d3a:	66 0f ef c0          	pxor   %xmm0,%xmm0
  403d3e:	5d                   	pop    %rbp
  403d3f:	f2 48 0f 2a c0       	cvtsi2sd %rax,%xmm0
  403d44:	f2 0f 59 05 bc 4c 00 	mulsd  0x4cbc(%rip),%xmm0        # 408a08 <_IO_stdin_used+0x28>
  403d4b:	00 
  403d4c:	c3                   	retq   
  403d4d:	0f 1f 00             	nopl   (%rax)
  403d50:	48 8b 0f             	mov    (%rdi),%rcx
  403d53:	48 8d b7 18 07 00 00 	lea    0x718(%rdi),%rsi
  403d5a:	49 89 f8             	mov    %rdi,%r8
  403d5d:	0f 1f 00             	nopl   (%rax)
  403d60:	49 8b 40 08          	mov    0x8(%r8),%rax
  403d64:	81 e1 00 00 00 80    	and    $0x80000000,%ecx
  403d6a:	49 83 c0 08          	add    $0x8,%r8
  403d6e:	48 89 c2             	mov    %rax,%rdx
  403d71:	81 e2 ff ff ff 7f    	and    $0x7fffffff,%edx
  403d77:	48 09 ca             	or     %rcx,%rdx
  403d7a:	48 89 c1             	mov    %rax,%rcx
  403d7d:	83 e1 01             	and    $0x1,%ecx
  403d80:	48 d1 ea             	shr    %rdx
  403d83:	48 f7 d9             	neg    %rcx
  403d86:	81 e1 df b0 08 99    	and    $0x9908b0df,%ecx
  403d8c:	48 31 ca             	xor    %rcx,%rdx
  403d8f:	49 33 90 60 0c 00 00 	xor    0xc60(%r8),%rdx
  403d96:	48 89 c1             	mov    %rax,%rcx
  403d99:	49 89 50 f8          	mov    %rdx,-0x8(%r8)
  403d9d:	49 39 f0             	cmp    %rsi,%r8
  403da0:	75 be                	jne    403d60 <_ZN3Rng5drandEv+0x90>
  403da2:	4c 8d 87 78 13 00 00 	lea    0x1378(%rdi),%r8
  403da9:	0f 1f 80 00 00 00 00 	nopl   0x0(%rax)
  403db0:	48 8b 4e 08          	mov    0x8(%rsi),%rcx
  403db4:	25 00 00 00 80       	and    $0x80000000,%eax
  403db9:	48 83 c6 08          	add    $0x8,%rsi
  403dbd:	48 89 ca             	mov    %rcx,%rdx
  403dc0:	81 e2 ff ff ff 7f    	and    $0x7fffffff,%edx
  403dc6:	48 09 d0             	or     %rdx,%rax
  403dc9:	48 89 ca             	mov    %rcx,%rdx
  403dcc:	83 e2 01             	and    $0x1,%edx
  403dcf:	48 d1 e8             	shr    %rax
  403dd2:	48 f7 da             	neg    %rdx
  403dd5:	81 e2 df b0 08 99    	and    $0x9908b0df,%edx
  403ddb:	48 31 d0             	xor    %rdx,%rax
  403dde:	48 33 86 e0 f8 ff ff 	xor    -0x720(%rsi),%rax
  403de5:	48 89 46 f8          	mov    %rax,-0x8(%rsi)
  403de9:	4c 39 c6             	cmp    %r8,%rsi
  403dec:	48 89 c8             	mov    %rcx,%rax
  403def:	75 bf                	jne    403db0 <_ZN3Rng5drandEv+0xe0>
  403df1:	48 8b 17             	mov    (%rdi),%rdx
  403df4:	25 00 00 00 80       	and    $0x80000000,%eax
  403df9:	48 89 d1             	mov    %rdx,%rcx
  403dfc:	81 e2 ff ff ff 7f    	and    $0x7fffffff,%edx
  403e02:	83 e1 01             	and    $0x1,%ecx
  403e05:	48 09 d0             	or     %rdx,%rax
  403e08:	48 89 fa             	mov    %rdi,%rdx
  403e0b:	48 f7 d9             	neg    %rcx
  403e0e:	48 d1 e8             	shr    %rax
  403e11:	81 e1 df b0 08 99    	and    $0x9908b0df,%ecx
  403e17:	48 33 8f 60 0c 00 00 	xor    0xc60(%rdi),%rcx
  403e1e:	48 31 c8             	xor    %rcx,%rax
  403e21:	48 89 87 78 13 00 00 	mov    %rax,0x1378(%rdi)
  403e28:	b8 6f 02 00 00       	mov    $0x26f,%eax
  403e2d:	e9 b9 fe ff ff       	jmpq   403ceb <_ZN3Rng5drandEv+0x1b>
  403e32:	48 89 c2             	mov    %rax,%rdx
  403e35:	66 0f ef c0          	pxor   %xmm0,%xmm0
  403e39:	48 d1 ea             	shr    %rdx
  403e3c:	83 e0 01             	and    $0x1,%eax
  403e3f:	48 09 c2             	or     %rax,%rdx
  403e42:	f2 48 0f 2a c2       	cvtsi2sd %rdx,%xmm0
  403e47:	5d                   	pop    %rbp
  403e48:	f2 0f 58 c0          	addsd  %xmm0,%xmm0
  403e4c:	f2 0f 59 05 b4 4b 00 	mulsd  0x4bb4(%rip),%xmm0        # 408a08 <_IO_stdin_used+0x28>
  403e53:	00 
  403e54:	c3                   	retq   
  403e55:	66 2e 0f 1f 84 00 00 	nopw   %cs:0x0(%rax,%rax,1)
  403e5c:	00 00 00 
  403e5f:	90                   	nop

0000000000403e60 <_ZNSs4_Rep10_M_disposeERKSaIcE.part.1>:
  403e60:	55                   	push   %rbp
  403e61:	b8 b0 2e 40 00       	mov    $0x402eb0,%eax
  403e66:	48 85 c0             	test   %rax,%rax
  403e69:	48 89 e5             	mov    %rsp,%rbp
  403e6c:	74 12                	je     403e80 <_ZNSs4_Rep10_M_disposeERKSaIcE.part.1+0x20>
  403e6e:	b8 ff ff ff ff       	mov    $0xffffffff,%eax
  403e73:	f0 0f c1 47 10       	lock xadd %eax,0x10(%rdi)
  403e78:	85 c0                	test   %eax,%eax
  403e7a:	7e 11                	jle    403e8d <_ZNSs4_Rep10_M_disposeERKSaIcE.part.1+0x2d>
  403e7c:	5d                   	pop    %rbp
  403e7d:	c3                   	retq   
  403e7e:	66 90                	xchg   %ax,%ax
  403e80:	8b 47 10             	mov    0x10(%rdi),%eax
  403e83:	8d 50 ff             	lea    -0x1(%rax),%edx
  403e86:	85 c0                	test   %eax,%eax
  403e88:	89 57 10             	mov    %edx,0x10(%rdi)
  403e8b:	7f ef                	jg     403e7c <_ZNSs4_Rep10_M_disposeERKSaIcE.part.1+0x1c>
  403e8d:	5d                   	pop    %rbp
  403e8e:	e9 3d ee ff ff       	jmpq   402cd0 <_ZNSs4_Rep10_M_destroyERKSaIcE@plt>
  403e93:	90                   	nop
  403e94:	66 66 66 2e 0f 1f 84 	data16 data16 nopw %cs:0x0(%rax,%rax,1)
  403e9b:	00 00 00 00 00 

0000000000403ea0 <_ZN7netlist7releaseEP12netlist_elem>:
  403ea0:	55                   	push   %rbp
  403ea1:	48 89 e5             	mov    %rsp,%rbp
  403ea4:	5d                   	pop    %rbp
  403ea5:	c3                   	retq   
  403ea6:	66 2e 0f 1f 84 00 00 	nopw   %cs:0x0(%rax,%rax,1)
  403ead:	00 00 00 

0000000000403eb0 <_ZN7netlist18total_routing_costEv>:
  403eb0:	55                   	push   %rbp
  403eb1:	66 0f ef c0          	pxor   %xmm0,%xmm0
  403eb5:	48 89 e5             	mov    %rsp,%rbp
  403eb8:	41 54                	push   %r12
  403eba:	53                   	push   %rbx
  403ebb:	4c 8d 67 48          	lea    0x48(%rdi),%r12
  403ebf:	48 83 ec 10          	sub    $0x10,%rsp
  403ec3:	48 8b 5f 58          	mov    0x58(%rdi),%rbx
  403ec7:	4c 39 e3             	cmp    %r12,%rbx
  403eca:	74 51                	je     403f1d <_ZN7netlist18total_routing_costEv+0x6d>
  403ecc:	66 0f ef d2          	pxor   %xmm2,%xmm2
  403ed0:	f2 0f 11 55 e8       	movsd  %xmm2,-0x18(%rbp)
  403ed5:	0f 1f 00             	nopl   (%rax)
  403ed8:	48 8b 7b 28          	mov    0x28(%rbx),%rdi
  403edc:	48 8d 57 38          	lea    0x38(%rdi),%rdx
  403ee0:	f0 48 0f b1 02       	lock cmpxchg %rax,(%rdx)
  403ee5:	48 3b 05 44 63 20 00 	cmp    0x206344(%rip),%rax        # 60a230 <_ZN7threads9AtomicPtrI10location_tE11ATOMIC_NULLE>
  403eec:	74 f2                	je     403ee0 <_ZN7netlist18total_routing_costEv+0x30>
  403eee:	48 8b 30             	mov    (%rax),%rsi
  403ef1:	e8 8a 47 00 00       	callq  408680 <_ZN12netlist_elem22routing_cost_given_locE10location_t>
  403ef6:	f2 0f 58 45 e8       	addsd  -0x18(%rbp),%xmm0
  403efb:	48 89 df             	mov    %rbx,%rdi
  403efe:	f2 0f 11 45 e8       	movsd  %xmm0,-0x18(%rbp)
  403f03:	e8 48 ef ff ff       	callq  402e50 <_ZSt18_Rb_tree_incrementPSt18_Rb_tree_node_base@plt>
  403f08:	4c 39 e0             	cmp    %r12,%rax
  403f0b:	48 89 c3             	mov    %rax,%rbx
  403f0e:	75 c8                	jne    403ed8 <_ZN7netlist18total_routing_costEv+0x28>
  403f10:	f2 0f 10 45 e8       	movsd  -0x18(%rbp),%xmm0
  403f15:	f2 0f 59 05 cb 4b 00 	mulsd  0x4bcb(%rip),%xmm0        # 408ae8 <_IO_stdin_used+0x108>
  403f1c:	00 
  403f1d:	48 83 c4 10          	add    $0x10,%rsp
  403f21:	5b                   	pop    %rbx
  403f22:	41 5c                	pop    %r12
  403f24:	5d                   	pop    %rbp
  403f25:	c3                   	retq   
  403f26:	66 2e 0f 1f 84 00 00 	nopw   %cs:0x0(%rax,%rax,1)
  403f2d:	00 00 00 

0000000000403f30 <_ZN7netlist14swap_locationsEP12netlist_elemS1_>:
  403f30:	48 8d 46 38          	lea    0x38(%rsi),%rax
  403f34:	55                   	push   %rbp
  403f35:	48 83 c2 38          	add    $0x38,%rdx
  403f39:	48 39 c2             	cmp    %rax,%rdx
  403f3c:	48 89 e5             	mov    %rsp,%rbp
  403f3f:	48 89 c1             	mov    %rax,%rcx
  403f42:	76 06                	jbe    403f4a <_ZN7netlist14swap_locationsEP12netlist_elemS1_+0x1a>
  403f44:	48 89 d1             	mov    %rdx,%rcx
  403f47:	48 89 c2             	mov    %rax,%rdx
  403f4a:	48 8b 3d df 62 20 00 	mov    0x2062df(%rip),%rdi        # 60a230 <_ZN7threads9AtomicPtrI10location_tE11ATOMIC_NULLE>
  403f51:	0f 1f 80 00 00 00 00 	nopl   0x0(%rax)
  403f58:	f0 48 0f b1 02       	lock cmpxchg %rax,(%rdx)
  403f5d:	48 3b 05 cc 62 20 00 	cmp    0x2062cc(%rip),%rax        # 60a230 <_ZN7threads9AtomicPtrI10location_tE11ATOMIC_NULLE>
  403f64:	48 89 c6             	mov    %rax,%rsi
  403f67:	74 ef                	je     403f58 <_ZN7netlist14swap_locationsEP12netlist_elemS1_+0x28>
  403f69:	f0 48 0f b1 3a       	lock cmpxchg %rdi,(%rdx)
  403f6e:	0f 94 c0             	sete   %al
  403f71:	48 0f b6 c0          	movzbq %al,%rax
  403f75:	85 c0                	test   %eax,%eax
  403f77:	74 df                	je     403f58 <_ZN7netlist14swap_locationsEP12netlist_elemS1_+0x28>
  403f79:	0f 1f 80 00 00 00 00 	nopl   0x0(%rax)
  403f80:	f0 48 0f b1 01       	lock cmpxchg %rax,(%rcx)
  403f85:	48 3b 05 a4 62 20 00 	cmp    0x2062a4(%rip),%rax        # 60a230 <_ZN7threads9AtomicPtrI10location_tE11ATOMIC_NULLE>
  403f8c:	48 89 c7             	mov    %rax,%rdi
  403f8f:	74 ef                	je     403f80 <_ZN7netlist14swap_locationsEP12netlist_elemS1_+0x50>
  403f91:	f0 48 0f b1 31       	lock cmpxchg %rsi,(%rcx)
  403f96:	0f 94 c0             	sete   %al
  403f99:	48 0f b6 c0          	movzbq %al,%rax
  403f9d:	85 c0                	test   %eax,%eax
  403f9f:	74 df                	je     403f80 <_ZN7netlist14swap_locationsEP12netlist_elemS1_+0x50>
  403fa1:	48 87 3a             	xchg   %rdi,(%rdx)
  403fa4:	5d                   	pop    %rbp
  403fa5:	c3                   	retq   
  403fa6:	66 2e 0f 1f 84 00 00 	nopw   %cs:0x0(%rax,%rax,1)
  403fad:	00 00 00 

0000000000403fb0 <_ZN7netlist18get_random_elementEPllP3Rng>:
  403fb0:	55                   	push   %rbp
  403fb1:	48 89 e5             	mov    %rsp,%rbp
  403fb4:	41 57                	push   %r15
  403fb6:	41 56                	push   %r14
  403fb8:	41 55                	push   %r13
  403fba:	41 54                	push   %r12
  403fbc:	49 89 f6             	mov    %rsi,%r14
  403fbf:	53                   	push   %rbx
  403fc0:	49 89 d7             	mov    %rdx,%r15
  403fc3:	48 89 fb             	mov    %rdi,%rbx
  403fc6:	49 89 cd             	mov    %rcx,%r13
  403fc9:	48 83 ec 08          	sub    $0x8,%rsp
  403fcd:	8b 77 0c             	mov    0xc(%rdi),%esi
  403fd0:	48 89 cf             	mov    %rcx,%rdi
  403fd3:	e8 f8 f9 ff ff       	callq  4039d0 <_ZN3Rng4randEi>
  403fd8:	4c 39 f8             	cmp    %r15,%rax
  403fdb:	49 89 c4             	mov    %rax,%r12
  403fde:	48 8b 53 10          	mov    0x10(%rbx),%rdx
  403fe2:	75 37                	jne    40401b <_ZN7netlist18get_random_elementEPllP3Rng+0x6b>
  403fe4:	0f 1f 40 00          	nopl   0x0(%rax)
  403fe8:	8b 73 0c             	mov    0xc(%rbx),%esi
  403feb:	4c 89 ef             	mov    %r13,%rdi
  403fee:	e8 dd f9 ff ff       	callq  4039d0 <_ZN3Rng4randEi>
  403ff3:	48 89 c2             	mov    %rax,%rdx
  403ff6:	48 8b 43 10          	mov    0x10(%rbx),%rax
  403ffa:	49 39 d4             	cmp    %rdx,%r12
  403ffd:	74 e9                	je     403fe8 <_ZN7netlist18get_random_elementEPllP3Rng+0x38>
  403fff:	48 89 d1             	mov    %rdx,%rcx
  404002:	48 c1 e1 06          	shl    $0x6,%rcx
  404006:	48 01 c8             	add    %rcx,%rax
  404009:	49 89 16             	mov    %rdx,(%r14)
  40400c:	48 83 c4 08          	add    $0x8,%rsp
  404010:	5b                   	pop    %rbx
  404011:	41 5c                	pop    %r12
  404013:	41 5d                	pop    %r13
  404015:	41 5e                	pop    %r14
  404017:	41 5f                	pop    %r15
  404019:	5d                   	pop    %rbp
  40401a:	c3                   	retq   
  40401b:	48 c1 e0 06          	shl    $0x6,%rax
  40401f:	48 01 d0             	add    %rdx,%rax
  404022:	4c 89 e2             	mov    %r12,%rdx
  404025:	eb e2                	jmp    404009 <_ZN7netlist18get_random_elementEPllP3Rng+0x59>
  404027:	90                   	nop
  404028:	0f 1f 84 00 00 00 00 	nopl   0x0(%rax,%rax,1)
  40402f:	00 

0000000000404030 <_ZN7netlist15get_random_pairEPP12netlist_elemS2_P3Rng>:
  404030:	55                   	push   %rbp
  404031:	48 89 e5             	mov    %rsp,%rbp
  404034:	41 57                	push   %r15
  404036:	41 56                	push   %r14
  404038:	41 55                	push   %r13
  40403a:	41 54                	push   %r12
  40403c:	49 89 f7             	mov    %rsi,%r15
  40403f:	53                   	push   %rbx
  404040:	49 89 fe             	mov    %rdi,%r14
  404043:	49 89 cc             	mov    %rcx,%r12
  404046:	48 83 ec 18          	sub    $0x18,%rsp
  40404a:	8b 77 0c             	mov    0xc(%rdi),%esi
  40404d:	48 89 cf             	mov    %rcx,%rdi
  404050:	48 89 55 c8          	mov    %rdx,-0x38(%rbp)
  404054:	e8 77 f9 ff ff       	callq  4039d0 <_ZN3Rng4randEi>
  404059:	49 89 c5             	mov    %rax,%r13
  40405c:	48 89 c3             	mov    %rax,%rbx
  40405f:	49 c1 e5 06          	shl    $0x6,%r13
  404063:	4d 03 6e 10          	add    0x10(%r14),%r13
  404067:	66 0f 1f 84 00 00 00 	nopw   0x0(%rax,%rax,1)
  40406e:	00 00 
  404070:	41 8b 76 0c          	mov    0xc(%r14),%esi
  404074:	4c 89 e7             	mov    %r12,%rdi
  404077:	e8 54 f9 ff ff       	callq  4039d0 <_ZN3Rng4randEi>
  40407c:	48 39 c3             	cmp    %rax,%rbx
  40407f:	49 8b 56 10          	mov    0x10(%r14),%rdx
  404083:	74 eb                	je     404070 <_ZN7netlist15get_random_pairEPP12netlist_elemS2_P3Rng+0x40>
  404085:	48 8b 4d c8          	mov    -0x38(%rbp),%rcx
  404089:	48 c1 e0 06          	shl    $0x6,%rax
  40408d:	4d 89 2f             	mov    %r13,(%r15)
  404090:	48 01 d0             	add    %rdx,%rax
  404093:	48 89 01             	mov    %rax,(%rcx)
  404096:	48 83 c4 18          	add    $0x18,%rsp
  40409a:	5b                   	pop    %rbx
  40409b:	41 5c                	pop    %r12
  40409d:	41 5d                	pop    %r13
  40409f:	41 5e                	pop    %r14
  4040a1:	41 5f                	pop    %r15
  4040a3:	5d                   	pop    %rbp
  4040a4:	c3                   	retq   
  4040a5:	90                   	nop
  4040a6:	66 2e 0f 1f 84 00 00 	nopw   %cs:0x0(%rax,%rax,1)
  4040ad:	00 00 00 

00000000004040b0 <_ZN7netlist7shuffleEP3Rng>:
  4040b0:	55                   	push   %rbp
  4040b1:	48 89 e5             	mov    %rsp,%rbp
  4040b4:	41 55                	push   %r13
  4040b6:	41 54                	push   %r12
  4040b8:	53                   	push   %rbx
  4040b9:	49 89 fc             	mov    %rdi,%r12
  4040bc:	48 83 ec 28          	sub    $0x28,%rsp
  4040c0:	64 48 8b 04 25 28 00 	mov    %fs:0x28,%rax
  4040c7:	00 00 
  4040c9:	48 89 45 d8          	mov    %rax,-0x28(%rbp)
  4040cd:	31 c0                	xor    %eax,%eax
  4040cf:	8b 47 04             	mov    0x4(%rdi),%eax
  4040d2:	0f af 47 08          	imul   0x8(%rdi),%eax
  4040d6:	69 c0 e8 03 00 00    	imul   $0x3e8,%eax,%eax
  4040dc:	85 c0                	test   %eax,%eax
  4040de:	0f 84 ae 00 00 00    	je     404192 <_ZN7netlist7shuffleEP3Rng+0xe2>
  4040e4:	48 89 f3             	mov    %rsi,%rbx
  4040e7:	45 31 ed             	xor    %r13d,%r13d
  4040ea:	48 8d 55 d0          	lea    -0x30(%rbp),%rdx
  4040ee:	48 8d 75 c8          	lea    -0x38(%rbp),%rsi
  4040f2:	48 89 d9             	mov    %rbx,%rcx
  4040f5:	4c 89 e7             	mov    %r12,%rdi
  4040f8:	e8 33 ff ff ff       	callq  404030 <_ZN7netlist15get_random_pairEPP12netlist_elemS2_P3Rng>
  4040fd:	48 8b 45 d0          	mov    -0x30(%rbp),%rax
  404101:	48 8d 50 38          	lea    0x38(%rax),%rdx
  404105:	48 8b 45 c8          	mov    -0x38(%rbp),%rax
  404109:	48 83 c0 38          	add    $0x38,%rax
  40410d:	48 39 c2             	cmp    %rax,%rdx
  404110:	49 89 c0             	mov    %rax,%r8
  404113:	76 06                	jbe    40411b <_ZN7netlist7shuffleEP3Rng+0x6b>
  404115:	49 89 d0             	mov    %rdx,%r8
  404118:	48 89 c2             	mov    %rax,%rdx
  40411b:	48 8b 0d 0e 61 20 00 	mov    0x20610e(%rip),%rcx        # 60a230 <_ZN7threads9AtomicPtrI10location_tE11ATOMIC_NULLE>
  404122:	66 0f 1f 44 00 00    	nopw   0x0(%rax,%rax,1)
  404128:	f0 48 0f b1 02       	lock cmpxchg %rax,(%rdx)
  40412d:	48 3b 05 fc 60 20 00 	cmp    0x2060fc(%rip),%rax        # 60a230 <_ZN7threads9AtomicPtrI10location_tE11ATOMIC_NULLE>
  404134:	49 89 c1             	mov    %rax,%r9
  404137:	74 ef                	je     404128 <_ZN7netlist7shuffleEP3Rng+0x78>
  404139:	f0 48 0f b1 0a       	lock cmpxchg %rcx,(%rdx)
  40413e:	0f 94 c0             	sete   %al
  404141:	48 0f b6 c0          	movzbq %al,%rax
  404145:	85 c0                	test   %eax,%eax
  404147:	74 df                	je     404128 <_ZN7netlist7shuffleEP3Rng+0x78>
  404149:	0f 1f 80 00 00 00 00 	nopl   0x0(%rax)
  404150:	f0 49 0f b1 00       	lock cmpxchg %rax,(%r8)
  404155:	48 3b 05 d4 60 20 00 	cmp    0x2060d4(%rip),%rax        # 60a230 <_ZN7threads9AtomicPtrI10location_tE11ATOMIC_NULLE>
  40415c:	48 89 c1             	mov    %rax,%rcx
  40415f:	74 ef                	je     404150 <_ZN7netlist7shuffleEP3Rng+0xa0>
  404161:	f0 4d 0f b1 08       	lock cmpxchg %r9,(%r8)
  404166:	0f 94 c0             	sete   %al
  404169:	48 0f b6 c0          	movzbq %al,%rax
  40416d:	85 c0                	test   %eax,%eax
  40416f:	74 df                	je     404150 <_ZN7netlist7shuffleEP3Rng+0xa0>
  404171:	48 87 0a             	xchg   %rcx,(%rdx)
  404174:	41 8b 44 24 04       	mov    0x4(%r12),%eax
  404179:	41 83 c5 01          	add    $0x1,%r13d
  40417d:	41 0f af 44 24 08    	imul   0x8(%r12),%eax
  404183:	69 c0 e8 03 00 00    	imul   $0x3e8,%eax,%eax
  404189:	41 39 c5             	cmp    %eax,%r13d
  40418c:	0f 82 58 ff ff ff    	jb     4040ea <_ZN7netlist7shuffleEP3Rng+0x3a>
  404192:	48 8b 45 d8          	mov    -0x28(%rbp),%rax
  404196:	64 48 33 04 25 28 00 	xor    %fs:0x28,%rax
  40419d:	00 00 
  40419f:	75 0b                	jne    4041ac <_ZN7netlist7shuffleEP3Rng+0xfc>
  4041a1:	48 83 c4 28          	add    $0x28,%rsp
  4041a5:	5b                   	pop    %rbx
  4041a6:	41 5c                	pop    %r12
  4041a8:	41 5d                	pop    %r13
  4041aa:	5d                   	pop    %rbp
  4041ab:	c3                   	retq   
  4041ac:	e8 ef eb ff ff       	callq  402da0 <__stack_chk_fail@plt>
  4041b1:	90                   	nop
  4041b2:	66 66 66 66 66 2e 0f 	data16 data16 data16 data16 nopw %cs:0x0(%rax,%rax,1)
  4041b9:	1f 84 00 00 00 00 00 

00000000004041c0 <_ZN7netlist21netlist_elem_from_locER10location_t>:
  4041c0:	55                   	push   %rbp
  4041c1:	31 c0                	xor    %eax,%eax
  4041c3:	48 89 e5             	mov    %rsp,%rbp
  4041c6:	5d                   	pop    %rbp
  4041c7:	c3                   	retq   
  4041c8:	0f 1f 84 00 00 00 00 	nopl   0x0(%rax,%rax,1)
  4041cf:	00 

00000000004041d0 <_ZN7netlist15print_locationsERKSs>:
  4041d0:	55                   	push   %rbp
  4041d1:	48 89 e5             	mov    %rsp,%rbp
  4041d4:	41 57                	push   %r15
  4041d6:	41 56                	push   %r14
  4041d8:	41 55                	push   %r13
  4041da:	41 54                	push   %r12
  4041dc:	49 89 ff             	mov    %rdi,%r15
  4041df:	53                   	push   %rbx
  4041e0:	48 81 ec 18 02 00 00 	sub    $0x218,%rsp
  4041e7:	48 8b 1e             	mov    (%rsi),%rbx
  4041ea:	64 48 8b 04 25 28 00 	mov    %fs:0x28,%rax
  4041f1:	00 00 
  4041f3:	48 89 45 c8          	mov    %rax,-0x38(%rbp)
  4041f7:	31 c0                	xor    %eax,%eax
  4041f9:	48 8d 85 c0 fd ff ff 	lea    -0x240(%rbp),%rax
  404200:	48 8d b8 f8 00 00 00 	lea    0xf8(%rax),%rdi
  404207:	e8 74 e9 ff ff       	callq  402b80 <_ZNSt8ios_baseC2Ev@plt>
  40420c:	48 8b 05 f5 60 20 00 	mov    0x2060f5(%rip),%rax        # 60a308 <_ZTTSt14basic_ofstreamIcSt11char_traitsIcEE@@GLIBCXX_3.4+0x8>
  404213:	c6 45 98 00          	movb   $0x0,-0x68(%rbp)
  404217:	48 8d bd c0 fd ff ff 	lea    -0x240(%rbp),%rdi
  40421e:	48 c7 85 b8 fe ff ff 	movq   $0x60a250,-0x148(%rbp)
  404225:	50 a2 60 00 
  404229:	48 c7 45 90 00 00 00 	movq   $0x0,-0x70(%rbp)
  404230:	00 
  404231:	31 f6                	xor    %esi,%esi
  404233:	c6 45 99 00          	movb   $0x0,-0x67(%rbp)
  404237:	48 c7 45 a0 00 00 00 	movq   $0x0,-0x60(%rbp)
  40423e:	00 
  40423f:	48 03 78 e8          	add    -0x18(%rax),%rdi
  404243:	48 89 85 c0 fd ff ff 	mov    %rax,-0x240(%rbp)
  40424a:	48 8b 05 bf 60 20 00 	mov    0x2060bf(%rip),%rax        # 60a310 <_ZTTSt14basic_ofstreamIcSt11char_traitsIcEE@@GLIBCXX_3.4+0x10>
  404251:	48 c7 45 a8 00 00 00 	movq   $0x0,-0x58(%rbp)
  404258:	00 
  404259:	48 c7 45 b0 00 00 00 	movq   $0x0,-0x50(%rbp)
  404260:	00 
  404261:	48 c7 45 b8 00 00 00 	movq   $0x0,-0x48(%rbp)
  404268:	00 
  404269:	48 89 07             	mov    %rax,(%rdi)
  40426c:	e8 ff ea ff ff       	callq  402d70 <_ZNSt9basic_iosIcSt11char_traitsIcEE4initEPSt15basic_streambufIcS1_E@plt>
  404271:	48 8d 85 c0 fd ff ff 	lea    -0x240(%rbp),%rax
  404278:	48 c7 85 c0 fd ff ff 	movq   $0x60a5d8,-0x240(%rbp)
  40427f:	d8 a5 60 00 
  404283:	48 c7 85 b8 fe ff ff 	movq   $0x60a600,-0x148(%rbp)
  40428a:	00 a6 60 00 
  40428e:	48 8d 78 08          	lea    0x8(%rax),%rdi
  404292:	e8 89 eb ff ff       	callq  402e20 <_ZNSt13basic_filebufIcSt11char_traitsIcEEC1Ev@plt>
  404297:	48 8d 85 c0 fd ff ff 	lea    -0x240(%rbp),%rax
  40429e:	48 8d 70 08          	lea    0x8(%rax),%rsi
  4042a2:	48 8d b8 f8 00 00 00 	lea    0xf8(%rax),%rdi
  4042a9:	e8 c2 ea ff ff       	callq  402d70 <_ZNSt9basic_iosIcSt11char_traitsIcEE4initEPSt15basic_streambufIcS1_E@plt>
  4042ae:	48 8d 85 c0 fd ff ff 	lea    -0x240(%rbp),%rax
  4042b5:	ba 30 00 00 00       	mov    $0x30,%edx
  4042ba:	48 89 de             	mov    %rbx,%rsi
  4042bd:	48 8d 78 08          	lea    0x8(%rax),%rdi
  4042c1:	e8 aa e9 ff ff       	callq  402c70 <_ZNSt13basic_filebufIcSt11char_traitsIcEE4openEPKcSt13_Ios_Openmode@plt>
  4042c6:	48 85 c0             	test   %rax,%rax
  4042c9:	48 8d bd c0 fd ff ff 	lea    -0x240(%rbp),%rdi
  4042d0:	48 8b 85 c0 fd ff ff 	mov    -0x240(%rbp),%rax
  4042d7:	0f 84 f1 01 00 00    	je     4044ce <_ZN7netlist15print_locationsERKSs+0x2fe>
  4042dd:	48 03 78 e8          	add    -0x18(%rax),%rdi
  4042e1:	31 f6                	xor    %esi,%esi
  4042e3:	e8 28 eb ff ff       	callq  402e10 <_ZNSt9basic_iosIcSt11char_traitsIcEE5clearESt12_Ios_Iostate@plt>
  4042e8:	49 8b 5f 58          	mov    0x58(%r15),%rbx
  4042ec:	49 83 c7 48          	add    $0x48,%r15
  4042f0:	4c 39 fb             	cmp    %r15,%rbx
  4042f3:	0f 84 e4 00 00 00    	je     4043dd <_ZN7netlist15print_locationsERKSs+0x20d>
  4042f9:	0f 1f 80 00 00 00 00 	nopl   0x0(%rax)
  404300:	48 8b 4b 28          	mov    0x28(%rbx),%rcx
  404304:	48 8d 51 38          	lea    0x38(%rcx),%rdx
  404308:	0f 1f 84 00 00 00 00 	nopl   0x0(%rax,%rax,1)
  40430f:	00 
  404310:	f0 48 0f b1 02       	lock cmpxchg %rax,(%rdx)
  404315:	48 3b 05 14 5f 20 00 	cmp    0x205f14(%rip),%rax        # 60a230 <_ZN7threads9AtomicPtrI10location_tE11ATOMIC_NULLE>
  40431c:	74 f2                	je     404310 <_ZN7netlist15print_locationsERKSs+0x140>
  40431e:	44 8b 68 04          	mov    0x4(%rax),%r13d
  404322:	66 0f 1f 44 00 00    	nopw   0x0(%rax,%rax,1)
  404328:	f0 48 0f b1 02       	lock cmpxchg %rax,(%rdx)
  40432d:	48 3b 05 fc 5e 20 00 	cmp    0x205efc(%rip),%rax        # 60a230 <_ZN7threads9AtomicPtrI10location_tE11ATOMIC_NULLE>
  404334:	74 f2                	je     404328 <_ZN7netlist15print_locationsERKSs+0x158>
  404336:	48 8b 31             	mov    (%rcx),%rsi
  404339:	48 8d bd c0 fd ff ff 	lea    -0x240(%rbp),%rdi
  404340:	44 8b 30             	mov    (%rax),%r14d
  404343:	48 8b 56 e8          	mov    -0x18(%rsi),%rdx
  404347:	e8 04 ea ff ff       	callq  402d50 <_ZSt16__ostream_insertIcSt11char_traitsIcEERSt13basic_ostreamIT_T0_ES6_PKS3_l@plt>
  40434c:	ba 01 00 00 00       	mov    $0x1,%edx
  404351:	be 10 8a 40 00       	mov    $0x408a10,%esi
  404356:	48 89 c7             	mov    %rax,%rdi
  404359:	49 89 c4             	mov    %rax,%r12
  40435c:	e8 ef e9 ff ff       	callq  402d50 <_ZSt16__ostream_insertIcSt11char_traitsIcEERSt13basic_ostreamIT_T0_ES6_PKS3_l@plt>
  404361:	44 89 f6             	mov    %r14d,%esi
  404364:	4c 89 e7             	mov    %r12,%rdi
  404367:	e8 e4 e7 ff ff       	callq  402b50 <_ZNSolsEi@plt>
  40436c:	ba 01 00 00 00       	mov    $0x1,%edx
  404371:	be 10 8a 40 00       	mov    $0x408a10,%esi
  404376:	48 89 c7             	mov    %rax,%rdi
  404379:	49 89 c4             	mov    %rax,%r12
  40437c:	e8 cf e9 ff ff       	callq  402d50 <_ZSt16__ostream_insertIcSt11char_traitsIcEERSt13basic_ostreamIT_T0_ES6_PKS3_l@plt>
  404381:	44 89 ee             	mov    %r13d,%esi
  404384:	4c 89 e7             	mov    %r12,%rdi
  404387:	e8 c4 e7 ff ff       	callq  402b50 <_ZNSolsEi@plt>
  40438c:	49 89 c5             	mov    %rax,%r13
  40438f:	48 8b 00             	mov    (%rax),%rax
  404392:	48 8b 40 e8          	mov    -0x18(%rax),%rax
  404396:	4d 8b a4 05 f0 00 00 	mov    0xf0(%r13,%rax,1),%r12
  40439d:	00 
  40439e:	4d 85 e4             	test   %r12,%r12
  4043a1:	0f 84 52 01 00 00    	je     4044f9 <_ZN7netlist15print_locationsERKSs+0x329>
  4043a7:	41 80 7c 24 38 00    	cmpb   $0x0,0x38(%r12)
  4043ad:	0f 84 ed 00 00 00    	je     4044a0 <_ZN7netlist15print_locationsERKSs+0x2d0>
  4043b3:	41 0f be 74 24 43    	movsbl 0x43(%r12),%esi
  4043b9:	4c 89 ef             	mov    %r13,%rdi
  4043bc:	e8 4f eb ff ff       	callq  402f10 <_ZNSo3putEc@plt>
  4043c1:	48 89 c7             	mov    %rax,%rdi
  4043c4:	e8 c7 e9 ff ff       	callq  402d90 <_ZNSo5flushEv@plt>
  4043c9:	48 89 df             	mov    %rbx,%rdi
  4043cc:	e8 7f ea ff ff       	callq  402e50 <_ZSt18_Rb_tree_incrementPSt18_Rb_tree_node_base@plt>
  4043d1:	4c 39 f8             	cmp    %r15,%rax
  4043d4:	48 89 c3             	mov    %rax,%rbx
  4043d7:	0f 85 23 ff ff ff    	jne    404300 <_ZN7netlist15print_locationsERKSs+0x130>
  4043dd:	48 8d 85 c0 fd ff ff 	lea    -0x240(%rbp),%rax
  4043e4:	48 c7 85 c0 fd ff ff 	movq   $0x60a5d8,-0x240(%rbp)
  4043eb:	d8 a5 60 00 
  4043ef:	48 c7 85 b8 fe ff ff 	movq   $0x60a600,-0x148(%rbp)
  4043f6:	00 a6 60 00 
  4043fa:	48 c7 85 c8 fd ff ff 	movq   $0x60a290,-0x238(%rbp)
  404401:	90 a2 60 00 
  404405:	48 8d 78 08          	lea    0x8(%rax),%rdi
  404409:	e8 12 eb ff ff       	callq  402f20 <_ZNSt13basic_filebufIcSt11char_traitsIcEE5closeEv@plt>
  40440e:	48 8d 85 c0 fd ff ff 	lea    -0x240(%rbp),%rax
  404415:	48 8d 78 70          	lea    0x70(%rax),%rdi
  404419:	e8 a2 e9 ff ff       	callq  402dc0 <_ZNSt12__basic_fileIcED1Ev@plt>
  40441e:	48 8d 85 c0 fd ff ff 	lea    -0x240(%rbp),%rax
  404425:	48 c7 85 c8 fd ff ff 	movq   $0x60a510,-0x238(%rbp)
  40442c:	10 a5 60 00 
  404430:	48 8d 78 40          	lea    0x40(%rax),%rdi
  404434:	e8 c7 ea ff ff       	callq  402f00 <_ZNSt6localeD1Ev@plt>
  404439:	48 8b 05 c8 5e 20 00 	mov    0x205ec8(%rip),%rax        # 60a308 <_ZTTSt14basic_ofstreamIcSt11char_traitsIcEE@@GLIBCXX_3.4+0x8>
  404440:	48 8b 0d c9 5e 20 00 	mov    0x205ec9(%rip),%rcx        # 60a310 <_ZTTSt14basic_ofstreamIcSt11char_traitsIcEE@@GLIBCXX_3.4+0x10>
  404447:	48 89 85 c0 fd ff ff 	mov    %rax,-0x240(%rbp)
  40444e:	48 8b 40 e8          	mov    -0x18(%rax),%rax
  404452:	48 89 8c 05 c0 fd ff 	mov    %rcx,-0x240(%rbp,%rax,1)
  404459:	ff 
  40445a:	48 8d 85 c0 fd ff ff 	lea    -0x240(%rbp),%rax
  404461:	48 c7 85 b8 fe ff ff 	movq   $0x60a250,-0x148(%rbp)
  404468:	50 a2 60 00 
  40446c:	48 8d b8 f8 00 00 00 	lea    0xf8(%rax),%rdi
  404473:	e8 38 e9 ff ff       	callq  402db0 <_ZNSt8ios_baseD2Ev@plt>
  404478:	48 8b 45 c8          	mov    -0x38(%rbp),%rax
  40447c:	64 48 33 04 25 28 00 	xor    %fs:0x28,%rax
  404483:	00 00 
  404485:	0f 85 ed 00 00 00    	jne    404578 <_ZN7netlist15print_locationsERKSs+0x3a8>
  40448b:	48 81 c4 18 02 00 00 	add    $0x218,%rsp
  404492:	5b                   	pop    %rbx
  404493:	41 5c                	pop    %r12
  404495:	41 5d                	pop    %r13
  404497:	41 5e                	pop    %r14
  404499:	41 5f                	pop    %r15
  40449b:	5d                   	pop    %rbp
  40449c:	c3                   	retq   
  40449d:	0f 1f 00             	nopl   (%rax)
  4044a0:	4c 89 e7             	mov    %r12,%rdi
  4044a3:	e8 38 e7 ff ff       	callq  402be0 <_ZNKSt5ctypeIcE13_M_widen_initEv@plt>
  4044a8:	49 8b 04 24          	mov    (%r12),%rax
  4044ac:	be 0a 00 00 00       	mov    $0xa,%esi
  4044b1:	48 8b 40 30          	mov    0x30(%rax),%rax
  4044b5:	48 3d 80 5b 40 00    	cmp    $0x405b80,%rax
  4044bb:	0f 84 f8 fe ff ff    	je     4043b9 <_ZN7netlist15print_locationsERKSs+0x1e9>
  4044c1:	4c 89 e7             	mov    %r12,%rdi
  4044c4:	ff d0                	callq  *%rax
  4044c6:	0f be f0             	movsbl %al,%esi
  4044c9:	e9 eb fe ff ff       	jmpq   4043b9 <_ZN7netlist15print_locationsERKSs+0x1e9>
  4044ce:	48 03 78 e8          	add    -0x18(%rax),%rdi
  4044d2:	8b 77 20             	mov    0x20(%rdi),%esi
  4044d5:	83 ce 04             	or     $0x4,%esi
  4044d8:	e8 33 e9 ff ff       	callq  402e10 <_ZNSt9basic_iosIcSt11char_traitsIcEE5clearESt12_Ios_Iostate@plt>
  4044dd:	e9 06 fe ff ff       	jmpq   4042e8 <_ZN7netlist15print_locationsERKSs+0x118>
  4044e2:	48 8d bd c0 fd ff ff 	lea    -0x240(%rbp),%rdi
  4044e9:	48 89 c3             	mov    %rax,%rbx
  4044ec:	e8 4f e8 ff ff       	callq  402d40 <_ZNSt14basic_ofstreamIcSt11char_traitsIcEED1Ev@plt>
  4044f1:	48 89 df             	mov    %rbx,%rdi
  4044f4:	e8 f7 e9 ff ff       	callq  402ef0 <_Unwind_Resume@plt>
  4044f9:	e8 62 e6 ff ff       	callq  402b60 <_ZSt16__throw_bad_castv@plt>
  4044fe:	48 89 c3             	mov    %rax,%rbx
  404501:	48 8d 85 c0 fd ff ff 	lea    -0x240(%rbp),%rax
  404508:	48 8d 78 70          	lea    0x70(%rax),%rdi
  40450c:	e8 af e8 ff ff       	callq  402dc0 <_ZNSt12__basic_fileIcED1Ev@plt>
  404511:	48 8d 85 c0 fd ff ff 	lea    -0x240(%rbp),%rax
  404518:	48 c7 85 c8 fd ff ff 	movq   $0x60a510,-0x238(%rbp)
  40451f:	10 a5 60 00 
  404523:	48 8d 78 40          	lea    0x40(%rax),%rdi
  404527:	e8 d4 e9 ff ff       	callq  402f00 <_ZNSt6localeD1Ev@plt>
  40452c:	48 8b 05 d5 5d 20 00 	mov    0x205dd5(%rip),%rax        # 60a308 <_ZTTSt14basic_ofstreamIcSt11char_traitsIcEE@@GLIBCXX_3.4+0x8>
  404533:	48 8b 0d d6 5d 20 00 	mov    0x205dd6(%rip),%rcx        # 60a310 <_ZTTSt14basic_ofstreamIcSt11char_traitsIcEE@@GLIBCXX_3.4+0x10>
  40453a:	48 89 85 c0 fd ff ff 	mov    %rax,-0x240(%rbp)
  404541:	48 8b 40 e8          	mov    -0x18(%rax),%rax
  404545:	48 89 8c 05 c0 fd ff 	mov    %rcx,-0x240(%rbp,%rax,1)
  40454c:	ff 
  40454d:	48 8d 85 c0 fd ff ff 	lea    -0x240(%rbp),%rax
  404554:	48 c7 85 b8 fe ff ff 	movq   $0x60a250,-0x148(%rbp)
  40455b:	50 a2 60 00 
  40455f:	48 8d b8 f8 00 00 00 	lea    0xf8(%rax),%rdi
  404566:	e8 45 e8 ff ff       	callq  402db0 <_ZNSt8ios_baseD2Ev@plt>
  40456b:	48 89 df             	mov    %rbx,%rdi
  40456e:	e8 7d e9 ff ff       	callq  402ef0 <_Unwind_Resume@plt>
  404573:	48 89 c3             	mov    %rax,%rbx
  404576:	eb 99                	jmp    404511 <_ZN7netlist15print_locationsERKSs+0x341>
  404578:	e8 23 e8 ff ff       	callq  402da0 <__stack_chk_fail@plt>
  40457d:	48 89 c3             	mov    %rax,%rbx
  404580:	48 8d 85 c0 fd ff ff 	lea    -0x240(%rbp),%rax
  404587:	48 c7 85 b8 fe ff ff 	movq   $0x60a250,-0x148(%rbp)
  40458e:	50 a2 60 00 
  404592:	48 8d b8 f8 00 00 00 	lea    0xf8(%rax),%rdi
  404599:	e8 12 e8 ff ff       	callq  402db0 <_ZNSt8ios_baseD2Ev@plt>
  40459e:	48 89 df             	mov    %rbx,%rdi
  4045a1:	e8 4a e9 ff ff       	callq  402ef0 <_Unwind_Resume@plt>
  4045a6:	48 8b 0d 5b 5d 20 00 	mov    0x205d5b(%rip),%rcx        # 60a308 <_ZTTSt14basic_ofstreamIcSt11char_traitsIcEE@@GLIBCXX_3.4+0x8>
  4045ad:	48 89 c3             	mov    %rax,%rbx
  4045b0:	48 89 8d c0 fd ff ff 	mov    %rcx,-0x240(%rbp)
  4045b7:	48 8b 51 e8          	mov    -0x18(%rcx),%rdx
  4045bb:	48 8b 0d 4e 5d 20 00 	mov    0x205d4e(%rip),%rcx        # 60a310 <_ZTTSt14basic_ofstreamIcSt11char_traitsIcEE@@GLIBCXX_3.4+0x10>
  4045c2:	48 89 8c 15 c0 fd ff 	mov    %rcx,-0x240(%rbp,%rdx,1)
  4045c9:	ff 
  4045ca:	eb b4                	jmp    404580 <_ZN7netlist15print_locationsERKSs+0x3b0>
  4045cc:	48 89 c3             	mov    %rax,%rbx
  4045cf:	48 8d 85 c0 fd ff ff 	lea    -0x240(%rbp),%rax
  4045d6:	48 8d 78 08          	lea    0x8(%rax),%rdi
  4045da:	e8 b1 e8 ff ff       	callq  402e90 <_ZNSt13basic_filebufIcSt11char_traitsIcEED1Ev@plt>
  4045df:	48 89 d8             	mov    %rbx,%rax
  4045e2:	eb c2                	jmp    4045a6 <_ZN7netlist15print_locationsERKSs+0x3d6>
  4045e4:	66 66 66 2e 0f 1f 84 	data16 data16 nopw %cs:0x0(%rax,%rax,1)
  4045eb:	00 00 00 00 00 

00000000004045f0 <_ZN7netlist24create_elem_if_necessaryERSs>:
  4045f0:	55                   	push   %rbp
  4045f1:	48 89 e5             	mov    %rsp,%rbp
  4045f4:	41 57                	push   %r15
  4045f6:	41 56                	push   %r14
  4045f8:	41 55                	push   %r13
  4045fa:	41 54                	push   %r12
  4045fc:	53                   	push   %rbx
  4045fd:	48 83 ec 68          	sub    $0x68,%rsp
  404601:	48 8b 47 50          	mov    0x50(%rdi),%rax
  404605:	48 89 7d 80          	mov    %rdi,-0x80(%rbp)
  404609:	64 48 8b 1c 25 28 00 	mov    %fs:0x28,%rbx
  404610:	00 00 
  404612:	48 89 5d c8          	mov    %rbx,-0x38(%rbp)
  404616:	31 db                	xor    %ebx,%ebx
  404618:	48 8d 5f 48          	lea    0x48(%rdi),%rbx
  40461c:	48 89 b5 78 ff ff ff 	mov    %rsi,-0x88(%rbp)
  404623:	48 85 c0             	test   %rax,%rax
  404626:	48 89 45 98          	mov    %rax,-0x68(%rbp)
  40462a:	49 89 dc             	mov    %rbx,%r12
  40462d:	48 89 5d 90          	mov    %rbx,-0x70(%rbp)
  404631:	0f 84 9f 01 00 00    	je     4047d6 <_ZN7netlist24create_elem_if_necessaryERSs+0x1e6>
  404637:	48 8b 1e             	mov    (%rsi),%rbx
  40463a:	49 89 c6             	mov    %rax,%r14
  40463d:	4c 8b 7b e8          	mov    -0x18(%rbx),%r15
  404641:	eb 17                	jmp    40465a <_ZN7netlist24create_elem_if_necessaryERSs+0x6a>
  404643:	0f 1f 44 00 00       	nopl   0x0(%rax,%rax,1)
  404648:	89 c8                	mov    %ecx,%eax
  40464a:	85 c0                	test   %eax,%eax
  40464c:	78 42                	js     404690 <_ZN7netlist24create_elem_if_necessaryERSs+0xa0>
  40464e:	4d 89 f4             	mov    %r14,%r12
  404651:	4d 8b 76 10          	mov    0x10(%r14),%r14
  404655:	4d 85 f6             	test   %r14,%r14
  404658:	74 3f                	je     404699 <_ZN7netlist24create_elem_if_necessaryERSs+0xa9>
  40465a:	49 8b 7e 20          	mov    0x20(%r14),%rdi
  40465e:	4c 89 fa             	mov    %r15,%rdx
  404661:	48 89 de             	mov    %rbx,%rsi
  404664:	4c 8b 6f e8          	mov    -0x18(%rdi),%r13
  404668:	4d 39 fd             	cmp    %r15,%r13
  40466b:	49 0f 46 d5          	cmovbe %r13,%rdx
  40466f:	e8 8c e7 ff ff       	callq  402e00 <memcmp@plt>
  404674:	85 c0                	test   %eax,%eax
  404676:	75 d2                	jne    40464a <_ZN7netlist24create_elem_if_necessaryERSs+0x5a>
  404678:	4c 89 e9             	mov    %r13,%rcx
  40467b:	4c 29 f9             	sub    %r15,%rcx
  40467e:	48 81 f9 ff ff ff 7f 	cmp    $0x7fffffff,%rcx
  404685:	7f c7                	jg     40464e <_ZN7netlist24create_elem_if_necessaryERSs+0x5e>
  404687:	48 81 f9 00 00 00 80 	cmp    $0xffffffff80000000,%rcx
  40468e:	7d b8                	jge    404648 <_ZN7netlist24create_elem_if_necessaryERSs+0x58>
  404690:	4d 8b 76 18          	mov    0x18(%r14),%r14
  404694:	4d 85 f6             	test   %r14,%r14
  404697:	75 c1                	jne    40465a <_ZN7netlist24create_elem_if_necessaryERSs+0x6a>
  404699:	4c 39 65 90          	cmp    %r12,-0x70(%rbp)
  40469d:	74 72                	je     404711 <_ZN7netlist24create_elem_if_necessaryERSs+0x121>
  40469f:	49 8b 74 24 20       	mov    0x20(%r12),%rsi
  4046a4:	4c 89 fa             	mov    %r15,%rdx
  4046a7:	48 89 df             	mov    %rbx,%rdi
  4046aa:	48 8b 4e e8          	mov    -0x18(%rsi),%rcx
  4046ae:	4c 39 f9             	cmp    %r15,%rcx
  4046b1:	48 89 4d 88          	mov    %rcx,-0x78(%rbp)
  4046b5:	48 0f 46 d1          	cmovbe %rcx,%rdx
  4046b9:	e8 42 e7 ff ff       	callq  402e00 <memcmp@plt>
  4046be:	85 c0                	test   %eax,%eax
  4046c0:	0f 85 9d 00 00 00    	jne    404763 <_ZN7netlist24create_elem_if_necessaryERSs+0x173>
  4046c6:	48 8b 4d 88          	mov    -0x78(%rbp),%rcx
  4046ca:	4d 89 f9             	mov    %r15,%r9
  4046cd:	49 29 c9             	sub    %rcx,%r9
  4046d0:	49 81 f9 ff ff ff 7f 	cmp    $0x7fffffff,%r9
  4046d7:	7e 2f                	jle    404708 <_ZN7netlist24create_elem_if_necessaryERSs+0x118>
  4046d9:	4d 8b 64 24 28       	mov    0x28(%r12),%r12
  4046de:	48 8b 5d c8          	mov    -0x38(%rbp),%rbx
  4046e2:	64 48 33 1c 25 28 00 	xor    %fs:0x28,%rbx
  4046e9:	00 00 
  4046eb:	4c 89 e0             	mov    %r12,%rax
  4046ee:	0f 85 12 02 00 00    	jne    404906 <_ZN7netlist24create_elem_if_necessaryERSs+0x316>
  4046f4:	48 83 c4 68          	add    $0x68,%rsp
  4046f8:	5b                   	pop    %rbx
  4046f9:	41 5c                	pop    %r12
  4046fb:	41 5d                	pop    %r13
  4046fd:	41 5e                	pop    %r14
  4046ff:	41 5f                	pop    %r15
  404701:	5d                   	pop    %rbp
  404702:	c3                   	retq   
  404703:	0f 1f 44 00 00       	nopl   0x0(%rax,%rax,1)
  404708:	49 81 f9 00 00 00 80 	cmp    $0xffffffff80000000,%r9
  40470f:	7d 4f                	jge    404760 <_ZN7netlist24create_elem_if_necessaryERSs+0x170>
  404711:	48 8b 45 80          	mov    -0x80(%rbp),%rax
  404715:	8b 35 35 5f 20 00    	mov    0x205f35(%rip),%esi        # 60a650 <_ZZN7netlist24create_elem_if_necessaryERSsE11unused_elem>
  40471b:	4c 8b 60 10          	mov    0x10(%rax),%r12
  40471f:	48 8b 40 18          	mov    0x18(%rax),%rax
  404723:	89 b5 74 ff ff ff    	mov    %esi,-0x8c(%rbp)
  404729:	48 89 c2             	mov    %rax,%rdx
  40472c:	48 89 45 88          	mov    %rax,-0x78(%rbp)
  404730:	4c 29 e2             	sub    %r12,%rdx
  404733:	48 c1 fa 06          	sar    $0x6,%rdx
  404737:	48 39 d6             	cmp    %rdx,%rsi
  40473a:	0f 83 ba 01 00 00    	jae    4048fa <_ZN7netlist24create_elem_if_necessaryERSs+0x30a>
  404740:	48 8b 43 e8          	mov    -0x18(%rbx),%rax
  404744:	48 c1 e6 06          	shl    $0x6,%rsi
  404748:	49 01 f4             	add    %rsi,%r12
  40474b:	49 89 c7             	mov    %rax,%r15
  40474e:	48 8b 45 90          	mov    -0x70(%rbp),%rax
  404752:	48 89 45 88          	mov    %rax,-0x78(%rbp)
  404756:	eb 36                	jmp    40478e <_ZN7netlist24create_elem_if_necessaryERSs+0x19e>
  404758:	0f 1f 84 00 00 00 00 	nopl   0x0(%rax,%rax,1)
  40475f:	00 
  404760:	44 89 c8             	mov    %r9d,%eax
  404763:	85 c0                	test   %eax,%eax
  404765:	0f 89 6e ff ff ff    	jns    4046d9 <_ZN7netlist24create_elem_if_necessaryERSs+0xe9>
  40476b:	eb a4                	jmp    404711 <_ZN7netlist24create_elem_if_necessaryERSs+0x121>
  40476d:	89 c8                	mov    %ecx,%eax
  40476f:	85 c0                	test   %eax,%eax
  404771:	78 55                	js     4047c8 <_ZN7netlist24create_elem_if_necessaryERSs+0x1d8>
  404773:	48 8b 45 98          	mov    -0x68(%rbp),%rax
  404777:	48 89 45 88          	mov    %rax,-0x78(%rbp)
  40477b:	48 8b 40 10          	mov    0x10(%rax),%rax
  40477f:	48 89 45 98          	mov    %rax,-0x68(%rbp)
  404783:	48 83 7d 98 00       	cmpq   $0x0,-0x68(%rbp)
  404788:	0f 84 8a 00 00 00    	je     404818 <_ZN7netlist24create_elem_if_necessaryERSs+0x228>
  40478e:	48 8b 45 98          	mov    -0x68(%rbp),%rax
  404792:	4c 89 fa             	mov    %r15,%rdx
  404795:	48 89 de             	mov    %rbx,%rsi
  404798:	48 8b 78 20          	mov    0x20(%rax),%rdi
  40479c:	4c 8b 77 e8          	mov    -0x18(%rdi),%r14
  4047a0:	4d 39 fe             	cmp    %r15,%r14
  4047a3:	49 0f 46 d6          	cmovbe %r14,%rdx
  4047a7:	e8 54 e6 ff ff       	callq  402e00 <memcmp@plt>
  4047ac:	85 c0                	test   %eax,%eax
  4047ae:	75 bf                	jne    40476f <_ZN7netlist24create_elem_if_necessaryERSs+0x17f>
  4047b0:	4c 89 f1             	mov    %r14,%rcx
  4047b3:	4c 29 f9             	sub    %r15,%rcx
  4047b6:	48 81 f9 ff ff ff 7f 	cmp    $0x7fffffff,%rcx
  4047bd:	7f b4                	jg     404773 <_ZN7netlist24create_elem_if_necessaryERSs+0x183>
  4047bf:	48 81 f9 00 00 00 80 	cmp    $0xffffffff80000000,%rcx
  4047c6:	7d a5                	jge    40476d <_ZN7netlist24create_elem_if_necessaryERSs+0x17d>
  4047c8:	48 8b 45 98          	mov    -0x68(%rbp),%rax
  4047cc:	48 8b 40 18          	mov    0x18(%rax),%rax
  4047d0:	48 89 45 98          	mov    %rax,-0x68(%rbp)
  4047d4:	eb ad                	jmp    404783 <_ZN7netlist24create_elem_if_necessaryERSs+0x193>
  4047d6:	48 8b 5d 80          	mov    -0x80(%rbp),%rbx
  4047da:	8b 35 70 5e 20 00    	mov    0x205e70(%rip),%esi        # 60a650 <_ZZN7netlist24create_elem_if_necessaryERSsE11unused_elem>
  4047e0:	48 8b 43 10          	mov    0x10(%rbx),%rax
  4047e4:	48 8b 5b 18          	mov    0x18(%rbx),%rbx
  4047e8:	48 89 da             	mov    %rbx,%rdx
  4047eb:	48 89 5d 98          	mov    %rbx,-0x68(%rbp)
  4047ef:	48 29 c2             	sub    %rax,%rdx
  4047f2:	48 c1 fa 06          	sar    $0x6,%rdx
  4047f6:	48 39 d6             	cmp    %rdx,%rsi
  4047f9:	0f 83 fb 00 00 00    	jae    4048fa <_ZN7netlist24create_elem_if_necessaryERSs+0x30a>
  4047ff:	48 c1 e6 06          	shl    $0x6,%rsi
  404803:	4c 8d 24 30          	lea    (%rax,%rsi,1),%r12
  404807:	48 8b 45 90          	mov    -0x70(%rbp),%rax
  40480b:	48 89 45 88          	mov    %rax,-0x78(%rbp)
  40480f:	eb 49                	jmp    40485a <_ZN7netlist24create_elem_if_necessaryERSs+0x26a>
  404811:	0f 1f 80 00 00 00 00 	nopl   0x0(%rax)
  404818:	48 8b 45 88          	mov    -0x78(%rbp),%rax
  40481c:	48 39 45 90          	cmp    %rax,-0x70(%rbp)
  404820:	74 38                	je     40485a <_ZN7netlist24create_elem_if_necessaryERSs+0x26a>
  404822:	48 8b 70 20          	mov    0x20(%rax),%rsi
  404826:	4c 89 fa             	mov    %r15,%rdx
  404829:	48 89 df             	mov    %rbx,%rdi
  40482c:	4c 8b 6e e8          	mov    -0x18(%rsi),%r13
  404830:	4d 39 fd             	cmp    %r15,%r13
  404833:	49 0f 46 d5          	cmovbe %r13,%rdx
  404837:	e8 c4 e5 ff ff       	callq  402e00 <memcmp@plt>
  40483c:	85 c0                	test   %eax,%eax
  40483e:	0f 85 80 00 00 00    	jne    4048c4 <_ZN7netlist24create_elem_if_necessaryERSs+0x2d4>
  404844:	4c 89 f8             	mov    %r15,%rax
  404847:	4c 29 e8             	sub    %r13,%rax
  40484a:	48 3d ff ff ff 7f    	cmp    $0x7fffffff,%rax
  404850:	7f 56                	jg     4048a8 <_ZN7netlist24create_elem_if_necessaryERSs+0x2b8>
  404852:	48 3d 00 00 00 80    	cmp    $0xffffffff80000000,%rax
  404858:	7d 6a                	jge    4048c4 <_ZN7netlist24create_elem_if_necessaryERSs+0x2d4>
  40485a:	48 8b b5 78 ff ff ff 	mov    -0x88(%rbp),%rsi
  404861:	48 8d 7d b0          	lea    -0x50(%rbp),%rdi
  404865:	e8 e6 e3 ff ff       	callq  402c50 <_ZNSsC1ERKSs@plt>
  40486a:	48 8b 7d 80          	mov    -0x80(%rbp),%rdi
  40486e:	48 8b 75 88          	mov    -0x78(%rbp),%rsi
  404872:	48 8d 55 b0          	lea    -0x50(%rbp),%rdx
  404876:	48 c7 45 b8 00 00 00 	movq   $0x0,-0x48(%rbp)
  40487d:	00 
  40487e:	48 83 c7 40          	add    $0x40,%rdi
  404882:	e8 e9 19 00 00       	callq  406270 <_ZNSt8_Rb_treeISsSt4pairIKSsP12netlist_elemESt10_Select1stIS4_ESt4lessISsESaIS4_EE17_M_insert_unique_ESt23_Rb_tree_const_iteratorIS4_ERKS4_>
  404887:	48 89 45 88          	mov    %rax,-0x78(%rbp)
  40488b:	48 8b 45 b0          	mov    -0x50(%rbp),%rax
  40488f:	48 8d 78 e8          	lea    -0x18(%rax),%rdi
  404893:	48 81 ff 80 a5 60 00 	cmp    $0x60a580,%rdi
  40489a:	75 2e                	jne    4048ca <_ZN7netlist24create_elem_if_necessaryERSs+0x2da>
  40489c:	8b 05 ae 5d 20 00    	mov    0x205dae(%rip),%eax        # 60a650 <_ZZN7netlist24create_elem_if_necessaryERSsE11unused_elem>
  4048a2:	89 85 74 ff ff ff    	mov    %eax,-0x8c(%rbp)
  4048a8:	48 8b 45 88          	mov    -0x78(%rbp),%rax
  4048ac:	4c 89 60 28          	mov    %r12,0x28(%rax)
  4048b0:	8b 85 74 ff ff ff    	mov    -0x8c(%rbp),%eax
  4048b6:	83 c0 01             	add    $0x1,%eax
  4048b9:	89 05 91 5d 20 00    	mov    %eax,0x205d91(%rip)        # 60a650 <_ZZN7netlist24create_elem_if_necessaryERSsE11unused_elem>
  4048bf:	e9 1a fe ff ff       	jmpq   4046de <_ZN7netlist24create_elem_if_necessaryERSs+0xee>
  4048c4:	85 c0                	test   %eax,%eax
  4048c6:	79 e0                	jns    4048a8 <_ZN7netlist24create_elem_if_necessaryERSs+0x2b8>
  4048c8:	eb 90                	jmp    40485a <_ZN7netlist24create_elem_if_necessaryERSs+0x26a>
  4048ca:	48 8d 75 af          	lea    -0x51(%rbp),%rsi
  4048ce:	e8 8d f5 ff ff       	callq  403e60 <_ZNSs4_Rep10_M_disposeERKSaIcE.part.1>
  4048d3:	eb c7                	jmp    40489c <_ZN7netlist24create_elem_if_necessaryERSs+0x2ac>
  4048d5:	48 89 c3             	mov    %rax,%rbx
  4048d8:	48 8b 45 b0          	mov    -0x50(%rbp),%rax
  4048dc:	48 8d 78 e8          	lea    -0x18(%rax),%rdi
  4048e0:	48 81 ff 80 a5 60 00 	cmp    $0x60a580,%rdi
  4048e7:	74 09                	je     4048f2 <_ZN7netlist24create_elem_if_necessaryERSs+0x302>
  4048e9:	48 8d 75 af          	lea    -0x51(%rbp),%rsi
  4048ed:	e8 6e f5 ff ff       	callq  403e60 <_ZNSs4_Rep10_M_disposeERKSaIcE.part.1>
  4048f2:	48 89 df             	mov    %rbx,%rdi
  4048f5:	e8 f6 e5 ff ff       	callq  402ef0 <_Unwind_Resume@plt>
  4048fa:	bf 98 8a 40 00       	mov    $0x408a98,%edi
  4048ff:	31 c0                	xor    %eax,%eax
  404901:	e8 6a e2 ff ff       	callq  402b70 <_ZSt24__throw_out_of_range_fmtPKcz@plt>
  404906:	e8 95 e4 ff ff       	callq  402da0 <__stack_chk_fail@plt>
  40490b:	90                   	nop
  40490c:	0f 1f 40 00          	nopl   0x0(%rax)

0000000000404910 <_ZN7netlist22netlist_elem_from_nameERSs>:
  404910:	55                   	push   %rbp
  404911:	48 89 e5             	mov    %rsp,%rbp
  404914:	41 57                	push   %r15
  404916:	41 56                	push   %r14
  404918:	41 55                	push   %r13
  40491a:	41 54                	push   %r12
  40491c:	53                   	push   %rbx
  40491d:	48 83 ec 58          	sub    $0x58,%rsp
  404921:	4c 8b 77 50          	mov    0x50(%rdi),%r14
  404925:	48 89 7d 90          	mov    %rdi,-0x70(%rbp)
  404929:	64 48 8b 1c 25 28 00 	mov    %fs:0x28,%rbx
  404930:	00 00 
  404932:	48 89 5d c8          	mov    %rbx,-0x38(%rbp)
  404936:	31 db                	xor    %ebx,%ebx
  404938:	48 8d 5f 48          	lea    0x48(%rdi),%rbx
  40493c:	48 89 75 88          	mov    %rsi,-0x78(%rbp)
  404940:	4d 85 f6             	test   %r14,%r14
  404943:	48 89 5d 98          	mov    %rbx,-0x68(%rbp)
  404947:	0f 84 43 01 00 00    	je     404a90 <_ZN7netlist22netlist_elem_from_nameERSs+0x180>
  40494d:	4c 8b 26             	mov    (%rsi),%r12
  404950:	4d 8b 7c 24 e8       	mov    -0x18(%r12),%r15
  404955:	eb 1b                	jmp    404972 <_ZN7netlist22netlist_elem_from_nameERSs+0x62>
  404957:	66 0f 1f 84 00 00 00 	nopw   0x0(%rax,%rax,1)
  40495e:	00 00 
  404960:	89 c8                	mov    %ecx,%eax
  404962:	85 c0                	test   %eax,%eax
  404964:	78 42                	js     4049a8 <_ZN7netlist22netlist_elem_from_nameERSs+0x98>
  404966:	4c 89 f3             	mov    %r14,%rbx
  404969:	4d 8b 76 10          	mov    0x10(%r14),%r14
  40496d:	4d 85 f6             	test   %r14,%r14
  404970:	74 3f                	je     4049b1 <_ZN7netlist22netlist_elem_from_nameERSs+0xa1>
  404972:	49 8b 7e 20          	mov    0x20(%r14),%rdi
  404976:	4c 89 fa             	mov    %r15,%rdx
  404979:	4c 89 e6             	mov    %r12,%rsi
  40497c:	4c 8b 6f e8          	mov    -0x18(%rdi),%r13
  404980:	4d 39 fd             	cmp    %r15,%r13
  404983:	49 0f 46 d5          	cmovbe %r13,%rdx
  404987:	e8 74 e4 ff ff       	callq  402e00 <memcmp@plt>
  40498c:	85 c0                	test   %eax,%eax
  40498e:	75 d2                	jne    404962 <_ZN7netlist22netlist_elem_from_nameERSs+0x52>
  404990:	4c 89 e9             	mov    %r13,%rcx
  404993:	4c 29 f9             	sub    %r15,%rcx
  404996:	48 81 f9 ff ff ff 7f 	cmp    $0x7fffffff,%rcx
  40499d:	7f c7                	jg     404966 <_ZN7netlist22netlist_elem_from_nameERSs+0x56>
  40499f:	48 81 f9 00 00 00 80 	cmp    $0xffffffff80000000,%rcx
  4049a6:	7d b8                	jge    404960 <_ZN7netlist22netlist_elem_from_nameERSs+0x50>
  4049a8:	4d 8b 76 18          	mov    0x18(%r14),%r14
  4049ac:	4d 85 f6             	test   %r14,%r14
  4049af:	75 c1                	jne    404972 <_ZN7netlist22netlist_elem_from_nameERSs+0x62>
  4049b1:	48 39 5d 98          	cmp    %rbx,-0x68(%rbp)
  4049b5:	74 69                	je     404a20 <_ZN7netlist22netlist_elem_from_nameERSs+0x110>
  4049b7:	48 8b 73 20          	mov    0x20(%rbx),%rsi
  4049bb:	4c 89 fa             	mov    %r15,%rdx
  4049be:	4c 89 e7             	mov    %r12,%rdi
  4049c1:	4c 8b 76 e8          	mov    -0x18(%rsi),%r14
  4049c5:	4d 39 fe             	cmp    %r15,%r14
  4049c8:	49 0f 46 d6          	cmovbe %r14,%rdx
  4049cc:	e8 2f e4 ff ff       	callq  402e00 <memcmp@plt>
  4049d1:	85 c0                	test   %eax,%eax
  4049d3:	75 47                	jne    404a1c <_ZN7netlist22netlist_elem_from_nameERSs+0x10c>
  4049d5:	4d 89 f9             	mov    %r15,%r9
  4049d8:	4d 29 f1             	sub    %r14,%r9
  4049db:	49 81 f9 ff ff ff 7f 	cmp    $0x7fffffff,%r9
  4049e2:	7e 2c                	jle    404a10 <_ZN7netlist22netlist_elem_from_nameERSs+0x100>
  4049e4:	48 8b 75 c8          	mov    -0x38(%rbp),%rsi
  4049e8:	64 48 33 34 25 28 00 	xor    %fs:0x28,%rsi
  4049ef:	00 00 
  4049f1:	48 8b 43 28          	mov    0x28(%rbx),%rax
  4049f5:	0f 85 a8 00 00 00    	jne    404aa3 <_ZN7netlist22netlist_elem_from_nameERSs+0x193>
  4049fb:	48 83 c4 58          	add    $0x58,%rsp
  4049ff:	5b                   	pop    %rbx
  404a00:	41 5c                	pop    %r12
  404a02:	41 5d                	pop    %r13
  404a04:	41 5e                	pop    %r14
  404a06:	41 5f                	pop    %r15
  404a08:	5d                   	pop    %rbp
  404a09:	c3                   	retq   
  404a0a:	66 0f 1f 44 00 00    	nopw   0x0(%rax,%rax,1)
  404a10:	49 81 f9 00 00 00 80 	cmp    $0xffffffff80000000,%r9
  404a17:	7c 07                	jl     404a20 <_ZN7netlist22netlist_elem_from_nameERSs+0x110>
  404a19:	44 89 c8             	mov    %r9d,%eax
  404a1c:	85 c0                	test   %eax,%eax
  404a1e:	79 c4                	jns    4049e4 <_ZN7netlist22netlist_elem_from_nameERSs+0xd4>
  404a20:	48 8b 75 88          	mov    -0x78(%rbp),%rsi
  404a24:	48 8d 7d b0          	lea    -0x50(%rbp),%rdi
  404a28:	e8 23 e2 ff ff       	callq  402c50 <_ZNSsC1ERKSs@plt>
  404a2d:	48 8b 7d 90          	mov    -0x70(%rbp),%rdi
  404a31:	48 8d 55 b0          	lea    -0x50(%rbp),%rdx
  404a35:	48 89 de             	mov    %rbx,%rsi
  404a38:	48 c7 45 b8 00 00 00 	movq   $0x0,-0x48(%rbp)
  404a3f:	00 
  404a40:	48 83 c7 40          	add    $0x40,%rdi
  404a44:	e8 27 18 00 00       	callq  406270 <_ZNSt8_Rb_treeISsSt4pairIKSsP12netlist_elemESt10_Select1stIS4_ESt4lessISsESaIS4_EE17_M_insert_unique_ESt23_Rb_tree_const_iteratorIS4_ERKS4_>
  404a49:	48 89 c3             	mov    %rax,%rbx
  404a4c:	48 8b 45 b0          	mov    -0x50(%rbp),%rax
  404a50:	48 8d 78 e8          	lea    -0x18(%rax),%rdi
  404a54:	48 81 ff 80 a5 60 00 	cmp    $0x60a580,%rdi
  404a5b:	74 87                	je     4049e4 <_ZN7netlist22netlist_elem_from_nameERSs+0xd4>
  404a5d:	ba b0 2e 40 00       	mov    $0x402eb0,%edx
  404a62:	48 85 d2             	test   %rdx,%rdx
  404a65:	74 2f                	je     404a96 <_ZN7netlist22netlist_elem_from_nameERSs+0x186>
  404a67:	ba ff ff ff ff       	mov    $0xffffffff,%edx
  404a6c:	f0 0f c1 50 f8       	lock xadd %edx,-0x8(%rax)
  404a71:	89 d0                	mov    %edx,%eax
  404a73:	85 c0                	test   %eax,%eax
  404a75:	0f 8f 69 ff ff ff    	jg     4049e4 <_ZN7netlist22netlist_elem_from_nameERSs+0xd4>
  404a7b:	48 8d 75 af          	lea    -0x51(%rbp),%rsi
  404a7f:	e8 4c e2 ff ff       	callq  402cd0 <_ZNSs4_Rep10_M_destroyERKSaIcE@plt>
  404a84:	e9 5b ff ff ff       	jmpq   4049e4 <_ZN7netlist22netlist_elem_from_nameERSs+0xd4>
  404a89:	0f 1f 80 00 00 00 00 	nopl   0x0(%rax)
  404a90:	48 8b 5d 98          	mov    -0x68(%rbp),%rbx
  404a94:	eb 8a                	jmp    404a20 <_ZN7netlist22netlist_elem_from_nameERSs+0x110>
  404a96:	8b 50 f8             	mov    -0x8(%rax),%edx
  404a99:	8d 4a ff             	lea    -0x1(%rdx),%ecx
  404a9c:	89 48 f8             	mov    %ecx,-0x8(%rax)
  404a9f:	89 d0                	mov    %edx,%eax
  404aa1:	eb d0                	jmp    404a73 <_ZN7netlist22netlist_elem_from_nameERSs+0x163>
  404aa3:	e8 f8 e2 ff ff       	callq  402da0 <__stack_chk_fail@plt>
  404aa8:	48 89 c3             	mov    %rax,%rbx
  404aab:	48 8b 45 b0          	mov    -0x50(%rbp),%rax
  404aaf:	48 8d 78 e8          	lea    -0x18(%rax),%rdi
  404ab3:	48 81 ff 80 a5 60 00 	cmp    $0x60a580,%rdi
  404aba:	74 09                	je     404ac5 <_ZN7netlist22netlist_elem_from_nameERSs+0x1b5>
  404abc:	48 8d 75 af          	lea    -0x51(%rbp),%rsi
  404ac0:	e8 9b f3 ff ff       	callq  403e60 <_ZNSs4_Rep10_M_disposeERKSaIcE.part.1>
  404ac5:	48 89 df             	mov    %rbx,%rdi
  404ac8:	e8 23 e4 ff ff       	callq  402ef0 <_Unwind_Resume@plt>
  404acd:	90                   	nop
  404ace:	66 90                	xchg   %ax,%ax

0000000000404ad0 <_ZN7netlistC1ERKSs>:
  404ad0:	55                   	push   %rbp
  404ad1:	ba 0d 00 00 00       	mov    $0xd,%edx
  404ad6:	48 89 e5             	mov    %rsp,%rbp
  404ad9:	41 57                	push   %r15
  404adb:	41 56                	push   %r14
  404add:	41 55                	push   %r13
  404adf:	41 54                	push   %r12
  404ae1:	49 89 f5             	mov    %rsi,%r13
  404ae4:	53                   	push   %rbx
  404ae5:	be 29 8a 40 00       	mov    $0x408a29,%esi
  404aea:	48 89 fb             	mov    %rdi,%rbx
  404aed:	48 81 ec b8 02 00 00 	sub    $0x2b8,%rsp
  404af4:	48 c7 47 10 00 00 00 	movq   $0x0,0x10(%rdi)
  404afb:	00 
  404afc:	48 c7 47 18 00 00 00 	movq   $0x0,0x18(%rdi)
  404b03:	00 
  404b04:	64 48 8b 04 25 28 00 	mov    %fs:0x28,%rax
  404b0b:	00 00 
  404b0d:	48 89 45 c8          	mov    %rax,-0x38(%rbp)
  404b11:	31 c0                	xor    %eax,%eax
  404b13:	48 8d 47 48          	lea    0x48(%rdi),%rax
  404b17:	48 c7 47 20 00 00 00 	movq   $0x0,0x20(%rdi)
  404b1e:	00 
  404b1f:	48 c7 47 28 00 00 00 	movq   $0x0,0x28(%rdi)
  404b26:	00 
  404b27:	48 c7 47 30 00 00 00 	movq   $0x0,0x30(%rdi)
  404b2e:	00 
  404b2f:	48 c7 47 38 00 00 00 	movq   $0x0,0x38(%rdi)
  404b36:	00 
  404b37:	c7 47 48 00 00 00 00 	movl   $0x0,0x48(%rdi)
  404b3e:	48 c7 47 50 00 00 00 	movq   $0x0,0x50(%rdi)
  404b45:	00 
  404b46:	48 c7 47 68 00 00 00 	movq   $0x0,0x68(%rdi)
  404b4d:	00 
  404b4e:	48 89 47 58          	mov    %rax,0x58(%rdi)
  404b52:	48 89 47 60          	mov    %rax,0x60(%rdi)
  404b56:	bf c0 a3 60 00       	mov    $0x60a3c0,%edi
  404b5b:	e8 f0 e1 ff ff       	callq  402d50 <_ZSt16__ostream_insertIcSt11char_traitsIcEERSt13basic_ostreamIT_T0_ES6_PKS3_l@plt>
  404b60:	48 8b 05 59 58 20 00 	mov    0x205859(%rip),%rax        # 60a3c0 <_ZSt4cout@@GLIBCXX_3.4>
  404b67:	48 8b 40 e8          	mov    -0x18(%rax),%rax
  404b6b:	4c 8b a0 b0 a4 60 00 	mov    0x60a4b0(%rax),%r12
  404b72:	4d 85 e4             	test   %r12,%r12
  404b75:	0f 84 ca 09 00 00    	je     405545 <_ZN7netlistC1ERKSs+0xa75>
  404b7b:	41 80 7c 24 38 00    	cmpb   $0x0,0x38(%r12)
  404b81:	0f 84 90 09 00 00    	je     405517 <_ZN7netlistC1ERKSs+0xa47>
  404b87:	41 0f be 74 24 43    	movsbl 0x43(%r12),%esi
  404b8d:	bf c0 a3 60 00       	mov    $0x60a3c0,%edi
  404b92:	e8 79 e3 ff ff       	callq  402f10 <_ZNSo3putEc@plt>
  404b97:	48 89 c7             	mov    %rax,%rdi
  404b9a:	e8 f1 e1 ff ff       	callq  402d90 <_ZNSo5flushEv@plt>
  404b9f:	48 8d 85 c0 fd ff ff 	lea    -0x240(%rbp),%rax
  404ba6:	4d 8b 65 00          	mov    0x0(%r13),%r12
  404baa:	48 8d b8 00 01 00 00 	lea    0x100(%rax),%rdi
  404bb1:	e8 ca df ff ff       	callq  402b80 <_ZNSt8ios_baseC2Ev@plt>
  404bb6:	4c 8b 3d 2b 59 20 00 	mov    0x20592b(%rip),%r15        # 60a4e8 <_ZTTSt14basic_ifstreamIcSt11char_traitsIcEE@@GLIBCXX_3.4+0x8>
  404bbd:	c6 45 a0 00          	movb   $0x0,-0x60(%rbp)
  404bc1:	48 8d bd c0 fd ff ff 	lea    -0x240(%rbp),%rdi
  404bc8:	48 8b 0d 21 59 20 00 	mov    0x205921(%rip),%rcx        # 60a4f0 <_ZTTSt14basic_ifstreamIcSt11char_traitsIcEE@@GLIBCXX_3.4+0x10>
  404bcf:	48 c7 85 c0 fe ff ff 	movq   $0x60a250,-0x140(%rbp)
  404bd6:	50 a2 60 00 
  404bda:	31 f6                	xor    %esi,%esi
  404bdc:	48 c7 45 98 00 00 00 	movq   $0x0,-0x68(%rbp)
  404be3:	00 
  404be4:	c6 45 a1 00          	movb   $0x0,-0x5f(%rbp)
  404be8:	49 8b 47 e8          	mov    -0x18(%r15),%rax
  404bec:	48 c7 45 a8 00 00 00 	movq   $0x0,-0x58(%rbp)
  404bf3:	00 
  404bf4:	48 c7 45 b0 00 00 00 	movq   $0x0,-0x50(%rbp)
  404bfb:	00 
  404bfc:	48 c7 45 b8 00 00 00 	movq   $0x0,-0x48(%rbp)
  404c03:	00 
  404c04:	48 c7 45 c0 00 00 00 	movq   $0x0,-0x40(%rbp)
  404c0b:	00 
  404c0c:	4c 89 bd c0 fd ff ff 	mov    %r15,-0x240(%rbp)
  404c13:	48 89 8c 05 c0 fd ff 	mov    %rcx,-0x240(%rbp,%rax,1)
  404c1a:	ff 
  404c1b:	48 c7 85 c8 fd ff ff 	movq   $0x0,-0x238(%rbp)
  404c22:	00 00 00 00 
  404c26:	49 03 7f e8          	add    -0x18(%r15),%rdi
  404c2a:	e8 41 e1 ff ff       	callq  402d70 <_ZNSt9basic_iosIcSt11char_traitsIcEE4initEPSt15basic_streambufIcS1_E@plt>
  404c2f:	48 8d 85 c0 fd ff ff 	lea    -0x240(%rbp),%rax
  404c36:	48 c7 85 c0 fd ff ff 	movq   $0x60a358,-0x240(%rbp)
  404c3d:	58 a3 60 00 
  404c41:	48 c7 85 c0 fe ff ff 	movq   $0x60a380,-0x140(%rbp)
  404c48:	80 a3 60 00 
  404c4c:	48 8d 78 10          	lea    0x10(%rax),%rdi
  404c50:	e8 cb e1 ff ff       	callq  402e20 <_ZNSt13basic_filebufIcSt11char_traitsIcEEC1Ev@plt>
  404c55:	48 8d 85 c0 fd ff ff 	lea    -0x240(%rbp),%rax
  404c5c:	48 8d 70 10          	lea    0x10(%rax),%rsi
  404c60:	48 8d b8 00 01 00 00 	lea    0x100(%rax),%rdi
  404c67:	e8 04 e1 ff ff       	callq  402d70 <_ZNSt9basic_iosIcSt11char_traitsIcEE4initEPSt15basic_streambufIcS1_E@plt>
  404c6c:	48 8d 85 c0 fd ff ff 	lea    -0x240(%rbp),%rax
  404c73:	ba 08 00 00 00       	mov    $0x8,%edx
  404c78:	4c 89 e6             	mov    %r12,%rsi
  404c7b:	48 8d 78 10          	lea    0x10(%rax),%rdi
  404c7f:	e8 ec df ff ff       	callq  402c70 <_ZNSt13basic_filebufIcSt11char_traitsIcEE4openEPKcSt13_Ios_Openmode@plt>
  404c84:	48 85 c0             	test   %rax,%rax
  404c87:	48 8d bd c0 fd ff ff 	lea    -0x240(%rbp),%rdi
  404c8e:	48 8b 85 c0 fd ff ff 	mov    -0x240(%rbp),%rax
  404c95:	0f 84 0e 08 00 00    	je     4054a9 <_ZN7netlistC1ERKSs+0x9d9>
  404c9b:	48 03 78 e8          	add    -0x18(%rax),%rdi
  404c9f:	31 f6                	xor    %esi,%esi
  404ca1:	e8 6a e1 ff ff       	callq  402e10 <_ZNSt9basic_iosIcSt11char_traitsIcEE5clearESt12_Ios_Iostate@plt>
  404ca6:	ba 0c 00 00 00       	mov    $0xc,%edx
  404cab:	be 37 8a 40 00       	mov    $0x408a37,%esi
  404cb0:	bf c0 a3 60 00       	mov    $0x60a3c0,%edi
  404cb5:	e8 96 e0 ff ff       	callq  402d50 <_ZSt16__ostream_insertIcSt11char_traitsIcEERSt13basic_ostreamIT_T0_ES6_PKS3_l@plt>
  404cba:	48 8b 05 ff 56 20 00 	mov    0x2056ff(%rip),%rax        # 60a3c0 <_ZSt4cout@@GLIBCXX_3.4>
  404cc1:	48 8b 40 e8          	mov    -0x18(%rax),%rax
  404cc5:	4c 8b a0 b0 a4 60 00 	mov    0x60a4b0(%rax),%r12
  404ccc:	4d 85 e4             	test   %r12,%r12
  404ccf:	0f 84 bb 07 00 00    	je     405490 <_ZN7netlistC1ERKSs+0x9c0>
  404cd5:	41 80 7c 24 38 00    	cmpb   $0x0,0x38(%r12)
  404cdb:	0f 84 81 07 00 00    	je     405462 <_ZN7netlistC1ERKSs+0x992>
  404ce1:	41 0f be 74 24 43    	movsbl 0x43(%r12),%esi
  404ce7:	bf c0 a3 60 00       	mov    $0x60a3c0,%edi
  404cec:	e8 1f e2 ff ff       	callq  402f10 <_ZNSo3putEc@plt>
  404cf1:	48 89 c7             	mov    %rax,%rdi
  404cf4:	e8 97 e0 ff ff       	callq  402d90 <_ZNSo5flushEv@plt>
  404cf9:	48 8d bd c0 fd ff ff 	lea    -0x240(%rbp),%rdi
  404d00:	48 89 de             	mov    %rbx,%rsi
  404d03:	4c 8d 63 08          	lea    0x8(%rbx),%r12
  404d07:	4c 8d 6b 04          	lea    0x4(%rbx),%r13
  404d0b:	e8 80 de ff ff       	callq  402b90 <_ZNSi10_M_extractIjEERSiRT_@plt>
  404d10:	4c 89 ee             	mov    %r13,%rsi
  404d13:	48 89 c7             	mov    %rax,%rdi
  404d16:	e8 75 de ff ff       	callq  402b90 <_ZNSi10_M_extractIjEERSiRT_@plt>
  404d1b:	4c 89 e6             	mov    %r12,%rsi
  404d1e:	48 89 c7             	mov    %rax,%rdi
  404d21:	e8 6a de ff ff       	callq  402b90 <_ZNSi10_M_extractIjEERSiRT_@plt>
  404d26:	8b 43 08             	mov    0x8(%rbx),%eax
  404d29:	48 8d bd 80 fd ff ff 	lea    -0x280(%rbp),%rdi
  404d30:	0f af 43 04          	imul   0x4(%rbx),%eax
  404d34:	89 43 0c             	mov    %eax,0xc(%rbx)
  404d37:	e8 f4 38 00 00       	callq  408630 <_ZN12netlist_elemC1Ev>
  404d3c:	4c 8b 6b 18          	mov    0x18(%rbx),%r13
  404d40:	4c 8b 63 10          	mov    0x10(%rbx),%r12
  404d44:	48 8d 7b 10          	lea    0x10(%rbx),%rdi
  404d48:	8b 43 0c             	mov    0xc(%rbx),%eax
  404d4b:	4c 89 ea             	mov    %r13,%rdx
  404d4e:	4c 29 e2             	sub    %r12,%rdx
  404d51:	48 c1 fa 06          	sar    $0x6,%rdx
  404d55:	48 39 d0             	cmp    %rdx,%rax
  404d58:	0f 87 75 08 00 00    	ja     4055d3 <_ZN7netlistC1ERKSs+0xb03>
  404d5e:	0f 83 81 00 00 00    	jae    404de5 <_ZN7netlistC1ERKSs+0x315>
  404d64:	48 c1 e0 06          	shl    $0x6,%rax
  404d68:	49 01 c4             	add    %rax,%r12
  404d6b:	4d 39 e5             	cmp    %r12,%r13
  404d6e:	4d 89 e6             	mov    %r12,%r14
  404d71:	75 0e                	jne    404d81 <_ZN7netlistC1ERKSs+0x2b1>
  404d73:	eb 6c                	jmp    404de1 <_ZN7netlistC1ERKSs+0x311>
  404d75:	0f 1f 00             	nopl   (%rax)
  404d78:	49 83 c6 40          	add    $0x40,%r14
  404d7c:	4d 39 f5             	cmp    %r14,%r13
  404d7f:	74 60                	je     404de1 <_ZN7netlistC1ERKSs+0x311>
  404d81:	49 8b 7e 20          	mov    0x20(%r14),%rdi
  404d85:	48 85 ff             	test   %rdi,%rdi
  404d88:	74 05                	je     404d8f <_ZN7netlistC1ERKSs+0x2bf>
  404d8a:	e8 21 de ff ff       	callq  402bb0 <_ZdlPv@plt>
  404d8f:	49 8b 7e 08          	mov    0x8(%r14),%rdi
  404d93:	48 85 ff             	test   %rdi,%rdi
  404d96:	74 05                	je     404d9d <_ZN7netlistC1ERKSs+0x2cd>
  404d98:	e8 13 de ff ff       	callq  402bb0 <_ZdlPv@plt>
  404d9d:	49 8b 16             	mov    (%r14),%rdx
  404da0:	48 8d 7a e8          	lea    -0x18(%rdx),%rdi
  404da4:	48 81 ff 80 a5 60 00 	cmp    $0x60a580,%rdi
  404dab:	74 cb                	je     404d78 <_ZN7netlistC1ERKSs+0x2a8>
  404dad:	b8 b0 2e 40 00       	mov    $0x402eb0,%eax
  404db2:	48 8d 4f 10          	lea    0x10(%rdi),%rcx
  404db6:	48 85 c0             	test   %rax,%rax
  404db9:	0f 84 39 08 00 00    	je     4055f8 <_ZN7netlistC1ERKSs+0xb28>
  404dbf:	b8 ff ff ff ff       	mov    $0xffffffff,%eax
  404dc4:	f0 0f c1 01          	lock xadd %eax,(%rcx)
  404dc8:	85 c0                	test   %eax,%eax
  404dca:	7f ac                	jg     404d78 <_ZN7netlistC1ERKSs+0x2a8>
  404dcc:	48 8d b5 60 fd ff ff 	lea    -0x2a0(%rbp),%rsi
  404dd3:	49 83 c6 40          	add    $0x40,%r14
  404dd7:	e8 f4 de ff ff       	callq  402cd0 <_ZNSs4_Rep10_M_destroyERKSaIcE@plt>
  404ddc:	4d 39 f5             	cmp    %r14,%r13
  404ddf:	75 a0                	jne    404d81 <_ZN7netlistC1ERKSs+0x2b1>
  404de1:	4c 89 63 18          	mov    %r12,0x18(%rbx)
  404de5:	48 8b bd a0 fd ff ff 	mov    -0x260(%rbp),%rdi
  404dec:	48 85 ff             	test   %rdi,%rdi
  404def:	74 05                	je     404df6 <_ZN7netlistC1ERKSs+0x326>
  404df1:	e8 ba dd ff ff       	callq  402bb0 <_ZdlPv@plt>
  404df6:	48 8b bd 88 fd ff ff 	mov    -0x278(%rbp),%rdi
  404dfd:	48 85 ff             	test   %rdi,%rdi
  404e00:	74 05                	je     404e07 <_ZN7netlistC1ERKSs+0x337>
  404e02:	e8 a9 dd ff ff       	callq  402bb0 <_ZdlPv@plt>
  404e07:	48 8b 95 80 fd ff ff 	mov    -0x280(%rbp),%rdx
  404e0e:	48 8d 7a e8          	lea    -0x18(%rdx),%rdi
  404e12:	48 81 ff 80 a5 60 00 	cmp    $0x60a580,%rdi
  404e19:	0f 85 84 07 00 00    	jne    4055a3 <_ZN7netlistC1ERKSs+0xad3>
  404e1f:	ba 0c 00 00 00       	mov    $0xc,%edx
  404e24:	be 44 8a 40 00       	mov    $0x408a44,%esi
  404e29:	bf c0 a3 60 00       	mov    $0x60a3c0,%edi
  404e2e:	e8 1d df ff ff       	callq  402d50 <_ZSt16__ostream_insertIcSt11char_traitsIcEERSt13basic_ostreamIT_T0_ES6_PKS3_l@plt>
  404e33:	48 8b 05 86 55 20 00 	mov    0x205586(%rip),%rax        # 60a3c0 <_ZSt4cout@@GLIBCXX_3.4>
  404e3a:	48 8b 40 e8          	mov    -0x18(%rax),%rax
  404e3e:	4c 8b a0 b0 a4 60 00 	mov    0x60a4b0(%rax),%r12
  404e45:	4d 85 e4             	test   %r12,%r12
  404e48:	0f 84 3c 07 00 00    	je     40558a <_ZN7netlistC1ERKSs+0xaba>
  404e4e:	41 80 7c 24 38 00    	cmpb   $0x0,0x38(%r12)
  404e54:	0f 84 02 07 00 00    	je     40555c <_ZN7netlistC1ERKSs+0xa8c>
  404e5a:	41 0f be 74 24 43    	movsbl 0x43(%r12),%esi
  404e60:	bf c0 a3 60 00       	mov    $0x60a3c0,%edi
  404e65:	e8 a6 e0 ff ff       	callq  402f10 <_ZNSo3putEc@plt>
  404e6a:	48 89 c7             	mov    %rax,%rdi
  404e6d:	e8 1e df ff ff       	callq  402d90 <_ZNSo5flushEv@plt>
  404e72:	44 8b 6b 08          	mov    0x8(%rbx),%r13d
  404e76:	4d 85 ed             	test   %r13,%r13
  404e79:	0f 85 4e 0b 00 00    	jne    4059cd <_ZN7netlistC1ERKSs+0xefd>
  404e7f:	48 c7 85 28 fd ff ff 	movq   $0x0,-0x2d8(%rbp)
  404e86:	00 00 00 00 
  404e8a:	45 31 ed             	xor    %r13d,%r13d
  404e8d:	31 d2                	xor    %edx,%edx
  404e8f:	49 89 d4             	mov    %rdx,%r12
  404e92:	31 c0                	xor    %eax,%eax
  404e94:	4e 8d 34 20          	lea    (%rax,%r12,1),%r14
  404e98:	4d 85 ed             	test   %r13,%r13
  404e9b:	48 89 85 60 fd ff ff 	mov    %rax,-0x2a0(%rbp)
  404ea2:	48 89 85 68 fd ff ff 	mov    %rax,-0x298(%rbp)
  404ea9:	4c 89 b5 70 fd ff ff 	mov    %r14,-0x290(%rbp)
  404eb0:	74 12                	je     404ec4 <_ZN7netlistC1ERKSs+0x3f4>
  404eb2:	48 8b b5 28 fd ff ff 	mov    -0x2d8(%rbp),%rsi
  404eb9:	4c 89 e2             	mov    %r12,%rdx
  404ebc:	48 89 c7             	mov    %rax,%rdi
  404ebf:	e8 9c de ff ff       	callq  402d60 <memmove@plt>
  404ec4:	4c 8b 63 30          	mov    0x30(%rbx),%r12
  404ec8:	48 8b 73 28          	mov    0x28(%rbx),%rsi
  404ecc:	48 8d 7b 28          	lea    0x28(%rbx),%rdi
  404ed0:	8b 43 04             	mov    0x4(%rbx),%eax
  404ed3:	4c 89 b5 68 fd ff ff 	mov    %r14,-0x298(%rbp)
  404eda:	4c 89 e2             	mov    %r12,%rdx
  404edd:	48 29 f2             	sub    %rsi,%rdx
  404ee0:	48 89 d1             	mov    %rdx,%rcx
  404ee3:	48 ba ab aa aa aa aa 	movabs $0xaaaaaaaaaaaaaaab,%rdx
  404eea:	aa aa aa 
  404eed:	48 c1 f9 03          	sar    $0x3,%rcx
  404ef1:	48 0f af d1          	imul   %rcx,%rdx
  404ef5:	48 39 d0             	cmp    %rdx,%rax
  404ef8:	0f 87 b5 0a 00 00    	ja     4059b3 <_ZN7netlistC1ERKSs+0xee3>
  404efe:	0f 82 6c 0b 00 00    	jb     405a70 <_ZN7netlistC1ERKSs+0xfa0>
  404f04:	48 8b bd 60 fd ff ff 	mov    -0x2a0(%rbp),%rdi
  404f0b:	48 85 ff             	test   %rdi,%rdi
  404f0e:	74 05                	je     404f15 <_ZN7netlistC1ERKSs+0x445>
  404f10:	e8 9b dc ff ff       	callq  402bb0 <_ZdlPv@plt>
  404f15:	8b 53 04             	mov    0x4(%rbx),%edx
  404f18:	85 d2                	test   %edx,%edx
  404f1a:	0f 84 16 01 00 00    	je     405036 <_ZN7netlistC1ERKSs+0x566>
  404f20:	45 31 e4             	xor    %r12d,%r12d
  404f23:	31 f6                	xor    %esi,%esi
  404f25:	45 31 d2             	xor    %r10d,%r10d
  404f28:	45 31 c9             	xor    %r9d,%r9d
  404f2b:	49 bd ab aa aa aa aa 	movabs $0xaaaaaaaaaaaaaaab,%r13
  404f32:	aa aa aa 
  404f35:	8b 43 08             	mov    0x8(%rbx),%eax
  404f38:	85 c0                	test   %eax,%eax
  404f3a:	0f 84 e0 00 00 00    	je     405020 <_ZN7netlistC1ERKSs+0x550>
  404f40:	48 8b 43 28          	mov    0x28(%rbx),%rax
  404f44:	48 8b 53 30          	mov    0x30(%rbx),%rdx
  404f48:	48 29 c2             	sub    %rax,%rdx
  404f4b:	48 c1 fa 03          	sar    $0x3,%rdx
  404f4f:	49 0f af d5          	imul   %r13,%rdx
  404f53:	48 39 d6             	cmp    %rdx,%rsi
  404f56:	0f 83 4b 0a 00 00    	jae    4059a7 <_ZN7netlistC1ERKSs+0xed7>
  404f5c:	4c 01 e0             	add    %r12,%rax
  404f5f:	48 8b 08             	mov    (%rax),%rcx
  404f62:	48 8b 40 08          	mov    0x8(%rax),%rax
  404f66:	48 29 c8             	sub    %rcx,%rax
  404f69:	48 c1 f8 03          	sar    $0x3,%rax
  404f6d:	48 85 c0             	test   %rax,%rax
  404f70:	0f 84 1d 0a 00 00    	je     405993 <_ZN7netlistC1ERKSs+0xec3>
  404f76:	45 31 c0             	xor    %r8d,%r8d
  404f79:	31 ff                	xor    %edi,%edi
  404f7b:	4c 8b 5b 10          	mov    0x10(%rbx),%r11
  404f7f:	48 8b 53 18          	mov    0x18(%rbx),%rdx
  404f83:	4a 8d 0c c1          	lea    (%rcx,%r8,8),%rcx
  404f87:	44 89 c8             	mov    %r9d,%eax
  404f8a:	44 89 11             	mov    %r10d,(%rcx)
  404f8d:	89 79 04             	mov    %edi,0x4(%rcx)
  404f90:	4c 29 da             	sub    %r11,%rdx
  404f93:	48 c1 fa 06          	sar    $0x6,%rdx
  404f97:	48 39 d0             	cmp    %rdx,%rax
  404f9a:	0f 83 e4 09 00 00    	jae    405984 <_ZN7netlistC1ERKSs+0xeb4>
  404fa0:	48 c1 e0 06          	shl    $0x6,%rax
  404fa4:	49 8d 54 03 38       	lea    0x38(%r11,%rax,1),%rdx
  404fa9:	0f 1f 80 00 00 00 00 	nopl   0x0(%rax)
  404fb0:	f0 48 0f b1 02       	lock cmpxchg %rax,(%rdx)
  404fb5:	48 3b 05 74 52 20 00 	cmp    0x205274(%rip),%rax        # 60a230 <_ZN7threads9AtomicPtrI10location_tE11ATOMIC_NULLE>
  404fbc:	74 f2                	je     404fb0 <_ZN7netlistC1ERKSs+0x4e0>
  404fbe:	f0 48 0f b1 0a       	lock cmpxchg %rcx,(%rdx)
  404fc3:	0f 94 c0             	sete   %al
  404fc6:	48 0f b6 c0          	movzbq %al,%rax
  404fca:	85 c0                	test   %eax,%eax
  404fcc:	74 e2                	je     404fb0 <_ZN7netlistC1ERKSs+0x4e0>
  404fce:	41 83 c1 01          	add    $0x1,%r9d
  404fd2:	83 c7 01             	add    $0x1,%edi
  404fd5:	3b 7b 08             	cmp    0x8(%rbx),%edi
  404fd8:	73 46                	jae    405020 <_ZN7netlistC1ERKSs+0x550>
  404fda:	48 8b 43 28          	mov    0x28(%rbx),%rax
  404fde:	48 8b 53 30          	mov    0x30(%rbx),%rdx
  404fe2:	49 83 c0 01          	add    $0x1,%r8
  404fe6:	48 29 c2             	sub    %rax,%rdx
  404fe9:	48 c1 fa 03          	sar    $0x3,%rdx
  404fed:	49 0f af d5          	imul   %r13,%rdx
  404ff1:	48 39 f2             	cmp    %rsi,%rdx
  404ff4:	0f 86 ad 09 00 00    	jbe    4059a7 <_ZN7netlistC1ERKSs+0xed7>
  404ffa:	4c 01 e0             	add    %r12,%rax
  404ffd:	48 8b 08             	mov    (%rax),%rcx
  405000:	48 8b 50 08          	mov    0x8(%rax),%rdx
  405004:	48 29 ca             	sub    %rcx,%rdx
  405007:	48 c1 fa 03          	sar    $0x3,%rdx
  40500b:	4c 39 c2             	cmp    %r8,%rdx
  40500e:	0f 87 67 ff ff ff    	ja     404f7b <_ZN7netlistC1ERKSs+0x4ab>
  405014:	e9 7f 09 00 00       	jmpq   405998 <_ZN7netlistC1ERKSs+0xec8>
  405019:	0f 1f 80 00 00 00 00 	nopl   0x0(%rax)
  405020:	41 83 c2 01          	add    $0x1,%r10d
  405024:	48 83 c6 01          	add    $0x1,%rsi
  405028:	49 83 c4 18          	add    $0x18,%r12
  40502c:	44 3b 53 04          	cmp    0x4(%rbx),%r10d
  405030:	0f 82 ff fe ff ff    	jb     404f35 <_ZN7netlistC1ERKSs+0x465>
  405036:	ba 0d 00 00 00       	mov    $0xd,%edx
  40503b:	be 51 8a 40 00       	mov    $0x408a51,%esi
  405040:	bf c0 a3 60 00       	mov    $0x60a3c0,%edi
  405045:	e8 06 dd ff ff       	callq  402d50 <_ZSt16__ostream_insertIcSt11char_traitsIcEERSt13basic_ostreamIT_T0_ES6_PKS3_l@plt>
  40504a:	48 8b 05 6f 53 20 00 	mov    0x20536f(%rip),%rax        # 60a3c0 <_ZSt4cout@@GLIBCXX_3.4>
  405051:	48 8b 40 e8          	mov    -0x18(%rax),%rax
  405055:	4c 8b a0 b0 a4 60 00 	mov    0x60a4b0(%rax),%r12
  40505c:	4d 85 e4             	test   %r12,%r12
  40505f:	0f 84 8f 0a 00 00    	je     405af4 <_ZN7netlistC1ERKSs+0x1024>
  405065:	41 80 7c 24 38 00    	cmpb   $0x0,0x38(%r12)
  40506b:	0f 84 55 0a 00 00    	je     405ac6 <_ZN7netlistC1ERKSs+0xff6>
  405071:	41 0f be 74 24 43    	movsbl 0x43(%r12),%esi
  405077:	bf c0 a3 60 00       	mov    $0x60a3c0,%edi
  40507c:	e8 8f de ff ff       	callq  402f10 <_ZNSo3putEc@plt>
  405081:	48 89 c7             	mov    %rax,%rdi
  405084:	e8 07 dd ff ff       	callq  402d90 <_ZNSo5flushEv@plt>
  405089:	f6 85 e0 fe ff ff 02 	testb  $0x2,-0x120(%rbp)
  405090:	0f 85 25 0a 00 00    	jne    405abb <_ZN7netlistC1ERKSs+0xfeb>
  405096:	41 bc 01 00 00 00    	mov    $0x1,%r12d
  40509c:	48 8d b5 40 fd ff ff 	lea    -0x2c0(%rbp),%rsi
  4050a3:	48 8d bd c0 fd ff ff 	lea    -0x240(%rbp),%rdi
  4050aa:	48 c7 85 40 fd ff ff 	movq   $0x60a598,-0x2c0(%rbp)
  4050b1:	98 a5 60 00 
  4050b5:	e8 06 dc ff ff       	callq  402cc0 <_ZStrsIcSt11char_traitsIcESaIcEERSt13basic_istreamIT_T0_ES7_RSbIS4_S5_T1_E@plt>
  4050ba:	48 8d b5 40 fd ff ff 	lea    -0x2c0(%rbp),%rsi
  4050c1:	48 89 df             	mov    %rbx,%rdi
  4050c4:	e8 27 f5 ff ff       	callq  4045f0 <_ZN7netlist24create_elem_if_necessaryERSs>
  4050c9:	48 8d b5 40 fd ff ff 	lea    -0x2c0(%rbp),%rsi
  4050d0:	48 89 c7             	mov    %rax,%rdi
  4050d3:	48 89 85 60 fd ff ff 	mov    %rax,-0x2a0(%rbp)
  4050da:	e8 01 dd ff ff       	callq  402de0 <_ZNSs6assignERKSs@plt>
  4050df:	48 8d b5 3c fd ff ff 	lea    -0x2c4(%rbp),%rsi
  4050e6:	48 8d bd c0 fd ff ff 	lea    -0x240(%rbp),%rdi
  4050ed:	e8 de dc ff ff       	callq  402dd0 <_ZNSirsERi@plt>
  4050f2:	48 c7 85 50 fd ff ff 	movq   $0x60a598,-0x2b0(%rbp)
  4050f9:	98 a5 60 00 
  4050fd:	e9 88 00 00 00       	jmpq   40518a <_ZN7netlistC1ERKSs+0x6ba>
  405102:	48 8d bd 50 fd ff ff 	lea    -0x2b0(%rbp),%rdi
  405109:	be 8f 8a 40 00       	mov    $0x408a8f,%esi
  40510e:	e8 dd db ff ff       	callq  402cf0 <_ZNKSs7compareEPKc@plt>
  405113:	85 c0                	test   %eax,%eax
  405115:	0f 84 94 00 00 00    	je     4051af <_ZN7netlistC1ERKSs+0x6df>
  40511b:	48 8d b5 50 fd ff ff 	lea    -0x2b0(%rbp),%rsi
  405122:	48 89 df             	mov    %rbx,%rdi
  405125:	e8 c6 f4 ff ff       	callq  4045f0 <_ZN7netlist24create_elem_if_necessaryERSs>
  40512a:	48 8b 95 60 fd ff ff 	mov    -0x2a0(%rbp),%rdx
  405131:	48 89 85 80 fd ff ff 	mov    %rax,-0x280(%rbp)
  405138:	48 8b 72 10          	mov    0x10(%rdx),%rsi
  40513c:	48 3b 72 18          	cmp    0x18(%rdx),%rsi
  405140:	0f 84 4f 05 00 00    	je     405695 <_ZN7netlistC1ERKSs+0xbc5>
  405146:	48 85 f6             	test   %rsi,%rsi
  405149:	74 0e                	je     405159 <_ZN7netlistC1ERKSs+0x689>
  40514b:	48 89 06             	mov    %rax,(%rsi)
  40514e:	48 8b 72 10          	mov    0x10(%rdx),%rsi
  405152:	48 8b 85 80 fd ff ff 	mov    -0x280(%rbp),%rax
  405159:	48 83 c6 08          	add    $0x8,%rsi
  40515d:	48 89 72 10          	mov    %rsi,0x10(%rdx)
  405161:	48 8b 70 28          	mov    0x28(%rax),%rsi
  405165:	48 3b 70 30          	cmp    0x30(%rax),%rsi
  405169:	0f 84 11 05 00 00    	je     405680 <_ZN7netlistC1ERKSs+0xbb0>
  40516f:	48 85 f6             	test   %rsi,%rsi
  405172:	74 0e                	je     405182 <_ZN7netlistC1ERKSs+0x6b2>
  405174:	48 8b 95 60 fd ff ff 	mov    -0x2a0(%rbp),%rdx
  40517b:	48 89 16             	mov    %rdx,(%rsi)
  40517e:	48 8b 70 28          	mov    0x28(%rax),%rsi
  405182:	48 83 c6 08          	add    $0x8,%rsi
  405186:	48 89 70 28          	mov    %rsi,0x28(%rax)
  40518a:	48 8d b5 50 fd ff ff 	lea    -0x2b0(%rbp),%rsi
  405191:	48 8d bd c0 fd ff ff 	lea    -0x240(%rbp),%rdi
  405198:	e8 23 db ff ff       	callq  402cc0 <_ZStrsIcSt11char_traitsIcESaIcEERSt13basic_istreamIT_T0_ES7_RSbIS4_S5_T1_E@plt>
  40519d:	48 8b 10             	mov    (%rax),%rdx
  4051a0:	48 8b 52 e8          	mov    -0x18(%rdx),%rdx
  4051a4:	f6 44 10 20 05       	testb  $0x5,0x20(%rax,%rdx,1)
  4051a9:	0f 84 53 ff ff ff    	je     405102 <_ZN7netlistC1ERKSs+0x632>
  4051af:	48 8b 95 50 fd ff ff 	mov    -0x2b0(%rbp),%rdx
  4051b6:	48 8d 7a e8          	lea    -0x18(%rdx),%rdi
  4051ba:	48 81 ff 80 a5 60 00 	cmp    $0x60a580,%rdi
  4051c1:	0f 85 77 07 00 00    	jne    40593e <_ZN7netlistC1ERKSs+0xe6e>
  4051c7:	48 8b 95 40 fd ff ff 	mov    -0x2c0(%rbp),%rdx
  4051ce:	48 8d 7a e8          	lea    -0x18(%rdx),%rdi
  4051d2:	48 81 ff 80 a5 60 00 	cmp    $0x60a580,%rdi
  4051d9:	0f 85 2f 07 00 00    	jne    40590e <_ZN7netlistC1ERKSs+0xe3e>
  4051df:	f6 85 e0 fe ff ff 02 	testb  $0x2,-0x120(%rbp)
  4051e6:	0f 85 b2 05 00 00    	jne    40579e <_ZN7netlistC1ERKSs+0xcce>
  4051ec:	41 83 c4 01          	add    $0x1,%r12d
  4051f0:	ba 89 b5 f8 14       	mov    $0x14f8b589,%edx
  4051f5:	44 89 e0             	mov    %r12d,%eax
  4051f8:	f7 ea                	imul   %edx
  4051fa:	89 d0                	mov    %edx,%eax
  4051fc:	44 89 e2             	mov    %r12d,%edx
  4051ff:	c1 f8 0d             	sar    $0xd,%eax
  405202:	c1 fa 1f             	sar    $0x1f,%edx
  405205:	29 d0                	sub    %edx,%eax
  405207:	69 c0 a0 86 01 00    	imul   $0x186a0,%eax,%eax
  40520d:	41 39 c4             	cmp    %eax,%r12d
  405210:	0f 85 86 fe ff ff    	jne    40509c <_ZN7netlistC1ERKSs+0x5cc>
  405216:	ba 12 00 00 00       	mov    $0x12,%edx
  40521b:	be 5f 8a 40 00       	mov    $0x408a5f,%esi
  405220:	bf c0 a3 60 00       	mov    $0x60a3c0,%edi
  405225:	e8 26 db ff ff       	callq  402d50 <_ZSt16__ostream_insertIcSt11char_traitsIcEERSt13basic_ostreamIT_T0_ES6_PKS3_l@plt>
  40522a:	44 89 e6             	mov    %r12d,%esi
  40522d:	bf c0 a3 60 00       	mov    $0x60a3c0,%edi
  405232:	e8 19 d9 ff ff       	callq  402b50 <_ZNSolsEi@plt>
  405237:	49 89 c6             	mov    %rax,%r14
  40523a:	48 8b 00             	mov    (%rax),%rax
  40523d:	48 8b 40 e8          	mov    -0x18(%rax),%rax
  405241:	4d 8b ac 06 f0 00 00 	mov    0xf0(%r14,%rax,1),%r13
  405248:	00 
  405249:	4d 85 ed             	test   %r13,%r13
  40524c:	0f 84 47 05 00 00    	je     405799 <_ZN7netlistC1ERKSs+0xcc9>
  405252:	41 80 7d 38 00       	cmpb   $0x0,0x38(%r13)
  405257:	0f 84 54 04 00 00    	je     4056b1 <_ZN7netlistC1ERKSs+0xbe1>
  40525d:	41 0f be 75 43       	movsbl 0x43(%r13),%esi
  405262:	4c 89 f7             	mov    %r14,%rdi
  405265:	e8 a6 dc ff ff       	callq  402f10 <_ZNSo3putEc@plt>
  40526a:	48 89 c7             	mov    %rax,%rdi
  40526d:	e8 1e db ff ff       	callq  402d90 <_ZNSo5flushEv@plt>
  405272:	e9 25 fe ff ff       	jmpq   40509c <_ZN7netlistC1ERKSs+0x5cc>
  405277:	49 89 c4             	mov    %rax,%r12
  40527a:	48 8d 85 c0 fd ff ff 	lea    -0x240(%rbp),%rax
  405281:	48 c7 85 c0 fd ff ff 	movq   $0x60a358,-0x240(%rbp)
  405288:	58 a3 60 00 
  40528c:	48 c7 85 c0 fe ff ff 	movq   $0x60a380,-0x140(%rbp)
  405293:	80 a3 60 00 
  405297:	48 c7 85 d0 fd ff ff 	movq   $0x60a290,-0x230(%rbp)
  40529e:	90 a2 60 00 
  4052a2:	48 8d 78 10          	lea    0x10(%rax),%rdi
  4052a6:	e8 75 dc ff ff       	callq  402f20 <_ZNSt13basic_filebufIcSt11char_traitsIcEE5closeEv@plt>
  4052ab:	48 8d 85 c0 fd ff ff 	lea    -0x240(%rbp),%rax
  4052b2:	48 8d 78 78          	lea    0x78(%rax),%rdi
  4052b6:	e8 05 db ff ff       	callq  402dc0 <_ZNSt12__basic_fileIcED1Ev@plt>
  4052bb:	48 8d 85 c0 fd ff ff 	lea    -0x240(%rbp),%rax
  4052c2:	48 c7 85 d0 fd ff ff 	movq   $0x60a510,-0x230(%rbp)
  4052c9:	10 a5 60 00 
  4052cd:	48 8d 78 48          	lea    0x48(%rax),%rdi
  4052d1:	e8 2a dc ff ff       	callq  402f00 <_ZNSt6localeD1Ev@plt>
  4052d6:	49 8b 47 e8          	mov    -0x18(%r15),%rax
  4052da:	48 8b 0d 0f 52 20 00 	mov    0x20520f(%rip),%rcx        # 60a4f0 <_ZTTSt14basic_ifstreamIcSt11char_traitsIcEE@@GLIBCXX_3.4+0x10>
  4052e1:	4c 89 bd c0 fd ff ff 	mov    %r15,-0x240(%rbp)
  4052e8:	48 89 8c 05 c0 fd ff 	mov    %rcx,-0x240(%rbp,%rax,1)
  4052ef:	ff 
  4052f0:	48 8d 85 c0 fd ff ff 	lea    -0x240(%rbp),%rax
  4052f7:	48 c7 85 c0 fe ff ff 	movq   $0x60a250,-0x140(%rbp)
  4052fe:	50 a2 60 00 
  405302:	48 8d b8 00 01 00 00 	lea    0x100(%rax),%rdi
  405309:	e8 a2 da ff ff       	callq  402db0 <_ZNSt8ios_baseD2Ev@plt>
  40530e:	48 8b 73 50          	mov    0x50(%rbx),%rsi
  405312:	48 8d 7b 40          	lea    0x40(%rbx),%rdi
  405316:	e8 15 09 00 00       	callq  405c30 <_ZNSt8_Rb_treeISsSt4pairIKSsP12netlist_elemESt10_Select1stIS4_ESt4lessISsESaIS4_EE8_M_eraseEPSt13_Rb_tree_nodeIS4_E>
  40531b:	4c 8b 6b 30          	mov    0x30(%rbx),%r13
  40531f:	4c 8b 73 28          	mov    0x28(%rbx),%r14
  405323:	4d 39 f5             	cmp    %r14,%r13
  405326:	74 1a                	je     405342 <_ZN7netlistC1ERKSs+0x872>
  405328:	49 8b 3e             	mov    (%r14),%rdi
  40532b:	48 85 ff             	test   %rdi,%rdi
  40532e:	74 05                	je     405335 <_ZN7netlistC1ERKSs+0x865>
  405330:	e8 7b d8 ff ff       	callq  402bb0 <_ZdlPv@plt>
  405335:	49 83 c6 18          	add    $0x18,%r14
  405339:	4d 39 f5             	cmp    %r14,%r13
  40533c:	75 ea                	jne    405328 <_ZN7netlistC1ERKSs+0x858>
  40533e:	4c 8b 6b 28          	mov    0x28(%rbx),%r13
  405342:	4d 85 ed             	test   %r13,%r13
  405345:	74 08                	je     40534f <_ZN7netlistC1ERKSs+0x87f>
  405347:	4c 89 ef             	mov    %r13,%rdi
  40534a:	e8 61 d8 ff ff       	callq  402bb0 <_ZdlPv@plt>
  40534f:	4c 8b 73 18          	mov    0x18(%rbx),%r14
  405353:	4c 8b 6b 10          	mov    0x10(%rbx),%r13
  405357:	4d 39 ee             	cmp    %r13,%r14
  40535a:	74 3a                	je     405396 <_ZN7netlistC1ERKSs+0x8c6>
  40535c:	49 8b 7d 20          	mov    0x20(%r13),%rdi
  405360:	48 85 ff             	test   %rdi,%rdi
  405363:	74 05                	je     40536a <_ZN7netlistC1ERKSs+0x89a>
  405365:	e8 46 d8 ff ff       	callq  402bb0 <_ZdlPv@plt>
  40536a:	49 8b 7d 08          	mov    0x8(%r13),%rdi
  40536e:	48 85 ff             	test   %rdi,%rdi
  405371:	74 05                	je     405378 <_ZN7netlistC1ERKSs+0x8a8>
  405373:	e8 38 d8 ff ff       	callq  402bb0 <_ZdlPv@plt>
  405378:	49 8b 55 00          	mov    0x0(%r13),%rdx
  40537c:	48 8d 7a e8          	lea    -0x18(%rdx),%rdi
  405380:	48 81 ff 80 a5 60 00 	cmp    $0x60a580,%rdi
  405387:	75 22                	jne    4053ab <_ZN7netlistC1ERKSs+0x8db>
  405389:	49 83 c5 40          	add    $0x40,%r13
  40538d:	4d 39 ee             	cmp    %r13,%r14
  405390:	75 ca                	jne    40535c <_ZN7netlistC1ERKSs+0x88c>
  405392:	4c 8b 73 10          	mov    0x10(%rbx),%r14
  405396:	4d 85 f6             	test   %r14,%r14
  405399:	74 08                	je     4053a3 <_ZN7netlistC1ERKSs+0x8d3>
  40539b:	4c 89 f7             	mov    %r14,%rdi
  40539e:	e8 0d d8 ff ff       	callq  402bb0 <_ZdlPv@plt>
  4053a3:	4c 89 e7             	mov    %r12,%rdi
  4053a6:	e8 45 db ff ff       	callq  402ef0 <_Unwind_Resume@plt>
  4053ab:	b8 b0 2e 40 00       	mov    $0x402eb0,%eax
  4053b0:	48 8d 4f 10          	lea    0x10(%rdi),%rcx
  4053b4:	48 85 c0             	test   %rax,%rax
  4053b7:	74 73                	je     40542c <_ZN7netlistC1ERKSs+0x95c>
  4053b9:	b8 ff ff ff ff       	mov    $0xffffffff,%eax
  4053be:	f0 0f c1 01          	lock xadd %eax,(%rcx)
  4053c2:	85 c0                	test   %eax,%eax
  4053c4:	7f c3                	jg     405389 <_ZN7netlistC1ERKSs+0x8b9>
  4053c6:	48 8d b5 50 fd ff ff 	lea    -0x2b0(%rbp),%rsi
  4053cd:	e8 fe d8 ff ff       	callq  402cd0 <_ZNSs4_Rep10_M_destroyERKSaIcE@plt>
  4053d2:	eb b5                	jmp    405389 <_ZN7netlistC1ERKSs+0x8b9>
  4053d4:	48 8d 85 c0 fd ff ff 	lea    -0x240(%rbp),%rax
  4053db:	48 c7 85 d0 fd ff ff 	movq   $0x60a510,-0x230(%rbp)
  4053e2:	10 a5 60 00 
  4053e6:	48 8d 78 48          	lea    0x48(%rax),%rdi
  4053ea:	e8 11 db ff ff       	callq  402f00 <_ZNSt6localeD1Ev@plt>
  4053ef:	49 8b 47 e8          	mov    -0x18(%r15),%rax
  4053f3:	48 8b 1d f6 50 20 00 	mov    0x2050f6(%rip),%rbx        # 60a4f0 <_ZTTSt14basic_ifstreamIcSt11char_traitsIcEE@@GLIBCXX_3.4+0x10>
  4053fa:	4c 89 bd c0 fd ff ff 	mov    %r15,-0x240(%rbp)
  405401:	48 89 9c 05 c0 fd ff 	mov    %rbx,-0x240(%rbp,%rax,1)
  405408:	ff 
  405409:	48 8d 85 c0 fd ff ff 	lea    -0x240(%rbp),%rax
  405410:	48 c7 85 c0 fe ff ff 	movq   $0x60a250,-0x140(%rbp)
  405417:	50 a2 60 00 
  40541b:	48 8d b8 00 01 00 00 	lea    0x100(%rax),%rdi
  405422:	e8 89 d9 ff ff       	callq  402db0 <_ZNSt8ios_baseD2Ev@plt>
  405427:	e8 e4 d8 ff ff       	callq  402d10 <_ZSt9terminatev@plt>
  40542c:	8b 42 f8             	mov    -0x8(%rdx),%eax
  40542f:	8d 48 ff             	lea    -0x1(%rax),%ecx
  405432:	89 4a f8             	mov    %ecx,-0x8(%rdx)
  405435:	eb 8b                	jmp    4053c2 <_ZN7netlistC1ERKSs+0x8f2>
  405437:	48 8d 85 c0 fd ff ff 	lea    -0x240(%rbp),%rax
  40543e:	48 8d 78 78          	lea    0x78(%rax),%rdi
  405442:	e8 79 d9 ff ff       	callq  402dc0 <_ZNSt12__basic_fileIcED1Ev@plt>
  405447:	eb 8b                	jmp    4053d4 <_ZN7netlistC1ERKSs+0x904>
  405449:	e9 29 fe ff ff       	jmpq   405277 <_ZN7netlistC1ERKSs+0x7a7>
  40544e:	e9 24 fe ff ff       	jmpq   405277 <_ZN7netlistC1ERKSs+0x7a7>
  405453:	e9 1f fe ff ff       	jmpq   405277 <_ZN7netlistC1ERKSs+0x7a7>
  405458:	e9 1a fe ff ff       	jmpq   405277 <_ZN7netlistC1ERKSs+0x7a7>
  40545d:	e9 15 fe ff ff       	jmpq   405277 <_ZN7netlistC1ERKSs+0x7a7>
  405462:	4c 89 e7             	mov    %r12,%rdi
  405465:	e8 76 d7 ff ff       	callq  402be0 <_ZNKSt5ctypeIcE13_M_widen_initEv@plt>
  40546a:	49 8b 04 24          	mov    (%r12),%rax
  40546e:	be 0a 00 00 00       	mov    $0xa,%esi
  405473:	48 8b 40 30          	mov    0x30(%rax),%rax
  405477:	48 3d 80 5b 40 00    	cmp    $0x405b80,%rax
  40547d:	0f 84 64 f8 ff ff    	je     404ce7 <_ZN7netlistC1ERKSs+0x217>
  405483:	4c 89 e7             	mov    %r12,%rdi
  405486:	ff d0                	callq  *%rax
  405488:	0f be f0             	movsbl %al,%esi
  40548b:	e9 57 f8 ff ff       	jmpq   404ce7 <_ZN7netlistC1ERKSs+0x217>
  405490:	e8 cb d6 ff ff       	callq  402b60 <_ZSt16__throw_bad_castv@plt>
  405495:	e9 dd fd ff ff       	jmpq   405277 <_ZN7netlistC1ERKSs+0x7a7>
  40549a:	e9 d8 fd ff ff       	jmpq   405277 <_ZN7netlistC1ERKSs+0x7a7>
  40549f:	e9 d3 fd ff ff       	jmpq   405277 <_ZN7netlistC1ERKSs+0x7a7>
  4054a4:	e9 ce fd ff ff       	jmpq   405277 <_ZN7netlistC1ERKSs+0x7a7>
  4054a9:	48 03 78 e8          	add    -0x18(%rax),%rdi
  4054ad:	8b 77 20             	mov    0x20(%rdi),%esi
  4054b0:	83 ce 04             	or     $0x4,%esi
  4054b3:	e8 58 d9 ff ff       	callq  402e10 <_ZNSt9basic_iosIcSt11char_traitsIcEE5clearESt12_Ios_Iostate@plt>
  4054b8:	e9 e9 f7 ff ff       	jmpq   404ca6 <_ZN7netlistC1ERKSs+0x1d6>
  4054bd:	49 89 c4             	mov    %rax,%r12
  4054c0:	48 8d 85 c0 fd ff ff 	lea    -0x240(%rbp),%rax
  4054c7:	48 8d 78 10          	lea    0x10(%rax),%rdi
  4054cb:	e8 c0 d9 ff ff       	callq  402e90 <_ZNSt13basic_filebufIcSt11char_traitsIcEED1Ev@plt>
  4054d0:	49 8b 47 e8          	mov    -0x18(%r15),%rax
  4054d4:	48 8b 0d 15 50 20 00 	mov    0x205015(%rip),%rcx        # 60a4f0 <_ZTTSt14basic_ifstreamIcSt11char_traitsIcEE@@GLIBCXX_3.4+0x10>
  4054db:	4c 89 bd c0 fd ff ff 	mov    %r15,-0x240(%rbp)
  4054e2:	48 89 8c 05 c0 fd ff 	mov    %rcx,-0x240(%rbp,%rax,1)
  4054e9:	ff 
  4054ea:	48 8d 85 c0 fd ff ff 	lea    -0x240(%rbp),%rax
  4054f1:	48 c7 85 c0 fe ff ff 	movq   $0x60a250,-0x140(%rbp)
  4054f8:	50 a2 60 00 
  4054fc:	48 8d b8 00 01 00 00 	lea    0x100(%rax),%rdi
  405503:	e8 a8 d8 ff ff       	callq  402db0 <_ZNSt8ios_baseD2Ev@plt>
  405508:	e9 01 fe ff ff       	jmpq   40530e <_ZN7netlistC1ERKSs+0x83e>
  40550d:	49 89 c4             	mov    %rax,%r12
  405510:	eb be                	jmp    4054d0 <_ZN7netlistC1ERKSs+0xa00>
  405512:	49 89 c4             	mov    %rax,%r12
  405515:	eb d3                	jmp    4054ea <_ZN7netlistC1ERKSs+0xa1a>
  405517:	4c 89 e7             	mov    %r12,%rdi
  40551a:	e8 c1 d6 ff ff       	callq  402be0 <_ZNKSt5ctypeIcE13_M_widen_initEv@plt>
  40551f:	49 8b 04 24          	mov    (%r12),%rax
  405523:	be 0a 00 00 00       	mov    $0xa,%esi
  405528:	48 8b 40 30          	mov    0x30(%rax),%rax
  40552c:	48 3d 80 5b 40 00    	cmp    $0x405b80,%rax
  405532:	0f 84 55 f6 ff ff    	je     404b8d <_ZN7netlistC1ERKSs+0xbd>
  405538:	4c 89 e7             	mov    %r12,%rdi
  40553b:	ff d0                	callq  *%rax
  40553d:	0f be f0             	movsbl %al,%esi
  405540:	e9 48 f6 ff ff       	jmpq   404b8d <_ZN7netlistC1ERKSs+0xbd>
  405545:	e8 16 d6 ff ff       	callq  402b60 <_ZSt16__throw_bad_castv@plt>
  40554a:	49 89 c4             	mov    %rax,%r12
  40554d:	e9 bc fd ff ff       	jmpq   40530e <_ZN7netlistC1ERKSs+0x83e>
  405552:	e9 20 fd ff ff       	jmpq   405277 <_ZN7netlistC1ERKSs+0x7a7>
  405557:	e9 1b fd ff ff       	jmpq   405277 <_ZN7netlistC1ERKSs+0x7a7>
  40555c:	4c 89 e7             	mov    %r12,%rdi
  40555f:	e8 7c d6 ff ff       	callq  402be0 <_ZNKSt5ctypeIcE13_M_widen_initEv@plt>
  405564:	49 8b 04 24          	mov    (%r12),%rax
  405568:	be 0a 00 00 00       	mov    $0xa,%esi
  40556d:	48 8b 40 30          	mov    0x30(%rax),%rax
  405571:	48 3d 80 5b 40 00    	cmp    $0x405b80,%rax
  405577:	0f 84 e3 f8 ff ff    	je     404e60 <_ZN7netlistC1ERKSs+0x390>
  40557d:	4c 89 e7             	mov    %r12,%rdi
  405580:	ff d0                	callq  *%rax
  405582:	0f be f0             	movsbl %al,%esi
  405585:	e9 d6 f8 ff ff       	jmpq   404e60 <_ZN7netlistC1ERKSs+0x390>
  40558a:	e8 d1 d5 ff ff       	callq  402b60 <_ZSt16__throw_bad_castv@plt>
  40558f:	e9 e3 fc ff ff       	jmpq   405277 <_ZN7netlistC1ERKSs+0x7a7>
  405594:	e9 de fc ff ff       	jmpq   405277 <_ZN7netlistC1ERKSs+0x7a7>
  405599:	e9 d9 fc ff ff       	jmpq   405277 <_ZN7netlistC1ERKSs+0x7a7>
  40559e:	e9 d4 fc ff ff       	jmpq   405277 <_ZN7netlistC1ERKSs+0x7a7>
  4055a3:	b8 b0 2e 40 00       	mov    $0x402eb0,%eax
  4055a8:	48 8d 4f 10          	lea    0x10(%rdi),%rcx
  4055ac:	48 85 c0             	test   %rax,%rax
  4055af:	74 3c                	je     4055ed <_ZN7netlistC1ERKSs+0xb1d>
  4055b1:	b8 ff ff ff ff       	mov    $0xffffffff,%eax
  4055b6:	f0 0f c1 01          	lock xadd %eax,(%rcx)
  4055ba:	85 c0                	test   %eax,%eax
  4055bc:	0f 8f 5d f8 ff ff    	jg     404e1f <_ZN7netlistC1ERKSs+0x34f>
  4055c2:	48 8d b5 60 fd ff ff 	lea    -0x2a0(%rbp),%rsi
  4055c9:	e8 02 d7 ff ff       	callq  402cd0 <_ZNSs4_Rep10_M_destroyERKSaIcE@plt>
  4055ce:	e9 4c f8 ff ff       	jmpq   404e1f <_ZN7netlistC1ERKSs+0x34f>
  4055d3:	48 29 d0             	sub    %rdx,%rax
  4055d6:	48 8d 8d 80 fd ff ff 	lea    -0x280(%rbp),%rcx
  4055dd:	4c 89 ee             	mov    %r13,%rsi
  4055e0:	48 89 c2             	mov    %rax,%rdx
  4055e3:	e8 08 0f 00 00       	callq  4064f0 <_ZNSt6vectorI12netlist_elemSaIS0_EE14_M_fill_insertEN9__gnu_cxx17__normal_iteratorIPS0_S2_EEmRKS0_>
  4055e8:	e9 f8 f7 ff ff       	jmpq   404de5 <_ZN7netlistC1ERKSs+0x315>
  4055ed:	8b 42 f8             	mov    -0x8(%rdx),%eax
  4055f0:	8d 48 ff             	lea    -0x1(%rax),%ecx
  4055f3:	89 4a f8             	mov    %ecx,-0x8(%rdx)
  4055f6:	eb c2                	jmp    4055ba <_ZN7netlistC1ERKSs+0xaea>
  4055f8:	8b 42 f8             	mov    -0x8(%rdx),%eax
  4055fb:	8d 48 ff             	lea    -0x1(%rax),%ecx
  4055fe:	89 4a f8             	mov    %ecx,-0x8(%rdx)
  405601:	e9 c2 f7 ff ff       	jmpq   404dc8 <_ZN7netlistC1ERKSs+0x2f8>
  405606:	48 8b bd a0 fd ff ff 	mov    -0x260(%rbp),%rdi
  40560d:	49 89 c4             	mov    %rax,%r12
  405610:	48 85 ff             	test   %rdi,%rdi
  405613:	74 05                	je     40561a <_ZN7netlistC1ERKSs+0xb4a>
  405615:	e8 96 d5 ff ff       	callq  402bb0 <_ZdlPv@plt>
  40561a:	48 8b bd 88 fd ff ff 	mov    -0x278(%rbp),%rdi
  405621:	48 85 ff             	test   %rdi,%rdi
  405624:	74 05                	je     40562b <_ZN7netlistC1ERKSs+0xb5b>
  405626:	e8 85 d5 ff ff       	callq  402bb0 <_ZdlPv@plt>
  40562b:	48 8b 95 80 fd ff ff 	mov    -0x280(%rbp),%rdx
  405632:	48 8d 7a e8          	lea    -0x18(%rdx),%rdi
  405636:	48 81 ff 80 a5 60 00 	cmp    $0x60a580,%rdi
  40563d:	0f 84 37 fc ff ff    	je     40527a <_ZN7netlistC1ERKSs+0x7aa>
  405643:	b8 b0 2e 40 00       	mov    $0x402eb0,%eax
  405648:	48 8d 4f 10          	lea    0x10(%rdi),%rcx
  40564c:	48 85 c0             	test   %rax,%rax
  40564f:	0f 84 58 04 00 00    	je     405aad <_ZN7netlistC1ERKSs+0xfdd>
  405655:	b8 ff ff ff ff       	mov    $0xffffffff,%eax
  40565a:	f0 0f c1 01          	lock xadd %eax,(%rcx)
  40565e:	85 c0                	test   %eax,%eax
  405660:	0f 8f 14 fc ff ff    	jg     40527a <_ZN7netlistC1ERKSs+0x7aa>
  405666:	48 8d b5 60 fd ff ff 	lea    -0x2a0(%rbp),%rsi
  40566d:	e8 5e d6 ff ff       	callq  402cd0 <_ZNSs4_Rep10_M_destroyERKSaIcE@plt>
  405672:	e9 03 fc ff ff       	jmpq   40527a <_ZN7netlistC1ERKSs+0x7aa>
  405677:	66 0f 1f 84 00 00 00 	nopw   0x0(%rax,%rax,1)
  40567e:	00 00 
  405680:	48 8d 78 20          	lea    0x20(%rax),%rdi
  405684:	48 8d 95 60 fd ff ff 	lea    -0x2a0(%rbp),%rdx
  40568b:	e8 70 06 00 00       	callq  405d00 <_ZNSt6vectorIP12netlist_elemSaIS1_EE13_M_insert_auxEN9__gnu_cxx17__normal_iteratorIPS1_S3_EERKS1_>
  405690:	e9 f5 fa ff ff       	jmpq   40518a <_ZN7netlistC1ERKSs+0x6ba>
  405695:	48 8d 7a 08          	lea    0x8(%rdx),%rdi
  405699:	48 8d 95 80 fd ff ff 	lea    -0x280(%rbp),%rdx
  4056a0:	e8 5b 06 00 00       	callq  405d00 <_ZNSt6vectorIP12netlist_elemSaIS1_EE13_M_insert_auxEN9__gnu_cxx17__normal_iteratorIPS1_S3_EERKS1_>
  4056a5:	48 8b 85 80 fd ff ff 	mov    -0x280(%rbp),%rax
  4056ac:	e9 b0 fa ff ff       	jmpq   405161 <_ZN7netlistC1ERKSs+0x691>
  4056b1:	4c 89 ef             	mov    %r13,%rdi
  4056b4:	e8 27 d5 ff ff       	callq  402be0 <_ZNKSt5ctypeIcE13_M_widen_initEv@plt>
  4056b9:	49 8b 45 00          	mov    0x0(%r13),%rax
  4056bd:	be 0a 00 00 00       	mov    $0xa,%esi
  4056c2:	48 8b 40 30          	mov    0x30(%rax),%rax
  4056c6:	48 3d 80 5b 40 00    	cmp    $0x405b80,%rax
  4056cc:	0f 84 90 fb ff ff    	je     405262 <_ZN7netlistC1ERKSs+0x792>
  4056d2:	4c 89 ef             	mov    %r13,%rdi
  4056d5:	ff d0                	callq  *%rax
  4056d7:	0f be f0             	movsbl %al,%esi
  4056da:	e9 83 fb ff ff       	jmpq   405262 <_ZN7netlistC1ERKSs+0x792>
  4056df:	48 8b 95 50 fd ff ff 	mov    -0x2b0(%rbp),%rdx
  4056e6:	49 89 c4             	mov    %rax,%r12
  4056e9:	48 8d 7a e8          	lea    -0x18(%rdx),%rdi
  4056ed:	48 81 ff 80 a5 60 00 	cmp    $0x60a580,%rdi
  4056f4:	75 61                	jne    405757 <_ZN7netlistC1ERKSs+0xc87>
  4056f6:	48 8b 95 40 fd ff ff 	mov    -0x2c0(%rbp),%rdx
  4056fd:	48 8d 7a e8          	lea    -0x18(%rdx),%rdi
  405701:	48 81 ff 80 a5 60 00 	cmp    $0x60a580,%rdi
  405708:	75 24                	jne    40572e <_ZN7netlistC1ERKSs+0xc5e>
  40570a:	48 83 bd 28 fd ff ff 	cmpq   $0x0,-0x2d8(%rbp)
  405711:	00 
  405712:	0f 84 62 fb ff ff    	je     40527a <_ZN7netlistC1ERKSs+0x7aa>
  405718:	48 8b bd 28 fd ff ff 	mov    -0x2d8(%rbp),%rdi
  40571f:	e8 8c d4 ff ff       	callq  402bb0 <_ZdlPv@plt>
  405724:	e9 51 fb ff ff       	jmpq   40527a <_ZN7netlistC1ERKSs+0x7aa>
  405729:	49 89 c4             	mov    %rax,%r12
  40572c:	eb c8                	jmp    4056f6 <_ZN7netlistC1ERKSs+0xc26>
  40572e:	b8 b0 2e 40 00       	mov    $0x402eb0,%eax
  405733:	48 8d 4f 10          	lea    0x10(%rdi),%rcx
  405737:	48 85 c0             	test   %rax,%rax
  40573a:	74 47                	je     405783 <_ZN7netlistC1ERKSs+0xcb3>
  40573c:	b8 ff ff ff ff       	mov    $0xffffffff,%eax
  405741:	f0 0f c1 01          	lock xadd %eax,(%rcx)
  405745:	85 c0                	test   %eax,%eax
  405747:	7f c1                	jg     40570a <_ZN7netlistC1ERKSs+0xc3a>
  405749:	48 8d b5 80 fd ff ff 	lea    -0x280(%rbp),%rsi
  405750:	e8 7b d5 ff ff       	callq  402cd0 <_ZNSs4_Rep10_M_destroyERKSaIcE@plt>
  405755:	eb b3                	jmp    40570a <_ZN7netlistC1ERKSs+0xc3a>
  405757:	b8 b0 2e 40 00       	mov    $0x402eb0,%eax
  40575c:	48 8d 4f 10          	lea    0x10(%rdi),%rcx
  405760:	48 85 c0             	test   %rax,%rax
  405763:	74 29                	je     40578e <_ZN7netlistC1ERKSs+0xcbe>
  405765:	b8 ff ff ff ff       	mov    $0xffffffff,%eax
  40576a:	f0 0f c1 01          	lock xadd %eax,(%rcx)
  40576e:	85 c0                	test   %eax,%eax
  405770:	7f 84                	jg     4056f6 <_ZN7netlistC1ERKSs+0xc26>
  405772:	48 8d b5 80 fd ff ff 	lea    -0x280(%rbp),%rsi
  405779:	e8 52 d5 ff ff       	callq  402cd0 <_ZNSs4_Rep10_M_destroyERKSaIcE@plt>
  40577e:	e9 73 ff ff ff       	jmpq   4056f6 <_ZN7netlistC1ERKSs+0xc26>
  405783:	8b 42 f8             	mov    -0x8(%rdx),%eax
  405786:	8d 48 ff             	lea    -0x1(%rax),%ecx
  405789:	89 4a f8             	mov    %ecx,-0x8(%rdx)
  40578c:	eb b7                	jmp    405745 <_ZN7netlistC1ERKSs+0xc75>
  40578e:	8b 42 f8             	mov    -0x8(%rdx),%eax
  405791:	8d 48 ff             	lea    -0x1(%rax),%ecx
  405794:	89 4a f8             	mov    %ecx,-0x8(%rdx)
  405797:	eb d5                	jmp    40576e <_ZN7netlistC1ERKSs+0xc9e>
  405799:	e8 c2 d3 ff ff       	callq  402b60 <_ZSt16__throw_bad_castv@plt>
  40579e:	41 83 ec 01          	sub    $0x1,%r12d
  4057a2:	ba 11 00 00 00       	mov    $0x11,%edx
  4057a7:	be 72 8a 40 00       	mov    $0x408a72,%esi
  4057ac:	bf c0 a3 60 00       	mov    $0x60a3c0,%edi
  4057b1:	e8 9a d5 ff ff       	callq  402d50 <_ZSt16__ostream_insertIcSt11char_traitsIcEERSt13basic_ostreamIT_T0_ES6_PKS3_l@plt>
  4057b6:	44 89 e6             	mov    %r12d,%esi
  4057b9:	bf c0 a3 60 00       	mov    $0x60a3c0,%edi
  4057be:	e8 8d d3 ff ff       	callq  402b50 <_ZNSolsEi@plt>
  4057c3:	ba 0a 00 00 00       	mov    $0xa,%edx
  4057c8:	be 84 8a 40 00       	mov    $0x408a84,%esi
  4057cd:	48 89 c7             	mov    %rax,%rdi
  4057d0:	49 89 c5             	mov    %rax,%r13
  4057d3:	e8 78 d5 ff ff       	callq  402d50 <_ZSt16__ostream_insertIcSt11char_traitsIcEERSt13basic_ostreamIT_T0_ES6_PKS3_l@plt>
  4057d8:	49 8b 45 00          	mov    0x0(%r13),%rax
  4057dc:	48 8b 40 e8          	mov    -0x18(%rax),%rax
  4057e0:	4d 8b a4 05 f0 00 00 	mov    0xf0(%r13,%rax,1),%r12
  4057e7:	00 
  4057e8:	4d 85 e4             	test   %r12,%r12
  4057eb:	0f 84 10 03 00 00    	je     405b01 <_ZN7netlistC1ERKSs+0x1031>
  4057f1:	41 80 7c 24 38 00    	cmpb   $0x0,0x38(%r12)
  4057f7:	0f 84 e3 00 00 00    	je     4058e0 <_ZN7netlistC1ERKSs+0xe10>
  4057fd:	41 0f be 74 24 43    	movsbl 0x43(%r12),%esi
  405803:	4c 89 ef             	mov    %r13,%rdi
  405806:	e8 05 d7 ff ff       	callq  402f10 <_ZNSo3putEc@plt>
  40580b:	48 89 c7             	mov    %rax,%rdi
  40580e:	e8 7d d5 ff ff       	callq  402d90 <_ZNSo5flushEv@plt>
  405813:	48 8b 85 28 fd ff ff 	mov    -0x2d8(%rbp),%rax
  40581a:	48 85 c0             	test   %rax,%rax
  40581d:	74 08                	je     405827 <_ZN7netlistC1ERKSs+0xd57>
  40581f:	48 89 c7             	mov    %rax,%rdi
  405822:	e8 89 d3 ff ff       	callq  402bb0 <_ZdlPv@plt>
  405827:	48 8d 85 c0 fd ff ff 	lea    -0x240(%rbp),%rax
  40582e:	48 c7 85 c0 fd ff ff 	movq   $0x60a358,-0x240(%rbp)
  405835:	58 a3 60 00 
  405839:	48 c7 85 c0 fe ff ff 	movq   $0x60a380,-0x140(%rbp)
  405840:	80 a3 60 00 
  405844:	48 c7 85 d0 fd ff ff 	movq   $0x60a290,-0x230(%rbp)
  40584b:	90 a2 60 00 
  40584f:	48 8d 78 10          	lea    0x10(%rax),%rdi
  405853:	e8 c8 d6 ff ff       	callq  402f20 <_ZNSt13basic_filebufIcSt11char_traitsIcEE5closeEv@plt>
  405858:	48 8d 85 c0 fd ff ff 	lea    -0x240(%rbp),%rax
  40585f:	48 8d 78 78          	lea    0x78(%rax),%rdi
  405863:	e8 58 d5 ff ff       	callq  402dc0 <_ZNSt12__basic_fileIcED1Ev@plt>
  405868:	48 8d 85 c0 fd ff ff 	lea    -0x240(%rbp),%rax
  40586f:	48 c7 85 d0 fd ff ff 	movq   $0x60a510,-0x230(%rbp)
  405876:	10 a5 60 00 
  40587a:	48 8d 78 48          	lea    0x48(%rax),%rdi
  40587e:	e8 7d d6 ff ff       	callq  402f00 <_ZNSt6localeD1Ev@plt>
  405883:	49 8b 47 e8          	mov    -0x18(%r15),%rax
  405887:	48 8b 0d 62 4c 20 00 	mov    0x204c62(%rip),%rcx        # 60a4f0 <_ZTTSt14basic_ifstreamIcSt11char_traitsIcEE@@GLIBCXX_3.4+0x10>
  40588e:	4c 89 bd c0 fd ff ff 	mov    %r15,-0x240(%rbp)
  405895:	48 89 8c 05 c0 fd ff 	mov    %rcx,-0x240(%rbp,%rax,1)
  40589c:	ff 
  40589d:	48 8d 85 c0 fd ff ff 	lea    -0x240(%rbp),%rax
  4058a4:	48 c7 85 c0 fe ff ff 	movq   $0x60a250,-0x140(%rbp)
  4058ab:	50 a2 60 00 
  4058af:	48 8d b8 00 01 00 00 	lea    0x100(%rax),%rdi
  4058b6:	e8 f5 d4 ff ff       	callq  402db0 <_ZNSt8ios_baseD2Ev@plt>
  4058bb:	48 8b 45 c8          	mov    -0x38(%rbp),%rax
  4058bf:	64 48 33 04 25 28 00 	xor    %fs:0x28,%rax
  4058c6:	00 00 
  4058c8:	0f 85 38 02 00 00    	jne    405b06 <_ZN7netlistC1ERKSs+0x1036>
  4058ce:	48 81 c4 b8 02 00 00 	add    $0x2b8,%rsp
  4058d5:	5b                   	pop    %rbx
  4058d6:	41 5c                	pop    %r12
  4058d8:	41 5d                	pop    %r13
  4058da:	41 5e                	pop    %r14
  4058dc:	41 5f                	pop    %r15
  4058de:	5d                   	pop    %rbp
  4058df:	c3                   	retq   
  4058e0:	4c 89 e7             	mov    %r12,%rdi
  4058e3:	e8 f8 d2 ff ff       	callq  402be0 <_ZNKSt5ctypeIcE13_M_widen_initEv@plt>
  4058e8:	49 8b 04 24          	mov    (%r12),%rax
  4058ec:	be 0a 00 00 00       	mov    $0xa,%esi
  4058f1:	48 8b 40 30          	mov    0x30(%rax),%rax
  4058f5:	48 3d 80 5b 40 00    	cmp    $0x405b80,%rax
  4058fb:	0f 84 02 ff ff ff    	je     405803 <_ZN7netlistC1ERKSs+0xd33>
  405901:	4c 89 e7             	mov    %r12,%rdi
  405904:	ff d0                	callq  *%rax
  405906:	0f be f0             	movsbl %al,%esi
  405909:	e9 f5 fe ff ff       	jmpq   405803 <_ZN7netlistC1ERKSs+0xd33>
  40590e:	b8 b0 2e 40 00       	mov    $0x402eb0,%eax
  405913:	48 8d 4f 10          	lea    0x10(%rdi),%rcx
  405917:	48 85 c0             	test   %rax,%rax
  40591a:	74 5d                	je     405979 <_ZN7netlistC1ERKSs+0xea9>
  40591c:	b8 ff ff ff ff       	mov    $0xffffffff,%eax
  405921:	f0 0f c1 01          	lock xadd %eax,(%rcx)
  405925:	85 c0                	test   %eax,%eax
  405927:	0f 8f b2 f8 ff ff    	jg     4051df <_ZN7netlistC1ERKSs+0x70f>
  40592d:	48 8d b5 80 fd ff ff 	lea    -0x280(%rbp),%rsi
  405934:	e8 97 d3 ff ff       	callq  402cd0 <_ZNSs4_Rep10_M_destroyERKSaIcE@plt>
  405939:	e9 a1 f8 ff ff       	jmpq   4051df <_ZN7netlistC1ERKSs+0x70f>
  40593e:	b8 b0 2e 40 00       	mov    $0x402eb0,%eax
  405943:	48 8d 4f 10          	lea    0x10(%rdi),%rcx
  405947:	48 85 c0             	test   %rax,%rax
  40594a:	74 22                	je     40596e <_ZN7netlistC1ERKSs+0xe9e>
  40594c:	b8 ff ff ff ff       	mov    $0xffffffff,%eax
  405951:	f0 0f c1 01          	lock xadd %eax,(%rcx)
  405955:	85 c0                	test   %eax,%eax
  405957:	0f 8f 6a f8 ff ff    	jg     4051c7 <_ZN7netlistC1ERKSs+0x6f7>
  40595d:	48 8d b5 80 fd ff ff 	lea    -0x280(%rbp),%rsi
  405964:	e8 67 d3 ff ff       	callq  402cd0 <_ZNSs4_Rep10_M_destroyERKSaIcE@plt>
  405969:	e9 59 f8 ff ff       	jmpq   4051c7 <_ZN7netlistC1ERKSs+0x6f7>
  40596e:	8b 42 f8             	mov    -0x8(%rdx),%eax
  405971:	8d 48 ff             	lea    -0x1(%rax),%ecx
  405974:	89 4a f8             	mov    %ecx,-0x8(%rdx)
  405977:	eb dc                	jmp    405955 <_ZN7netlistC1ERKSs+0xe85>
  405979:	8b 42 f8             	mov    -0x8(%rdx),%eax
  40597c:	8d 48 ff             	lea    -0x1(%rax),%ecx
  40597f:	89 4a f8             	mov    %ecx,-0x8(%rdx)
  405982:	eb a1                	jmp    405925 <_ZN7netlistC1ERKSs+0xe55>
  405984:	48 89 c6             	mov    %rax,%rsi
  405987:	bf 98 8a 40 00       	mov    $0x408a98,%edi
  40598c:	31 c0                	xor    %eax,%eax
  40598e:	e8 dd d1 ff ff       	callq  402b70 <_ZSt24__throw_out_of_range_fmtPKcz@plt>
  405993:	31 d2                	xor    %edx,%edx
  405995:	45 31 c0             	xor    %r8d,%r8d
  405998:	4c 89 c6             	mov    %r8,%rsi
  40599b:	bf 98 8a 40 00       	mov    $0x408a98,%edi
  4059a0:	31 c0                	xor    %eax,%eax
  4059a2:	e8 c9 d1 ff ff       	callq  402b70 <_ZSt24__throw_out_of_range_fmtPKcz@plt>
  4059a7:	bf 98 8a 40 00       	mov    $0x408a98,%edi
  4059ac:	31 c0                	xor    %eax,%eax
  4059ae:	e8 bd d1 ff ff       	callq  402b70 <_ZSt24__throw_out_of_range_fmtPKcz@plt>
  4059b3:	48 29 d0             	sub    %rdx,%rax
  4059b6:	48 8d 8d 60 fd ff ff 	lea    -0x2a0(%rbp),%rcx
  4059bd:	4c 89 e6             	mov    %r12,%rsi
  4059c0:	48 89 c2             	mov    %rax,%rdx
  4059c3:	e8 58 20 00 00       	callq  407a20 <_ZNSt6vectorIS_I10location_tSaIS0_EESaIS2_EE14_M_fill_insertEN9__gnu_cxx17__normal_iteratorIPS2_S4_EEmRKS2_>
  4059c8:	e9 37 f5 ff ff       	jmpq   404f04 <_ZN7netlistC1ERKSs+0x434>
  4059cd:	4e 8d 24 ed 00 00 00 	lea    0x0(,%r13,8),%r12
  4059d4:	00 
  4059d5:	4c 89 e7             	mov    %r12,%rdi
  4059d8:	e8 03 d5 ff ff       	callq  402ee0 <_Znwm@plt>
  4059dd:	48 89 85 28 fd ff ff 	mov    %rax,-0x2d8(%rbp)
  4059e4:	c7 00 00 00 00 00    	movl   $0x0,(%rax)
  4059ea:	c7 40 04 00 00 00 00 	movl   $0x0,0x4(%rax)
  4059f1:	48 83 c0 08          	add    $0x8,%rax
  4059f5:	49 83 ed 01          	sub    $0x1,%r13
  4059f9:	75 e9                	jne    4059e4 <_ZN7netlistC1ERKSs+0xf14>
  4059fb:	4c 89 e0             	mov    %r12,%rax
  4059fe:	4c 89 e2             	mov    %r12,%rdx
  405a01:	48 c7 85 60 fd ff ff 	movq   $0x0,-0x2a0(%rbp)
  405a08:	00 00 00 00 
  405a0c:	48 c1 f8 03          	sar    $0x3,%rax
  405a10:	48 c7 85 68 fd ff ff 	movq   $0x0,-0x298(%rbp)
  405a17:	00 00 00 00 
  405a1b:	48 c7 85 70 fd ff ff 	movq   $0x0,-0x290(%rbp)
  405a22:	00 00 00 00 
  405a26:	48 85 c0             	test   %rax,%rax
  405a29:	49 89 c5             	mov    %rax,%r13
  405a2c:	0f 84 5d f4 ff ff    	je     404e8f <_ZN7netlistC1ERKSs+0x3bf>
  405a32:	48 ba ff ff ff ff ff 	movabs $0x1fffffffffffffff,%rdx
  405a39:	ff ff 1f 
  405a3c:	48 39 d0             	cmp    %rdx,%rax
  405a3f:	77 67                	ja     405aa8 <_ZN7netlistC1ERKSs+0xfd8>
  405a41:	4c 89 e7             	mov    %r12,%rdi
  405a44:	e8 97 d4 ff ff       	callq  402ee0 <_Znwm@plt>
  405a49:	e9 46 f4 ff ff       	jmpq   404e94 <_ZN7netlistC1ERKSs+0x3c4>
  405a4e:	48 8b bd 60 fd ff ff 	mov    -0x2a0(%rbp),%rdi
  405a55:	49 89 c4             	mov    %rax,%r12
  405a58:	48 85 ff             	test   %rdi,%rdi
  405a5b:	0f 84 a9 fc ff ff    	je     40570a <_ZN7netlistC1ERKSs+0xc3a>
  405a61:	e8 4a d1 ff ff       	callq  402bb0 <_ZdlPv@plt>
  405a66:	e9 9f fc ff ff       	jmpq   40570a <_ZN7netlistC1ERKSs+0xc3a>
  405a6b:	e9 07 f8 ff ff       	jmpq   405277 <_ZN7netlistC1ERKSs+0x7a7>
  405a70:	48 8d 04 40          	lea    (%rax,%rax,2),%rax
  405a74:	4c 8d 34 c6          	lea    (%rsi,%rax,8),%r14
  405a78:	4d 39 f4             	cmp    %r14,%r12
  405a7b:	4d 89 f5             	mov    %r14,%r13
  405a7e:	74 17                	je     405a97 <_ZN7netlistC1ERKSs+0xfc7>
  405a80:	49 8b 7d 00          	mov    0x0(%r13),%rdi
  405a84:	48 85 ff             	test   %rdi,%rdi
  405a87:	74 05                	je     405a8e <_ZN7netlistC1ERKSs+0xfbe>
  405a89:	e8 22 d1 ff ff       	callq  402bb0 <_ZdlPv@plt>
  405a8e:	49 83 c5 18          	add    $0x18,%r13
  405a92:	4d 39 ec             	cmp    %r13,%r12
  405a95:	75 e9                	jne    405a80 <_ZN7netlistC1ERKSs+0xfb0>
  405a97:	4c 89 73 30          	mov    %r14,0x30(%rbx)
  405a9b:	e9 64 f4 ff ff       	jmpq   404f04 <_ZN7netlistC1ERKSs+0x434>
  405aa0:	49 89 c4             	mov    %rax,%r12
  405aa3:	e9 70 fc ff ff       	jmpq   405718 <_ZN7netlistC1ERKSs+0xc48>
  405aa8:	e8 d3 d3 ff ff       	callq  402e80 <_ZSt17__throw_bad_allocv@plt>
  405aad:	8b 42 f8             	mov    -0x8(%rdx),%eax
  405ab0:	8d 48 ff             	lea    -0x1(%rax),%ecx
  405ab3:	89 4a f8             	mov    %ecx,-0x8(%rdx)
  405ab6:	e9 a3 fb ff ff       	jmpq   40565e <_ZN7netlistC1ERKSs+0xb8e>
  405abb:	41 bc ff ff ff ff    	mov    $0xffffffff,%r12d
  405ac1:	e9 dc fc ff ff       	jmpq   4057a2 <_ZN7netlistC1ERKSs+0xcd2>
  405ac6:	4c 89 e7             	mov    %r12,%rdi
  405ac9:	e8 12 d1 ff ff       	callq  402be0 <_ZNKSt5ctypeIcE13_M_widen_initEv@plt>
  405ace:	49 8b 04 24          	mov    (%r12),%rax
  405ad2:	be 0a 00 00 00       	mov    $0xa,%esi
  405ad7:	48 8b 40 30          	mov    0x30(%rax),%rax
  405adb:	48 3d 80 5b 40 00    	cmp    $0x405b80,%rax
  405ae1:	0f 84 90 f5 ff ff    	je     405077 <_ZN7netlistC1ERKSs+0x5a7>
  405ae7:	4c 89 e7             	mov    %r12,%rdi
  405aea:	ff d0                	callq  *%rax
  405aec:	0f be f0             	movsbl %al,%esi
  405aef:	e9 83 f5 ff ff       	jmpq   405077 <_ZN7netlistC1ERKSs+0x5a7>
  405af4:	e8 67 d0 ff ff       	callq  402b60 <_ZSt16__throw_bad_castv@plt>
  405af9:	49 89 c4             	mov    %rax,%r12
  405afc:	e9 09 fc ff ff       	jmpq   40570a <_ZN7netlistC1ERKSs+0xc3a>
  405b01:	e8 5a d0 ff ff       	callq  402b60 <_ZSt16__throw_bad_castv@plt>
  405b06:	e8 95 d2 ff ff       	callq  402da0 <__stack_chk_fail@plt>
  405b0b:	49 89 c4             	mov    %rax,%r12
  405b0e:	48 8d 85 c0 fd ff ff 	lea    -0x240(%rbp),%rax
  405b15:	48 c7 85 d0 fd ff ff 	movq   $0x60a510,-0x230(%rbp)
  405b1c:	10 a5 60 00 
  405b20:	48 8d 78 48          	lea    0x48(%rax),%rdi
  405b24:	e8 d7 d3 ff ff       	callq  402f00 <_ZNSt6localeD1Ev@plt>
  405b29:	49 8b 47 e8          	mov    -0x18(%r15),%rax
  405b2d:	48 8b 0d bc 49 20 00 	mov    0x2049bc(%rip),%rcx        # 60a4f0 <_ZTTSt14basic_ifstreamIcSt11char_traitsIcEE@@GLIBCXX_3.4+0x10>
  405b34:	4c 89 bd c0 fd ff ff 	mov    %r15,-0x240(%rbp)
  405b3b:	48 89 8c 05 c0 fd ff 	mov    %rcx,-0x240(%rbp,%rax,1)
  405b42:	ff 
  405b43:	48 8d 85 c0 fd ff ff 	lea    -0x240(%rbp),%rax
  405b4a:	48 c7 85 c0 fe ff ff 	movq   $0x60a250,-0x140(%rbp)
  405b51:	50 a2 60 00 
  405b55:	48 8d b8 00 01 00 00 	lea    0x100(%rax),%rdi
  405b5c:	e8 4f d2 ff ff       	callq  402db0 <_ZNSt8ios_baseD2Ev@plt>
  405b61:	e9 a8 f7 ff ff       	jmpq   40530e <_ZN7netlistC1ERKSs+0x83e>
  405b66:	49 89 c4             	mov    %rax,%r12
  405b69:	48 8d 85 c0 fd ff ff 	lea    -0x240(%rbp),%rax
  405b70:	48 8d 78 78          	lea    0x78(%rax),%rdi
  405b74:	e8 47 d2 ff ff       	callq  402dc0 <_ZNSt12__basic_fileIcED1Ev@plt>
  405b79:	eb 93                	jmp    405b0e <_ZN7netlistC1ERKSs+0x103e>
  405b7b:	0f 1f 44 00 00       	nopl   0x0(%rax,%rax,1)

0000000000405b80 <_ZNKSt5ctypeIcE8do_widenEc>:
  405b80:	55                   	push   %rbp
  405b81:	89 f0                	mov    %esi,%eax
  405b83:	48 89 e5             	mov    %rsp,%rbp
  405b86:	5d                   	pop    %rbp
  405b87:	c3                   	retq   
  405b88:	0f 1f 84 00 00 00 00 	nopl   0x0(%rax,%rax,1)
  405b8f:	00 

0000000000405b90 <_ZN12netlist_elemD1Ev>:
  405b90:	55                   	push   %rbp
  405b91:	48 89 e5             	mov    %rsp,%rbp
  405b94:	53                   	push   %rbx
  405b95:	48 89 fb             	mov    %rdi,%rbx
  405b98:	48 83 ec 18          	sub    $0x18,%rsp
  405b9c:	48 8b 7f 20          	mov    0x20(%rdi),%rdi
  405ba0:	64 48 8b 04 25 28 00 	mov    %fs:0x28,%rax
  405ba7:	00 00 
  405ba9:	48 89 45 e8          	mov    %rax,-0x18(%rbp)
  405bad:	31 c0                	xor    %eax,%eax
  405baf:	48 85 ff             	test   %rdi,%rdi
  405bb2:	74 05                	je     405bb9 <_ZN12netlist_elemD1Ev+0x29>
  405bb4:	e8 f7 cf ff ff       	callq  402bb0 <_ZdlPv@plt>
  405bb9:	48 8b 7b 08          	mov    0x8(%rbx),%rdi
  405bbd:	48 85 ff             	test   %rdi,%rdi
  405bc0:	74 05                	je     405bc7 <_ZN12netlist_elemD1Ev+0x37>
  405bc2:	e8 e9 cf ff ff       	callq  402bb0 <_ZdlPv@plt>
  405bc7:	48 8b 03             	mov    (%rbx),%rax
  405bca:	48 8d 78 e8          	lea    -0x18(%rax),%rdi
  405bce:	48 81 ff 80 a5 60 00 	cmp    $0x60a580,%rdi
  405bd5:	75 19                	jne    405bf0 <_ZN12netlist_elemD1Ev+0x60>
  405bd7:	48 8b 45 e8          	mov    -0x18(%rbp),%rax
  405bdb:	64 48 33 04 25 28 00 	xor    %fs:0x28,%rax
  405be2:	00 00 
  405be4:	75 3f                	jne    405c25 <_ZN12netlist_elemD1Ev+0x95>
  405be6:	48 83 c4 18          	add    $0x18,%rsp
  405bea:	5b                   	pop    %rbx
  405beb:	5d                   	pop    %rbp
  405bec:	c3                   	retq   
  405bed:	0f 1f 00             	nopl   (%rax)
  405bf0:	ba b0 2e 40 00       	mov    $0x402eb0,%edx
  405bf5:	48 85 d2             	test   %rdx,%rdx
  405bf8:	74 1e                	je     405c18 <_ZN12netlist_elemD1Ev+0x88>
  405bfa:	ba ff ff ff ff       	mov    $0xffffffff,%edx
  405bff:	f0 0f c1 50 f8       	lock xadd %edx,-0x8(%rax)
  405c04:	89 d0                	mov    %edx,%eax
  405c06:	85 c0                	test   %eax,%eax
  405c08:	7f cd                	jg     405bd7 <_ZN12netlist_elemD1Ev+0x47>
  405c0a:	48 8d 75 e7          	lea    -0x19(%rbp),%rsi
  405c0e:	e8 bd d0 ff ff       	callq  402cd0 <_ZNSs4_Rep10_M_destroyERKSaIcE@plt>
  405c13:	eb c2                	jmp    405bd7 <_ZN12netlist_elemD1Ev+0x47>
  405c15:	0f 1f 00             	nopl   (%rax)
  405c18:	8b 50 f8             	mov    -0x8(%rax),%edx
  405c1b:	8d 4a ff             	lea    -0x1(%rdx),%ecx
  405c1e:	89 48 f8             	mov    %ecx,-0x8(%rax)
  405c21:	89 d0                	mov    %edx,%eax
  405c23:	eb e1                	jmp    405c06 <_ZN12netlist_elemD1Ev+0x76>
  405c25:	e8 76 d1 ff ff       	callq  402da0 <__stack_chk_fail@plt>
  405c2a:	66 0f 1f 44 00 00    	nopw   0x0(%rax,%rax,1)

0000000000405c30 <_ZNSt8_Rb_treeISsSt4pairIKSsP12netlist_elemESt10_Select1stIS4_ESt4lessISsESaIS4_EE8_M_eraseEPSt13_Rb_tree_nodeIS4_E>:
  405c30:	55                   	push   %rbp
  405c31:	48 89 e5             	mov    %rsp,%rbp
  405c34:	41 55                	push   %r13
  405c36:	41 54                	push   %r12
  405c38:	53                   	push   %rbx
  405c39:	49 89 fd             	mov    %rdi,%r13
  405c3c:	48 89 f3             	mov    %rsi,%rbx
  405c3f:	48 83 ec 18          	sub    $0x18,%rsp
  405c43:	64 48 8b 04 25 28 00 	mov    %fs:0x28,%rax
  405c4a:	00 00 
  405c4c:	48 89 45 d8          	mov    %rax,-0x28(%rbp)
  405c50:	31 c0                	xor    %eax,%eax
  405c52:	48 85 f6             	test   %rsi,%rsi
  405c55:	75 19                	jne    405c70 <_ZNSt8_Rb_treeISsSt4pairIKSsP12netlist_elemESt10_Select1stIS4_ESt4lessISsESaIS4_EE8_M_eraseEPSt13_Rb_tree_nodeIS4_E+0x40>
  405c57:	eb 6f                	jmp    405cc8 <_ZNSt8_Rb_treeISsSt4pairIKSsP12netlist_elemESt10_Select1stIS4_ESt4lessISsESaIS4_EE8_M_eraseEPSt13_Rb_tree_nodeIS4_E+0x98>
  405c59:	0f 1f 80 00 00 00 00 	nopl   0x0(%rax)
  405c60:	48 89 df             	mov    %rbx,%rdi
  405c63:	4c 89 e3             	mov    %r12,%rbx
  405c66:	e8 45 cf ff ff       	callq  402bb0 <_ZdlPv@plt>
  405c6b:	4d 85 e4             	test   %r12,%r12
  405c6e:	74 58                	je     405cc8 <_ZNSt8_Rb_treeISsSt4pairIKSsP12netlist_elemESt10_Select1stIS4_ESt4lessISsESaIS4_EE8_M_eraseEPSt13_Rb_tree_nodeIS4_E+0x98>
  405c70:	48 8b 73 18          	mov    0x18(%rbx),%rsi
  405c74:	4c 89 ef             	mov    %r13,%rdi
  405c77:	e8 b4 ff ff ff       	callq  405c30 <_ZNSt8_Rb_treeISsSt4pairIKSsP12netlist_elemESt10_Select1stIS4_ESt4lessISsESaIS4_EE8_M_eraseEPSt13_Rb_tree_nodeIS4_E>
  405c7c:	48 8b 43 20          	mov    0x20(%rbx),%rax
  405c80:	4c 8b 63 10          	mov    0x10(%rbx),%r12
  405c84:	48 8d 78 e8          	lea    -0x18(%rax),%rdi
  405c88:	48 81 ff 80 a5 60 00 	cmp    $0x60a580,%rdi
  405c8f:	74 cf                	je     405c60 <_ZNSt8_Rb_treeISsSt4pairIKSsP12netlist_elemESt10_Select1stIS4_ESt4lessISsESaIS4_EE8_M_eraseEPSt13_Rb_tree_nodeIS4_E+0x30>
  405c91:	b9 b0 2e 40 00       	mov    $0x402eb0,%ecx
  405c96:	48 85 c9             	test   %rcx,%rcx
  405c99:	74 4d                	je     405ce8 <_ZNSt8_Rb_treeISsSt4pairIKSsP12netlist_elemESt10_Select1stIS4_ESt4lessISsESaIS4_EE8_M_eraseEPSt13_Rb_tree_nodeIS4_E+0xb8>
  405c9b:	b9 ff ff ff ff       	mov    $0xffffffff,%ecx
  405ca0:	f0 0f c1 48 f8       	lock xadd %ecx,-0x8(%rax)
  405ca5:	89 c8                	mov    %ecx,%eax
  405ca7:	85 c0                	test   %eax,%eax
  405ca9:	7f b5                	jg     405c60 <_ZNSt8_Rb_treeISsSt4pairIKSsP12netlist_elemESt10_Select1stIS4_ESt4lessISsESaIS4_EE8_M_eraseEPSt13_Rb_tree_nodeIS4_E+0x30>
  405cab:	48 8d 75 d7          	lea    -0x29(%rbp),%rsi
  405caf:	e8 1c d0 ff ff       	callq  402cd0 <_ZNSs4_Rep10_M_destroyERKSaIcE@plt>
  405cb4:	48 89 df             	mov    %rbx,%rdi
  405cb7:	4c 89 e3             	mov    %r12,%rbx
  405cba:	e8 f1 ce ff ff       	callq  402bb0 <_ZdlPv@plt>
  405cbf:	4d 85 e4             	test   %r12,%r12
  405cc2:	75 ac                	jne    405c70 <_ZNSt8_Rb_treeISsSt4pairIKSsP12netlist_elemESt10_Select1stIS4_ESt4lessISsESaIS4_EE8_M_eraseEPSt13_Rb_tree_nodeIS4_E+0x40>
  405cc4:	0f 1f 40 00          	nopl   0x0(%rax)
  405cc8:	48 8b 45 d8          	mov    -0x28(%rbp),%rax
  405ccc:	64 48 33 04 25 28 00 	xor    %fs:0x28,%rax
  405cd3:	00 00 
  405cd5:	75 1e                	jne    405cf5 <_ZNSt8_Rb_treeISsSt4pairIKSsP12netlist_elemESt10_Select1stIS4_ESt4lessISsESaIS4_EE8_M_eraseEPSt13_Rb_tree_nodeIS4_E+0xc5>
  405cd7:	48 83 c4 18          	add    $0x18,%rsp
  405cdb:	5b                   	pop    %rbx
  405cdc:	41 5c                	pop    %r12
  405cde:	41 5d                	pop    %r13
  405ce0:	5d                   	pop    %rbp
  405ce1:	c3                   	retq   
  405ce2:	66 0f 1f 44 00 00    	nopw   0x0(%rax,%rax,1)
  405ce8:	8b 48 f8             	mov    -0x8(%rax),%ecx
  405ceb:	8d 71 ff             	lea    -0x1(%rcx),%esi
  405cee:	89 70 f8             	mov    %esi,-0x8(%rax)
  405cf1:	89 c8                	mov    %ecx,%eax
  405cf3:	eb b2                	jmp    405ca7 <_ZNSt8_Rb_treeISsSt4pairIKSsP12netlist_elemESt10_Select1stIS4_ESt4lessISsESaIS4_EE8_M_eraseEPSt13_Rb_tree_nodeIS4_E+0x77>
  405cf5:	e8 a6 d0 ff ff       	callq  402da0 <__stack_chk_fail@plt>
  405cfa:	66 0f 1f 44 00 00    	nopw   0x0(%rax,%rax,1)

0000000000405d00 <_ZNSt6vectorIP12netlist_elemSaIS1_EE13_M_insert_auxEN9__gnu_cxx17__normal_iteratorIPS1_S3_EERKS1_>:
  405d00:	55                   	push   %rbp
  405d01:	48 89 e5             	mov    %rsp,%rbp
  405d04:	41 57                	push   %r15
  405d06:	41 56                	push   %r14
  405d08:	41 55                	push   %r13
  405d0a:	41 54                	push   %r12
  405d0c:	49 89 f5             	mov    %rsi,%r13
  405d0f:	53                   	push   %rbx
  405d10:	49 89 fc             	mov    %rdi,%r12
  405d13:	48 83 ec 18          	sub    $0x18,%rsp
  405d17:	48 8b 47 08          	mov    0x8(%rdi),%rax
  405d1b:	48 3b 47 10          	cmp    0x10(%rdi),%rax
  405d1f:	74 57                	je     405d78 <_ZNSt6vectorIP12netlist_elemSaIS1_EE13_M_insert_auxEN9__gnu_cxx17__normal_iteratorIPS1_S3_EERKS1_+0x78>
  405d21:	48 85 c0             	test   %rax,%rax
  405d24:	74 0b                	je     405d31 <_ZNSt6vectorIP12netlist_elemSaIS1_EE13_M_insert_auxEN9__gnu_cxx17__normal_iteratorIPS1_S3_EERKS1_+0x31>
  405d26:	48 8b 48 f8          	mov    -0x8(%rax),%rcx
  405d2a:	48 89 08             	mov    %rcx,(%rax)
  405d2d:	48 8b 47 08          	mov    0x8(%rdi),%rax
  405d31:	48 8d 48 08          	lea    0x8(%rax),%rcx
  405d35:	49 89 4c 24 08       	mov    %rcx,0x8(%r12)
  405d3a:	48 8b 1a             	mov    (%rdx),%rbx
  405d3d:	48 8d 50 f8          	lea    -0x8(%rax),%rdx
  405d41:	4c 29 ea             	sub    %r13,%rdx
  405d44:	48 89 d1             	mov    %rdx,%rcx
  405d47:	48 c1 f9 03          	sar    $0x3,%rcx
  405d4b:	48 85 c9             	test   %rcx,%rcx
  405d4e:	74 0e                	je     405d5e <_ZNSt6vectorIP12netlist_elemSaIS1_EE13_M_insert_auxEN9__gnu_cxx17__normal_iteratorIPS1_S3_EERKS1_+0x5e>
  405d50:	48 29 d0             	sub    %rdx,%rax
  405d53:	4c 89 ee             	mov    %r13,%rsi
  405d56:	48 89 c7             	mov    %rax,%rdi
  405d59:	e8 02 d0 ff ff       	callq  402d60 <memmove@plt>
  405d5e:	49 89 5d 00          	mov    %rbx,0x0(%r13)
  405d62:	48 83 c4 18          	add    $0x18,%rsp
  405d66:	5b                   	pop    %rbx
  405d67:	41 5c                	pop    %r12
  405d69:	41 5d                	pop    %r13
  405d6b:	41 5e                	pop    %r14
  405d6d:	41 5f                	pop    %r15
  405d6f:	5d                   	pop    %rbp
  405d70:	c3                   	retq   
  405d71:	0f 1f 80 00 00 00 00 	nopl   0x0(%rax)
  405d78:	48 8b 0f             	mov    (%rdi),%rcx
  405d7b:	48 29 c8             	sub    %rcx,%rax
  405d7e:	48 c1 f8 03          	sar    $0x3,%rax
  405d82:	48 85 c0             	test   %rax,%rax
  405d85:	0f 84 95 00 00 00    	je     405e20 <_ZNSt6vectorIP12netlist_elemSaIS1_EE13_M_insert_auxEN9__gnu_cxx17__normal_iteratorIPS1_S3_EERKS1_+0x120>
  405d8b:	48 8d 34 00          	lea    (%rax,%rax,1),%rsi
  405d8f:	48 39 f0             	cmp    %rsi,%rax
  405d92:	0f 86 bd 00 00 00    	jbe    405e55 <_ZNSt6vectorIP12netlist_elemSaIS1_EE13_M_insert_auxEN9__gnu_cxx17__normal_iteratorIPS1_S3_EERKS1_+0x155>
  405d98:	4d 89 ef             	mov    %r13,%r15
  405d9b:	48 c7 c3 f8 ff ff ff 	mov    $0xfffffffffffffff8,%rbx
  405da2:	49 29 cf             	sub    %rcx,%r15
  405da5:	48 89 df             	mov    %rbx,%rdi
  405da8:	48 89 55 c8          	mov    %rdx,-0x38(%rbp)
  405dac:	e8 2f d1 ff ff       	callq  402ee0 <_Znwm@plt>
  405db1:	48 8b 55 c8          	mov    -0x38(%rbp),%rdx
  405db5:	49 89 c6             	mov    %rax,%r14
  405db8:	4d 01 f7             	add    %r14,%r15
  405dbb:	74 06                	je     405dc3 <_ZNSt6vectorIP12netlist_elemSaIS1_EE13_M_insert_auxEN9__gnu_cxx17__normal_iteratorIPS1_S3_EERKS1_+0xc3>
  405dbd:	48 8b 02             	mov    (%rdx),%rax
  405dc0:	49 89 07             	mov    %rax,(%r15)
  405dc3:	49 8b 34 24          	mov    (%r12),%rsi
  405dc7:	4d 89 ef             	mov    %r13,%r15
  405dca:	49 29 f7             	sub    %rsi,%r15
  405dcd:	4c 89 f8             	mov    %r15,%rax
  405dd0:	48 c1 f8 03          	sar    $0x3,%rax
  405dd4:	48 85 c0             	test   %rax,%rax
  405dd7:	75 6f                	jne    405e48 <_ZNSt6vectorIP12netlist_elemSaIS1_EE13_M_insert_auxEN9__gnu_cxx17__normal_iteratorIPS1_S3_EERKS1_+0x148>
  405dd9:	4b 8d 4c 3e 08       	lea    0x8(%r14,%r15,1),%rcx
  405dde:	4d 8b 7c 24 08       	mov    0x8(%r12),%r15
  405de3:	4d 29 ef             	sub    %r13,%r15
  405de6:	4c 89 f8             	mov    %r15,%rax
  405de9:	48 c1 f8 03          	sar    $0x3,%rax
  405ded:	48 85 c0             	test   %rax,%rax
  405df0:	75 3e                	jne    405e30 <_ZNSt6vectorIP12netlist_elemSaIS1_EE13_M_insert_auxEN9__gnu_cxx17__normal_iteratorIPS1_S3_EERKS1_+0x130>
  405df2:	49 8b 3c 24          	mov    (%r12),%rdi
  405df6:	49 01 cf             	add    %rcx,%r15
  405df9:	48 85 ff             	test   %rdi,%rdi
  405dfc:	74 05                	je     405e03 <_ZNSt6vectorIP12netlist_elemSaIS1_EE13_M_insert_auxEN9__gnu_cxx17__normal_iteratorIPS1_S3_EERKS1_+0x103>
  405dfe:	e8 ad cd ff ff       	callq  402bb0 <_ZdlPv@plt>
  405e03:	49 8d 04 1e          	lea    (%r14,%rbx,1),%rax
  405e07:	4d 89 34 24          	mov    %r14,(%r12)
  405e0b:	4d 89 7c 24 08       	mov    %r15,0x8(%r12)
  405e10:	49 89 44 24 10       	mov    %rax,0x10(%r12)
  405e15:	e9 48 ff ff ff       	jmpq   405d62 <_ZNSt6vectorIP12netlist_elemSaIS1_EE13_M_insert_auxEN9__gnu_cxx17__normal_iteratorIPS1_S3_EERKS1_+0x62>
  405e1a:	66 0f 1f 44 00 00    	nopw   0x0(%rax,%rax,1)
  405e20:	49 89 f7             	mov    %rsi,%r15
  405e23:	bb 08 00 00 00       	mov    $0x8,%ebx
  405e28:	49 29 cf             	sub    %rcx,%r15
  405e2b:	e9 75 ff ff ff       	jmpq   405da5 <_ZNSt6vectorIP12netlist_elemSaIS1_EE13_M_insert_auxEN9__gnu_cxx17__normal_iteratorIPS1_S3_EERKS1_+0xa5>
  405e30:	48 89 cf             	mov    %rcx,%rdi
  405e33:	4c 89 fa             	mov    %r15,%rdx
  405e36:	4c 89 ee             	mov    %r13,%rsi
  405e39:	e8 22 cf ff ff       	callq  402d60 <memmove@plt>
  405e3e:	48 89 c1             	mov    %rax,%rcx
  405e41:	eb af                	jmp    405df2 <_ZNSt6vectorIP12netlist_elemSaIS1_EE13_M_insert_auxEN9__gnu_cxx17__normal_iteratorIPS1_S3_EERKS1_+0xf2>
  405e43:	0f 1f 44 00 00       	nopl   0x0(%rax,%rax,1)
  405e48:	4c 89 fa             	mov    %r15,%rdx
  405e4b:	4c 89 f7             	mov    %r14,%rdi
  405e4e:	e8 0d cf ff ff       	callq  402d60 <memmove@plt>
  405e53:	eb 84                	jmp    405dd9 <_ZNSt6vectorIP12netlist_elemSaIS1_EE13_M_insert_auxEN9__gnu_cxx17__normal_iteratorIPS1_S3_EERKS1_+0xd9>
  405e55:	48 bf ff ff ff ff ff 	movabs $0x1fffffffffffffff,%rdi
  405e5c:	ff ff 1f 
  405e5f:	48 39 fe             	cmp    %rdi,%rsi
  405e62:	0f 87 30 ff ff ff    	ja     405d98 <_ZNSt6vectorIP12netlist_elemSaIS1_EE13_M_insert_auxEN9__gnu_cxx17__normal_iteratorIPS1_S3_EERKS1_+0x98>
  405e68:	4d 89 ef             	mov    %r13,%r15
  405e6b:	48 c1 e0 04          	shl    $0x4,%rax
  405e6f:	45 31 f6             	xor    %r14d,%r14d
  405e72:	49 29 cf             	sub    %rcx,%r15
  405e75:	48 85 f6             	test   %rsi,%rsi
  405e78:	48 89 c3             	mov    %rax,%rbx
  405e7b:	0f 84 37 ff ff ff    	je     405db8 <_ZNSt6vectorIP12netlist_elemSaIS1_EE13_M_insert_auxEN9__gnu_cxx17__normal_iteratorIPS1_S3_EERKS1_+0xb8>
  405e81:	e9 1f ff ff ff       	jmpq   405da5 <_ZNSt6vectorIP12netlist_elemSaIS1_EE13_M_insert_auxEN9__gnu_cxx17__normal_iteratorIPS1_S3_EERKS1_+0xa5>
  405e86:	66 2e 0f 1f 84 00 00 	nopw   %cs:0x0(%rax,%rax,1)
  405e8d:	00 00 00 

0000000000405e90 <_ZNSt8_Rb_treeISsSt4pairIKSsP12netlist_elemESt10_Select1stIS4_ESt4lessISsESaIS4_EE24_M_get_insert_unique_posERS1_>:
  405e90:	55                   	push   %rbp
  405e91:	48 89 e5             	mov    %rsp,%rbp
  405e94:	41 57                	push   %r15
  405e96:	41 56                	push   %r14
  405e98:	41 55                	push   %r13
  405e9a:	41 54                	push   %r12
  405e9c:	53                   	push   %rbx
  405e9d:	48 83 ec 28          	sub    $0x28,%rsp
  405ea1:	4c 8b 77 10          	mov    0x10(%rdi),%r14
  405ea5:	48 89 7d b8          	mov    %rdi,-0x48(%rbp)
  405ea9:	48 89 75 c0          	mov    %rsi,-0x40(%rbp)
  405ead:	4d 85 f6             	test   %r14,%r14
  405eb0:	0f 84 de 00 00 00    	je     405f94 <_ZNSt8_Rb_treeISsSt4pairIKSsP12netlist_elemESt10_Select1stIS4_ESt4lessISsESaIS4_EE24_M_get_insert_unique_posERS1_+0x104>
  405eb6:	48 8b 45 c0          	mov    -0x40(%rbp),%rax
  405eba:	48 8b 00             	mov    (%rax),%rax
  405ebd:	48 89 45 c8          	mov    %rax,-0x38(%rbp)
  405ec1:	4c 8b 68 e8          	mov    -0x18(%rax),%r13
  405ec5:	eb 26                	jmp    405eed <_ZNSt8_Rb_treeISsSt4pairIKSsP12netlist_elemESt10_Select1stIS4_ESt4lessISsESaIS4_EE24_M_get_insert_unique_posERS1_+0x5d>
  405ec7:	66 0f 1f 84 00 00 00 	nopw   0x0(%rax,%rax,1)
  405ece:	00 00 
  405ed0:	48 3d 00 00 00 80    	cmp    $0xffffffff80000000,%rax
  405ed6:	7c 04                	jl     405edc <_ZNSt8_Rb_treeISsSt4pairIKSsP12netlist_elemESt10_Select1stIS4_ESt4lessISsESaIS4_EE24_M_get_insert_unique_posERS1_+0x4c>
  405ed8:	85 c0                	test   %eax,%eax
  405eda:	79 45                	jns    405f21 <_ZNSt8_Rb_treeISsSt4pairIKSsP12netlist_elemESt10_Select1stIS4_ESt4lessISsESaIS4_EE24_M_get_insert_unique_posERS1_+0x91>
  405edc:	49 8b 46 10          	mov    0x10(%r14),%rax
  405ee0:	be 01 00 00 00       	mov    $0x1,%esi
  405ee5:	48 85 c0             	test   %rax,%rax
  405ee8:	74 42                	je     405f2c <_ZNSt8_Rb_treeISsSt4pairIKSsP12netlist_elemESt10_Select1stIS4_ESt4lessISsESaIS4_EE24_M_get_insert_unique_posERS1_+0x9c>
  405eea:	49 89 c6             	mov    %rax,%r14
  405eed:	4d 8b 66 20          	mov    0x20(%r14),%r12
  405ef1:	4c 89 eb             	mov    %r13,%rbx
  405ef4:	48 8b 7d c8          	mov    -0x38(%rbp),%rdi
  405ef8:	4d 8b 7c 24 e8       	mov    -0x18(%r12),%r15
  405efd:	4c 89 e6             	mov    %r12,%rsi
  405f00:	4d 39 ef             	cmp    %r13,%r15
  405f03:	49 0f 46 df          	cmovbe %r15,%rbx
  405f07:	48 89 da             	mov    %rbx,%rdx
  405f0a:	e8 f1 ce ff ff       	callq  402e00 <memcmp@plt>
  405f0f:	85 c0                	test   %eax,%eax
  405f11:	75 c5                	jne    405ed8 <_ZNSt8_Rb_treeISsSt4pairIKSsP12netlist_elemESt10_Select1stIS4_ESt4lessISsESaIS4_EE24_M_get_insert_unique_posERS1_+0x48>
  405f13:	4c 89 e8             	mov    %r13,%rax
  405f16:	4c 29 f8             	sub    %r15,%rax
  405f19:	48 3d ff ff ff 7f    	cmp    $0x7fffffff,%rax
  405f1f:	7e af                	jle    405ed0 <_ZNSt8_Rb_treeISsSt4pairIKSsP12netlist_elemESt10_Select1stIS4_ESt4lessISsESaIS4_EE24_M_get_insert_unique_posERS1_+0x40>
  405f21:	49 8b 46 18          	mov    0x18(%r14),%rax
  405f25:	31 f6                	xor    %esi,%esi
  405f27:	48 85 c0             	test   %rax,%rax
  405f2a:	75 be                	jne    405eea <_ZNSt8_Rb_treeISsSt4pairIKSsP12netlist_elemESt10_Select1stIS4_ESt4lessISsESaIS4_EE24_M_get_insert_unique_posERS1_+0x5a>
  405f2c:	40 84 f6             	test   %sil,%sil
  405f2f:	48 89 da             	mov    %rbx,%rdx
  405f32:	4c 89 f3             	mov    %r14,%rbx
  405f35:	75 69                	jne    405fa0 <_ZNSt8_Rb_treeISsSt4pairIKSsP12netlist_elemESt10_Select1stIS4_ESt4lessISsESaIS4_EE24_M_get_insert_unique_posERS1_+0x110>
  405f37:	48 8b 75 c8          	mov    -0x38(%rbp),%rsi
  405f3b:	4c 89 e7             	mov    %r12,%rdi
  405f3e:	e8 bd ce ff ff       	callq  402e00 <memcmp@plt>
  405f43:	85 c0                	test   %eax,%eax
  405f45:	75 35                	jne    405f7c <_ZNSt8_Rb_treeISsSt4pairIKSsP12netlist_elemESt10_Select1stIS4_ESt4lessISsESaIS4_EE24_M_get_insert_unique_posERS1_+0xec>
  405f47:	4d 29 ef             	sub    %r13,%r15
  405f4a:	49 81 ff ff ff ff 7f 	cmp    $0x7fffffff,%r15
  405f51:	7e 1d                	jle    405f70 <_ZNSt8_Rb_treeISsSt4pairIKSsP12netlist_elemESt10_Select1stIS4_ESt4lessISsESaIS4_EE24_M_get_insert_unique_posERS1_+0xe0>
  405f53:	4c 89 f0             	mov    %r14,%rax
  405f56:	31 d2                	xor    %edx,%edx
  405f58:	48 83 c4 28          	add    $0x28,%rsp
  405f5c:	5b                   	pop    %rbx
  405f5d:	41 5c                	pop    %r12
  405f5f:	41 5d                	pop    %r13
  405f61:	41 5e                	pop    %r14
  405f63:	41 5f                	pop    %r15
  405f65:	5d                   	pop    %rbp
  405f66:	c3                   	retq   
  405f67:	66 0f 1f 84 00 00 00 	nopw   0x0(%rax,%rax,1)
  405f6e:	00 00 
  405f70:	49 81 ff 00 00 00 80 	cmp    $0xffffffff80000000,%r15
  405f77:	7c 07                	jl     405f80 <_ZNSt8_Rb_treeISsSt4pairIKSsP12netlist_elemESt10_Select1stIS4_ESt4lessISsESaIS4_EE24_M_get_insert_unique_posERS1_+0xf0>
  405f79:	44 89 f8             	mov    %r15d,%eax
  405f7c:	85 c0                	test   %eax,%eax
  405f7e:	79 d3                	jns    405f53 <_ZNSt8_Rb_treeISsSt4pairIKSsP12netlist_elemESt10_Select1stIS4_ESt4lessISsESaIS4_EE24_M_get_insert_unique_posERS1_+0xc3>
  405f80:	48 83 c4 28          	add    $0x28,%rsp
  405f84:	48 89 da             	mov    %rbx,%rdx
  405f87:	31 c0                	xor    %eax,%eax
  405f89:	5b                   	pop    %rbx
  405f8a:	41 5c                	pop    %r12
  405f8c:	41 5d                	pop    %r13
  405f8e:	41 5e                	pop    %r14
  405f90:	41 5f                	pop    %r15
  405f92:	5d                   	pop    %rbp
  405f93:	c3                   	retq   
  405f94:	4c 8d 77 08          	lea    0x8(%rdi),%r14
  405f98:	0f 1f 84 00 00 00 00 	nopl   0x0(%rax,%rax,1)
  405f9f:	00 
  405fa0:	48 8b 45 b8          	mov    -0x48(%rbp),%rax
  405fa4:	4c 39 70 18          	cmp    %r14,0x18(%rax)
  405fa8:	74 35                	je     405fdf <_ZNSt8_Rb_treeISsSt4pairIKSsP12netlist_elemESt10_Select1stIS4_ESt4lessISsESaIS4_EE24_M_get_insert_unique_posERS1_+0x14f>
  405faa:	4c 89 f7             	mov    %r14,%rdi
  405fad:	4c 89 f3             	mov    %r14,%rbx
  405fb0:	e8 7b cc ff ff       	callq  402c30 <_ZSt18_Rb_tree_decrementPSt18_Rb_tree_node_base@plt>
  405fb5:	48 8b 4d c0          	mov    -0x40(%rbp),%rcx
  405fb9:	4c 8b 60 20          	mov    0x20(%rax),%r12
  405fbd:	49 89 c6             	mov    %rax,%r14
  405fc0:	48 8b 09             	mov    (%rcx),%rcx
  405fc3:	4d 8b 7c 24 e8       	mov    -0x18(%r12),%r15
  405fc8:	4c 8b 69 e8          	mov    -0x18(%rcx),%r13
  405fcc:	48 89 4d c8          	mov    %rcx,-0x38(%rbp)
  405fd0:	4d 39 ef             	cmp    %r13,%r15
  405fd3:	4c 89 ea             	mov    %r13,%rdx
  405fd6:	49 0f 46 d7          	cmovbe %r15,%rdx
  405fda:	e9 58 ff ff ff       	jmpq   405f37 <_ZNSt8_Rb_treeISsSt4pairIKSsP12netlist_elemESt10_Select1stIS4_ESt4lessISsESaIS4_EE24_M_get_insert_unique_posERS1_+0xa7>
  405fdf:	31 c0                	xor    %eax,%eax
  405fe1:	4c 89 f2             	mov    %r14,%rdx
  405fe4:	e9 6f ff ff ff       	jmpq   405f58 <_ZNSt8_Rb_treeISsSt4pairIKSsP12netlist_elemESt10_Select1stIS4_ESt4lessISsESaIS4_EE24_M_get_insert_unique_posERS1_+0xc8>
  405fe9:	0f 1f 80 00 00 00 00 	nopl   0x0(%rax)

0000000000405ff0 <_ZNSt8_Rb_treeISsSt4pairIKSsP12netlist_elemESt10_Select1stIS4_ESt4lessISsESaIS4_EE29_M_get_insert_hint_unique_posESt23_Rb_tree_const_iteratorIS4_ERS1_>:
  405ff0:	55                   	push   %rbp
  405ff1:	48 8d 47 08          	lea    0x8(%rdi),%rax
  405ff5:	48 89 e5             	mov    %rsp,%rbp
  405ff8:	41 57                	push   %r15
  405ffa:	41 56                	push   %r14
  405ffc:	41 55                	push   %r13
  405ffe:	41 54                	push   %r12
  406000:	49 89 fe             	mov    %rdi,%r14
  406003:	53                   	push   %rbx
  406004:	49 89 f7             	mov    %rsi,%r15
  406007:	48 83 ec 28          	sub    $0x28,%rsp
  40600b:	48 39 c6             	cmp    %rax,%rsi
  40600e:	48 89 55 c8          	mov    %rdx,-0x38(%rbp)
  406012:	0f 84 48 01 00 00    	je     406160 <_ZNSt8_Rb_treeISsSt4pairIKSsP12netlist_elemESt10_Select1stIS4_ESt4lessISsESaIS4_EE29_M_get_insert_hint_unique_posESt23_Rb_tree_const_iteratorIS4_ERS1_+0x170>
  406018:	48 8b 45 c8          	mov    -0x38(%rbp),%rax
  40601c:	4c 8b 46 20          	mov    0x20(%rsi),%r8
  406020:	4c 8b 28             	mov    (%rax),%r13
  406023:	4d 8b 60 e8          	mov    -0x18(%r8),%r12
  406027:	4c 89 c6             	mov    %r8,%rsi
  40602a:	4c 89 45 c0          	mov    %r8,-0x40(%rbp)
  40602e:	49 8b 5d e8          	mov    -0x18(%r13),%rbx
  406032:	4c 89 ef             	mov    %r13,%rdi
  406035:	49 39 dc             	cmp    %rbx,%r12
  406038:	49 89 d9             	mov    %rbx,%r9
  40603b:	4d 0f 46 cc          	cmovbe %r12,%r9
  40603f:	4c 89 ca             	mov    %r9,%rdx
  406042:	4c 89 4d b8          	mov    %r9,-0x48(%rbp)
  406046:	e8 b5 cd ff ff       	callq  402e00 <memcmp@plt>
  40604b:	85 c0                	test   %eax,%eax
  40604d:	4c 8b 45 c0          	mov    -0x40(%rbp),%r8
  406051:	4c 8b 4d b8          	mov    -0x48(%rbp),%r9
  406055:	0f 85 f5 00 00 00    	jne    406150 <_ZNSt8_Rb_treeISsSt4pairIKSsP12netlist_elemESt10_Select1stIS4_ESt4lessISsESaIS4_EE29_M_get_insert_hint_unique_posESt23_Rb_tree_const_iteratorIS4_ERS1_+0x160>
  40605b:	48 89 d8             	mov    %rbx,%rax
  40605e:	4c 29 e0             	sub    %r12,%rax
  406061:	48 3d ff ff ff 7f    	cmp    $0x7fffffff,%rax
  406067:	7e 4f                	jle    4060b8 <_ZNSt8_Rb_treeISsSt4pairIKSsP12netlist_elemESt10_Select1stIS4_ESt4lessISsESaIS4_EE29_M_get_insert_hint_unique_posESt23_Rb_tree_const_iteratorIS4_ERS1_+0xc8>
  406069:	4c 89 ca             	mov    %r9,%rdx
  40606c:	4c 89 ee             	mov    %r13,%rsi
  40606f:	4c 89 c7             	mov    %r8,%rdi
  406072:	e8 89 cd ff ff       	callq  402e00 <memcmp@plt>
  406077:	85 c0                	test   %eax,%eax
  406079:	75 1c                	jne    406097 <_ZNSt8_Rb_treeISsSt4pairIKSsP12netlist_elemESt10_Select1stIS4_ESt4lessISsESaIS4_EE29_M_get_insert_hint_unique_posESt23_Rb_tree_const_iteratorIS4_ERS1_+0xa7>
  40607b:	49 29 dc             	sub    %rbx,%r12
  40607e:	49 81 fc ff ff ff 7f 	cmp    $0x7fffffff,%r12
  406085:	7f 18                	jg     40609f <_ZNSt8_Rb_treeISsSt4pairIKSsP12netlist_elemESt10_Select1stIS4_ESt4lessISsESaIS4_EE29_M_get_insert_hint_unique_posESt23_Rb_tree_const_iteratorIS4_ERS1_+0xaf>
  406087:	49 81 fc 00 00 00 80 	cmp    $0xffffffff80000000,%r12
  40608e:	0f 8c 44 01 00 00    	jl     4061d8 <_ZNSt8_Rb_treeISsSt4pairIKSsP12netlist_elemESt10_Select1stIS4_ESt4lessISsESaIS4_EE29_M_get_insert_hint_unique_posESt23_Rb_tree_const_iteratorIS4_ERS1_+0x1e8>
  406094:	44 89 e0             	mov    %r12d,%eax
  406097:	85 c0                	test   %eax,%eax
  406099:	0f 88 39 01 00 00    	js     4061d8 <_ZNSt8_Rb_treeISsSt4pairIKSsP12netlist_elemESt10_Select1stIS4_ESt4lessISsESaIS4_EE29_M_get_insert_hint_unique_posESt23_Rb_tree_const_iteratorIS4_ERS1_+0x1e8>
  40609f:	4c 89 f8             	mov    %r15,%rax
  4060a2:	31 d2                	xor    %edx,%edx
  4060a4:	48 83 c4 28          	add    $0x28,%rsp
  4060a8:	5b                   	pop    %rbx
  4060a9:	41 5c                	pop    %r12
  4060ab:	41 5d                	pop    %r13
  4060ad:	41 5e                	pop    %r14
  4060af:	41 5f                	pop    %r15
  4060b1:	5d                   	pop    %rbp
  4060b2:	c3                   	retq   
  4060b3:	0f 1f 44 00 00       	nopl   0x0(%rax,%rax,1)
  4060b8:	48 3d 00 00 00 80    	cmp    $0xffffffff80000000,%rax
  4060be:	0f 8d 8c 00 00 00    	jge    406150 <_ZNSt8_Rb_treeISsSt4pairIKSsP12netlist_elemESt10_Select1stIS4_ESt4lessISsESaIS4_EE29_M_get_insert_hint_unique_posESt23_Rb_tree_const_iteratorIS4_ERS1_+0x160>
  4060c4:	4d 39 7e 18          	cmp    %r15,0x18(%r14)
  4060c8:	4c 89 f8             	mov    %r15,%rax
  4060cb:	4c 89 fa             	mov    %r15,%rdx
  4060ce:	74 d4                	je     4060a4 <_ZNSt8_Rb_treeISsSt4pairIKSsP12netlist_elemESt10_Select1stIS4_ESt4lessISsESaIS4_EE29_M_get_insert_hint_unique_posESt23_Rb_tree_const_iteratorIS4_ERS1_+0xb4>
  4060d0:	4c 89 ff             	mov    %r15,%rdi
  4060d3:	e8 58 cb ff ff       	callq  402c30 <_ZSt18_Rb_tree_decrementPSt18_Rb_tree_node_base@plt>
  4060d8:	48 8b 78 20          	mov    0x20(%rax),%rdi
  4060dc:	48 89 da             	mov    %rbx,%rdx
  4060df:	4c 89 ee             	mov    %r13,%rsi
  4060e2:	48 89 45 c0          	mov    %rax,-0x40(%rbp)
  4060e6:	4c 8b 67 e8          	mov    -0x18(%rdi),%r12
  4060ea:	49 39 dc             	cmp    %rbx,%r12
  4060ed:	49 0f 46 d4          	cmovbe %r12,%rdx
  4060f1:	e8 0a cd ff ff       	callq  402e00 <memcmp@plt>
  4060f6:	85 c0                	test   %eax,%eax
  4060f8:	4c 8b 45 c0          	mov    -0x40(%rbp),%r8
  4060fc:	75 1c                	jne    40611a <_ZNSt8_Rb_treeISsSt4pairIKSsP12netlist_elemESt10_Select1stIS4_ESt4lessISsESaIS4_EE29_M_get_insert_hint_unique_posESt23_Rb_tree_const_iteratorIS4_ERS1_+0x12a>
  4060fe:	49 29 dc             	sub    %rbx,%r12
  406101:	49 81 fc ff ff ff 7f 	cmp    $0x7fffffff,%r12
  406108:	0f 8f aa 00 00 00    	jg     4061b8 <_ZNSt8_Rb_treeISsSt4pairIKSsP12netlist_elemESt10_Select1stIS4_ESt4lessISsESaIS4_EE29_M_get_insert_hint_unique_posESt23_Rb_tree_const_iteratorIS4_ERS1_+0x1c8>
  40610e:	49 81 fc 00 00 00 80 	cmp    $0xffffffff80000000,%r12
  406115:	7c 0b                	jl     406122 <_ZNSt8_Rb_treeISsSt4pairIKSsP12netlist_elemESt10_Select1stIS4_ESt4lessISsESaIS4_EE29_M_get_insert_hint_unique_posESt23_Rb_tree_const_iteratorIS4_ERS1_+0x132>
  406117:	44 89 e0             	mov    %r12d,%eax
  40611a:	85 c0                	test   %eax,%eax
  40611c:	0f 89 96 00 00 00    	jns    4061b8 <_ZNSt8_Rb_treeISsSt4pairIKSsP12netlist_elemESt10_Select1stIS4_ESt4lessISsESaIS4_EE29_M_get_insert_hint_unique_posESt23_Rb_tree_const_iteratorIS4_ERS1_+0x1c8>
  406122:	49 83 78 18 00       	cmpq   $0x0,0x18(%r8)
  406127:	be 00 00 00 00       	mov    $0x0,%esi
  40612c:	4c 89 fa             	mov    %r15,%rdx
  40612f:	48 89 f0             	mov    %rsi,%rax
  406132:	49 0f 45 c7          	cmovne %r15,%rax
  406136:	49 0f 44 d0          	cmove  %r8,%rdx
  40613a:	48 83 c4 28          	add    $0x28,%rsp
  40613e:	5b                   	pop    %rbx
  40613f:	41 5c                	pop    %r12
  406141:	41 5d                	pop    %r13
  406143:	41 5e                	pop    %r14
  406145:	41 5f                	pop    %r15
  406147:	5d                   	pop    %rbp
  406148:	c3                   	retq   
  406149:	0f 1f 80 00 00 00 00 	nopl   0x0(%rax)
  406150:	85 c0                	test   %eax,%eax
  406152:	0f 89 11 ff ff ff    	jns    406069 <_ZNSt8_Rb_treeISsSt4pairIKSsP12netlist_elemESt10_Select1stIS4_ESt4lessISsESaIS4_EE29_M_get_insert_hint_unique_posESt23_Rb_tree_const_iteratorIS4_ERS1_+0x79>
  406158:	e9 67 ff ff ff       	jmpq   4060c4 <_ZNSt8_Rb_treeISsSt4pairIKSsP12netlist_elemESt10_Select1stIS4_ESt4lessISsESaIS4_EE29_M_get_insert_hint_unique_posESt23_Rb_tree_const_iteratorIS4_ERS1_+0xd4>
  40615d:	0f 1f 00             	nopl   (%rax)
  406160:	48 83 7f 28 00       	cmpq   $0x0,0x28(%rdi)
  406165:	74 51                	je     4061b8 <_ZNSt8_Rb_treeISsSt4pairIKSsP12netlist_elemESt10_Select1stIS4_ESt4lessISsESaIS4_EE29_M_get_insert_hint_unique_posESt23_Rb_tree_const_iteratorIS4_ERS1_+0x1c8>
  406167:	48 8b 5f 20          	mov    0x20(%rdi),%rbx
  40616b:	48 8b 32             	mov    (%rdx),%rsi
  40616e:	48 8b 7b 20          	mov    0x20(%rbx),%rdi
  406172:	4c 8b 6e e8          	mov    -0x18(%rsi),%r13
  406176:	4c 8b 67 e8          	mov    -0x18(%rdi),%r12
  40617a:	4d 39 e5             	cmp    %r12,%r13
  40617d:	4c 89 e2             	mov    %r12,%rdx
  406180:	49 0f 46 d5          	cmovbe %r13,%rdx
  406184:	e8 77 cc ff ff       	callq  402e00 <memcmp@plt>
  406189:	85 c0                	test   %eax,%eax
  40618b:	75 1c                	jne    4061a9 <_ZNSt8_Rb_treeISsSt4pairIKSsP12netlist_elemESt10_Select1stIS4_ESt4lessISsESaIS4_EE29_M_get_insert_hint_unique_posESt23_Rb_tree_const_iteratorIS4_ERS1_+0x1b9>
  40618d:	4d 29 ec             	sub    %r13,%r12
  406190:	49 81 fc ff ff ff 7f 	cmp    $0x7fffffff,%r12
  406197:	7f 1f                	jg     4061b8 <_ZNSt8_Rb_treeISsSt4pairIKSsP12netlist_elemESt10_Select1stIS4_ESt4lessISsESaIS4_EE29_M_get_insert_hint_unique_posESt23_Rb_tree_const_iteratorIS4_ERS1_+0x1c8>
  406199:	49 81 fc 00 00 00 80 	cmp    $0xffffffff80000000,%r12
  4061a0:	0f 8c aa 00 00 00    	jl     406250 <_ZNSt8_Rb_treeISsSt4pairIKSsP12netlist_elemESt10_Select1stIS4_ESt4lessISsESaIS4_EE29_M_get_insert_hint_unique_posESt23_Rb_tree_const_iteratorIS4_ERS1_+0x260>
  4061a6:	44 89 e0             	mov    %r12d,%eax
  4061a9:	85 c0                	test   %eax,%eax
  4061ab:	0f 88 9f 00 00 00    	js     406250 <_ZNSt8_Rb_treeISsSt4pairIKSsP12netlist_elemESt10_Select1stIS4_ESt4lessISsESaIS4_EE29_M_get_insert_hint_unique_posESt23_Rb_tree_const_iteratorIS4_ERS1_+0x260>
  4061b1:	0f 1f 80 00 00 00 00 	nopl   0x0(%rax)
  4061b8:	48 8b 75 c8          	mov    -0x38(%rbp),%rsi
  4061bc:	4c 89 f7             	mov    %r14,%rdi
  4061bf:	e8 cc fc ff ff       	callq  405e90 <_ZNSt8_Rb_treeISsSt4pairIKSsP12netlist_elemESt10_Select1stIS4_ESt4lessISsESaIS4_EE24_M_get_insert_unique_posERS1_>
  4061c4:	48 83 c4 28          	add    $0x28,%rsp
  4061c8:	5b                   	pop    %rbx
  4061c9:	41 5c                	pop    %r12
  4061cb:	41 5d                	pop    %r13
  4061cd:	41 5e                	pop    %r14
  4061cf:	41 5f                	pop    %r15
  4061d1:	5d                   	pop    %rbp
  4061d2:	c3                   	retq   
  4061d3:	0f 1f 44 00 00       	nopl   0x0(%rax,%rax,1)
  4061d8:	31 c0                	xor    %eax,%eax
  4061da:	4d 39 7e 20          	cmp    %r15,0x20(%r14)
  4061de:	4c 89 fa             	mov    %r15,%rdx
  4061e1:	0f 84 bd fe ff ff    	je     4060a4 <_ZNSt8_Rb_treeISsSt4pairIKSsP12netlist_elemESt10_Select1stIS4_ESt4lessISsESaIS4_EE29_M_get_insert_hint_unique_posESt23_Rb_tree_const_iteratorIS4_ERS1_+0xb4>
  4061e7:	4c 89 ff             	mov    %r15,%rdi
  4061ea:	e8 61 cc ff ff       	callq  402e50 <_ZSt18_Rb_tree_incrementPSt18_Rb_tree_node_base@plt>
  4061ef:	48 8b 70 20          	mov    0x20(%rax),%rsi
  4061f3:	48 89 da             	mov    %rbx,%rdx
  4061f6:	4c 89 ef             	mov    %r13,%rdi
  4061f9:	48 89 45 c0          	mov    %rax,-0x40(%rbp)
  4061fd:	4c 8b 66 e8          	mov    -0x18(%rsi),%r12
  406201:	49 39 dc             	cmp    %rbx,%r12
  406204:	49 0f 46 d4          	cmovbe %r12,%rdx
  406208:	e8 f3 cb ff ff       	callq  402e00 <memcmp@plt>
  40620d:	85 c0                	test   %eax,%eax
  40620f:	4c 8b 45 c0          	mov    -0x40(%rbp),%r8
  406213:	75 17                	jne    40622c <_ZNSt8_Rb_treeISsSt4pairIKSsP12netlist_elemESt10_Select1stIS4_ESt4lessISsESaIS4_EE29_M_get_insert_hint_unique_posESt23_Rb_tree_const_iteratorIS4_ERS1_+0x23c>
  406215:	4c 29 e3             	sub    %r12,%rbx
  406218:	48 81 fb ff ff ff 7f 	cmp    $0x7fffffff,%rbx
  40621f:	7f 97                	jg     4061b8 <_ZNSt8_Rb_treeISsSt4pairIKSsP12netlist_elemESt10_Select1stIS4_ESt4lessISsESaIS4_EE29_M_get_insert_hint_unique_posESt23_Rb_tree_const_iteratorIS4_ERS1_+0x1c8>
  406221:	48 81 fb 00 00 00 80 	cmp    $0xffffffff80000000,%rbx
  406228:	7c 06                	jl     406230 <_ZNSt8_Rb_treeISsSt4pairIKSsP12netlist_elemESt10_Select1stIS4_ESt4lessISsESaIS4_EE29_M_get_insert_hint_unique_posESt23_Rb_tree_const_iteratorIS4_ERS1_+0x240>
  40622a:	89 d8                	mov    %ebx,%eax
  40622c:	85 c0                	test   %eax,%eax
  40622e:	79 88                	jns    4061b8 <_ZNSt8_Rb_treeISsSt4pairIKSsP12netlist_elemESt10_Select1stIS4_ESt4lessISsESaIS4_EE29_M_get_insert_hint_unique_posESt23_Rb_tree_const_iteratorIS4_ERS1_+0x1c8>
  406230:	49 83 7f 18 00       	cmpq   $0x0,0x18(%r15)
  406235:	be 00 00 00 00       	mov    $0x0,%esi
  40623a:	4c 89 fa             	mov    %r15,%rdx
  40623d:	48 89 f0             	mov    %rsi,%rax
  406240:	49 0f 45 c0          	cmovne %r8,%rax
  406244:	49 0f 45 d0          	cmovne %r8,%rdx
  406248:	e9 57 fe ff ff       	jmpq   4060a4 <_ZNSt8_Rb_treeISsSt4pairIKSsP12netlist_elemESt10_Select1stIS4_ESt4lessISsESaIS4_EE29_M_get_insert_hint_unique_posESt23_Rb_tree_const_iteratorIS4_ERS1_+0xb4>
  40624d:	0f 1f 00             	nopl   (%rax)
  406250:	48 83 c4 28          	add    $0x28,%rsp
  406254:	48 89 da             	mov    %rbx,%rdx
  406257:	31 c0                	xor    %eax,%eax
  406259:	5b                   	pop    %rbx
  40625a:	41 5c                	pop    %r12
  40625c:	41 5d                	pop    %r13
  40625e:	41 5e                	pop    %r14
  406260:	41 5f                	pop    %r15
  406262:	5d                   	pop    %rbp
  406263:	c3                   	retq   
  406264:	66 2e 0f 1f 84 00 00 	nopw   %cs:0x0(%rax,%rax,1)
  40626b:	00 00 00 
  40626e:	66 90                	xchg   %ax,%ax

0000000000406270 <_ZNSt8_Rb_treeISsSt4pairIKSsP12netlist_elemESt10_Select1stIS4_ESt4lessISsESaIS4_EE17_M_insert_unique_ESt23_Rb_tree_const_iteratorIS4_ERKS4_>:
  406270:	55                   	push   %rbp
  406271:	48 89 e5             	mov    %rsp,%rbp
  406274:	41 57                	push   %r15
  406276:	41 56                	push   %r14
  406278:	41 55                	push   %r13
  40627a:	41 54                	push   %r12
  40627c:	49 89 d5             	mov    %rdx,%r13
  40627f:	53                   	push   %rbx
  406280:	49 89 fc             	mov    %rdi,%r12
  406283:	48 83 ec 18          	sub    $0x18,%rsp
  406287:	e8 64 fd ff ff       	callq  405ff0 <_ZNSt8_Rb_treeISsSt4pairIKSsP12netlist_elemESt10_Select1stIS4_ESt4lessISsESaIS4_EE29_M_get_insert_hint_unique_posESt23_Rb_tree_const_iteratorIS4_ERS1_>
  40628c:	48 85 d2             	test   %rdx,%rdx
  40628f:	49 89 d6             	mov    %rdx,%r14
  406292:	74 49                	je     4062dd <_ZNSt8_Rb_treeISsSt4pairIKSsP12netlist_elemESt10_Select1stIS4_ESt4lessISsESaIS4_EE17_M_insert_unique_ESt23_Rb_tree_const_iteratorIS4_ERKS4_+0x6d>
  406294:	48 85 c0             	test   %rax,%rax
  406297:	41 bf 01 00 00 00    	mov    $0x1,%r15d
  40629d:	74 51                	je     4062f0 <_ZNSt8_Rb_treeISsSt4pairIKSsP12netlist_elemESt10_Select1stIS4_ESt4lessISsESaIS4_EE17_M_insert_unique_ESt23_Rb_tree_const_iteratorIS4_ERKS4_+0x80>
  40629f:	bf 30 00 00 00       	mov    $0x30,%edi
  4062a4:	e8 37 cc ff ff       	callq  402ee0 <_Znwm@plt>
  4062a9:	48 8d 78 20          	lea    0x20(%rax),%rdi
  4062ad:	48 89 c3             	mov    %rax,%rbx
  4062b0:	4c 89 ee             	mov    %r13,%rsi
  4062b3:	e8 98 c9 ff ff       	callq  402c50 <_ZNSsC1ERKSs@plt>
  4062b8:	49 8b 45 08          	mov    0x8(%r13),%rax
  4062bc:	49 8d 4c 24 08       	lea    0x8(%r12),%rcx
  4062c1:	41 0f b6 ff          	movzbl %r15b,%edi
  4062c5:	4c 89 f2             	mov    %r14,%rdx
  4062c8:	48 89 de             	mov    %rbx,%rsi
  4062cb:	48 89 43 28          	mov    %rax,0x28(%rbx)
  4062cf:	e8 ac ca ff ff       	callq  402d80 <_ZSt29_Rb_tree_insert_and_rebalancebPSt18_Rb_tree_node_baseS0_RS_@plt>
  4062d4:	49 83 44 24 28 01    	addq   $0x1,0x28(%r12)
  4062da:	48 89 d8             	mov    %rbx,%rax
  4062dd:	48 83 c4 18          	add    $0x18,%rsp
  4062e1:	5b                   	pop    %rbx
  4062e2:	41 5c                	pop    %r12
  4062e4:	41 5d                	pop    %r13
  4062e6:	41 5e                	pop    %r14
  4062e8:	41 5f                	pop    %r15
  4062ea:	5d                   	pop    %rbp
  4062eb:	c3                   	retq   
  4062ec:	0f 1f 40 00          	nopl   0x0(%rax)
  4062f0:	49 8d 44 24 08       	lea    0x8(%r12),%rax
  4062f5:	48 39 c2             	cmp    %rax,%rdx
  4062f8:	74 a5                	je     40629f <_ZNSt8_Rb_treeISsSt4pairIKSsP12netlist_elemESt10_Select1stIS4_ESt4lessISsESaIS4_EE17_M_insert_unique_ESt23_Rb_tree_const_iteratorIS4_ERKS4_+0x2f>
  4062fa:	48 8b 72 20          	mov    0x20(%rdx),%rsi
  4062fe:	49 8b 7d 00          	mov    0x0(%r13),%rdi
  406302:	48 8b 4e e8          	mov    -0x18(%rsi),%rcx
  406306:	48 8b 5f e8          	mov    -0x18(%rdi),%rbx
  40630a:	48 39 d9             	cmp    %rbx,%rcx
  40630d:	48 89 da             	mov    %rbx,%rdx
  406310:	48 89 4d c8          	mov    %rcx,-0x38(%rbp)
  406314:	48 0f 46 d1          	cmovbe %rcx,%rdx
  406318:	e8 e3 ca ff ff       	callq  402e00 <memcmp@plt>
  40631d:	85 c0                	test   %eax,%eax
  40631f:	75 2e                	jne    40634f <_ZNSt8_Rb_treeISsSt4pairIKSsP12netlist_elemESt10_Select1stIS4_ESt4lessISsESaIS4_EE17_M_insert_unique_ESt23_Rb_tree_const_iteratorIS4_ERKS4_+0xdf>
  406321:	48 8b 4d c8          	mov    -0x38(%rbp),%rcx
  406325:	48 29 cb             	sub    %rcx,%rbx
  406328:	48 81 fb ff ff ff 7f 	cmp    $0x7fffffff,%rbx
  40632f:	7e 0f                	jle    406340 <_ZNSt8_Rb_treeISsSt4pairIKSsP12netlist_elemESt10_Select1stIS4_ESt4lessISsESaIS4_EE17_M_insert_unique_ESt23_Rb_tree_const_iteratorIS4_ERKS4_+0xd0>
  406331:	45 31 ff             	xor    %r15d,%r15d
  406334:	e9 66 ff ff ff       	jmpq   40629f <_ZNSt8_Rb_treeISsSt4pairIKSsP12netlist_elemESt10_Select1stIS4_ESt4lessISsESaIS4_EE17_M_insert_unique_ESt23_Rb_tree_const_iteratorIS4_ERKS4_+0x2f>
  406339:	0f 1f 80 00 00 00 00 	nopl   0x0(%rax)
  406340:	48 81 fb 00 00 00 80 	cmp    $0xffffffff80000000,%rbx
  406347:	89 d8                	mov    %ebx,%eax
  406349:	0f 8c 50 ff ff ff    	jl     40629f <_ZNSt8_Rb_treeISsSt4pairIKSsP12netlist_elemESt10_Select1stIS4_ESt4lessISsESaIS4_EE17_M_insert_unique_ESt23_Rb_tree_const_iteratorIS4_ERKS4_+0x2f>
  40634f:	85 c0                	test   %eax,%eax
  406351:	79 de                	jns    406331 <_ZNSt8_Rb_treeISsSt4pairIKSsP12netlist_elemESt10_Select1stIS4_ESt4lessISsESaIS4_EE17_M_insert_unique_ESt23_Rb_tree_const_iteratorIS4_ERKS4_+0xc1>
  406353:	bf 30 00 00 00       	mov    $0x30,%edi
  406358:	41 bf 01 00 00 00    	mov    $0x1,%r15d
  40635e:	e8 7d cb ff ff       	callq  402ee0 <_Znwm@plt>
  406363:	48 89 c3             	mov    %rax,%rbx
  406366:	48 8d 78 20          	lea    0x20(%rax),%rdi
  40636a:	e9 41 ff ff ff       	jmpq   4062b0 <_ZNSt8_Rb_treeISsSt4pairIKSsP12netlist_elemESt10_Select1stIS4_ESt4lessISsESaIS4_EE17_M_insert_unique_ESt23_Rb_tree_const_iteratorIS4_ERKS4_+0x40>
  40636f:	48 89 c7             	mov    %rax,%rdi
  406372:	e8 49 cb ff ff       	callq  402ec0 <__cxa_begin_catch@plt>
  406377:	48 89 df             	mov    %rbx,%rdi
  40637a:	e8 31 c8 ff ff       	callq  402bb0 <_ZdlPv@plt>
  40637f:	e8 7c c8 ff ff       	callq  402c00 <__cxa_rethrow@plt>
  406384:	48 89 c3             	mov    %rax,%rbx
  406387:	e8 e4 ca ff ff       	callq  402e70 <__cxa_end_catch@plt>
  40638c:	48 89 df             	mov    %rbx,%rdi
  40638f:	e8 5c cb ff ff       	callq  402ef0 <_Unwind_Resume@plt>
  406394:	66 2e 0f 1f 84 00 00 	nopw   %cs:0x0(%rax,%rax,1)
  40639b:	00 00 00 
  40639e:	66 90                	xchg   %ax,%ax

00000000004063a0 <_ZNSt6vectorIP12netlist_elemSaIS1_EEaSERKS3_>:
  4063a0:	55                   	push   %rbp
  4063a1:	48 89 e5             	mov    %rsp,%rbp
  4063a4:	41 57                	push   %r15
  4063a6:	41 56                	push   %r14
  4063a8:	41 55                	push   %r13
  4063aa:	41 54                	push   %r12
  4063ac:	49 89 f5             	mov    %rsi,%r13
  4063af:	53                   	push   %rbx
  4063b0:	48 89 fb             	mov    %rdi,%rbx
  4063b3:	48 83 ec 08          	sub    $0x8,%rsp
  4063b7:	48 39 fe             	cmp    %rdi,%rsi
  4063ba:	74 64                	je     406420 <_ZNSt6vectorIP12netlist_elemSaIS1_EEaSERKS3_+0x80>
  4063bc:	48 8b 56 08          	mov    0x8(%rsi),%rdx
  4063c0:	4c 8b 3e             	mov    (%rsi),%r15
  4063c3:	48 8b 0f             	mov    (%rdi),%rcx
  4063c6:	48 8b 47 10          	mov    0x10(%rdi),%rax
  4063ca:	49 89 d4             	mov    %rdx,%r12
  4063cd:	4d 29 fc             	sub    %r15,%r12
  4063d0:	48 29 c8             	sub    %rcx,%rax
  4063d3:	4d 89 e6             	mov    %r12,%r14
  4063d6:	48 c1 f8 03          	sar    $0x3,%rax
  4063da:	49 c1 fe 03          	sar    $0x3,%r14
  4063de:	49 39 c6             	cmp    %rax,%r14
  4063e1:	77 6d                	ja     406450 <_ZNSt6vectorIP12netlist_elemSaIS1_EEaSERKS3_+0xb0>
  4063e3:	48 8b 7f 08          	mov    0x8(%rdi),%rdi
  4063e7:	48 89 f8             	mov    %rdi,%rax
  4063ea:	48 29 c8             	sub    %rcx,%rax
  4063ed:	48 89 c6             	mov    %rax,%rsi
  4063f0:	48 c1 fe 03          	sar    $0x3,%rsi
  4063f4:	49 39 f6             	cmp    %rsi,%r14
  4063f7:	76 3f                	jbe    406438 <_ZNSt6vectorIP12netlist_elemSaIS1_EEaSERKS3_+0x98>
  4063f9:	48 85 f6             	test   %rsi,%rsi
  4063fc:	0f 85 be 00 00 00    	jne    4064c0 <_ZNSt6vectorIP12netlist_elemSaIS1_EEaSERKS3_+0x120>
  406402:	49 8d 34 07          	lea    (%r15,%rax,1),%rsi
  406406:	48 29 f2             	sub    %rsi,%rdx
  406409:	48 89 d0             	mov    %rdx,%rax
  40640c:	48 c1 f8 03          	sar    $0x3,%rax
  406410:	48 85 c0             	test   %rax,%rax
  406413:	0f 85 97 00 00 00    	jne    4064b0 <_ZNSt6vectorIP12netlist_elemSaIS1_EEaSERKS3_+0x110>
  406419:	49 01 cc             	add    %rcx,%r12
  40641c:	4c 89 63 08          	mov    %r12,0x8(%rbx)
  406420:	48 83 c4 08          	add    $0x8,%rsp
  406424:	48 89 d8             	mov    %rbx,%rax
  406427:	5b                   	pop    %rbx
  406428:	41 5c                	pop    %r12
  40642a:	41 5d                	pop    %r13
  40642c:	41 5e                	pop    %r14
  40642e:	41 5f                	pop    %r15
  406430:	5d                   	pop    %rbp
  406431:	c3                   	retq   
  406432:	66 0f 1f 44 00 00    	nopw   0x0(%rax,%rax,1)
  406438:	4d 85 f6             	test   %r14,%r14
  40643b:	74 dc                	je     406419 <_ZNSt6vectorIP12netlist_elemSaIS1_EEaSERKS3_+0x79>
  40643d:	4c 89 e2             	mov    %r12,%rdx
  406440:	4c 89 fe             	mov    %r15,%rsi
  406443:	48 89 cf             	mov    %rcx,%rdi
  406446:	e8 15 c9 ff ff       	callq  402d60 <memmove@plt>
  40644b:	4c 03 23             	add    (%rbx),%r12
  40644e:	eb cc                	jmp    40641c <_ZNSt6vectorIP12netlist_elemSaIS1_EEaSERKS3_+0x7c>
  406450:	45 31 ed             	xor    %r13d,%r13d
  406453:	4d 85 f6             	test   %r14,%r14
  406456:	74 23                	je     40647b <_ZNSt6vectorIP12netlist_elemSaIS1_EEaSERKS3_+0xdb>
  406458:	48 b8 ff ff ff ff ff 	movabs $0x1fffffffffffffff,%rax
  40645f:	ff ff 1f 
  406462:	49 39 c6             	cmp    %rax,%r14
  406465:	0f 87 7d 00 00 00    	ja     4064e8 <_ZNSt6vectorIP12netlist_elemSaIS1_EEaSERKS3_+0x148>
  40646b:	4c 89 e7             	mov    %r12,%rdi
  40646e:	e8 6d ca ff ff       	callq  402ee0 <_Znwm@plt>
  406473:	4d 85 f6             	test   %r14,%r14
  406476:	49 89 c5             	mov    %rax,%r13
  406479:	75 1d                	jne    406498 <_ZNSt6vectorIP12netlist_elemSaIS1_EEaSERKS3_+0xf8>
  40647b:	48 8b 3b             	mov    (%rbx),%rdi
  40647e:	48 85 ff             	test   %rdi,%rdi
  406481:	74 05                	je     406488 <_ZNSt6vectorIP12netlist_elemSaIS1_EEaSERKS3_+0xe8>
  406483:	e8 28 c7 ff ff       	callq  402bb0 <_ZdlPv@plt>
  406488:	4d 01 ec             	add    %r13,%r12
  40648b:	4c 89 2b             	mov    %r13,(%rbx)
  40648e:	4c 89 63 10          	mov    %r12,0x10(%rbx)
  406492:	eb 88                	jmp    40641c <_ZNSt6vectorIP12netlist_elemSaIS1_EEaSERKS3_+0x7c>
  406494:	0f 1f 40 00          	nopl   0x0(%rax)
  406498:	48 89 c7             	mov    %rax,%rdi
  40649b:	4c 89 e2             	mov    %r12,%rdx
  40649e:	4c 89 fe             	mov    %r15,%rsi
  4064a1:	e8 ba c8 ff ff       	callq  402d60 <memmove@plt>
  4064a6:	48 8b 3b             	mov    (%rbx),%rdi
  4064a9:	48 85 ff             	test   %rdi,%rdi
  4064ac:	75 d5                	jne    406483 <_ZNSt6vectorIP12netlist_elemSaIS1_EEaSERKS3_+0xe3>
  4064ae:	eb d8                	jmp    406488 <_ZNSt6vectorIP12netlist_elemSaIS1_EEaSERKS3_+0xe8>
  4064b0:	e8 ab c8 ff ff       	callq  402d60 <memmove@plt>
  4064b5:	4c 03 23             	add    (%rbx),%r12
  4064b8:	e9 5f ff ff ff       	jmpq   40641c <_ZNSt6vectorIP12netlist_elemSaIS1_EEaSERKS3_+0x7c>
  4064bd:	0f 1f 00             	nopl   (%rax)
  4064c0:	48 89 cf             	mov    %rcx,%rdi
  4064c3:	48 89 c2             	mov    %rax,%rdx
  4064c6:	4c 89 fe             	mov    %r15,%rsi
  4064c9:	e8 92 c8 ff ff       	callq  402d60 <memmove@plt>
  4064ce:	48 8b 7b 08          	mov    0x8(%rbx),%rdi
  4064d2:	48 8b 0b             	mov    (%rbx),%rcx
  4064d5:	4d 8b 7d 00          	mov    0x0(%r13),%r15
  4064d9:	49 8b 55 08          	mov    0x8(%r13),%rdx
  4064dd:	48 89 f8             	mov    %rdi,%rax
  4064e0:	48 29 c8             	sub    %rcx,%rax
  4064e3:	e9 1a ff ff ff       	jmpq   406402 <_ZNSt6vectorIP12netlist_elemSaIS1_EEaSERKS3_+0x62>
  4064e8:	e8 93 c9 ff ff       	callq  402e80 <_ZSt17__throw_bad_allocv@plt>
  4064ed:	0f 1f 00             	nopl   (%rax)

00000000004064f0 <_ZNSt6vectorI12netlist_elemSaIS0_EE14_M_fill_insertEN9__gnu_cxx17__normal_iteratorIPS0_S2_EEmRKS0_>:
  4064f0:	55                   	push   %rbp
  4064f1:	48 89 e5             	mov    %rsp,%rbp
  4064f4:	41 57                	push   %r15
  4064f6:	41 56                	push   %r14
  4064f8:	41 55                	push   %r13
  4064fa:	41 54                	push   %r12
  4064fc:	53                   	push   %rbx
  4064fd:	48 81 ec a8 00 00 00 	sub    $0xa8,%rsp
  406504:	48 89 b5 68 ff ff ff 	mov    %rsi,-0x98(%rbp)
  40650b:	48 89 bd 60 ff ff ff 	mov    %rdi,-0xa0(%rbp)
  406512:	64 48 8b 04 25 28 00 	mov    %fs:0x28,%rax
  406519:	00 00 
  40651b:	48 89 45 c8          	mov    %rax,-0x38(%rbp)
  40651f:	31 c0                	xor    %eax,%eax
  406521:	48 85 d2             	test   %rdx,%rdx
  406524:	48 89 d6             	mov    %rdx,%rsi
  406527:	48 89 95 50 ff ff ff 	mov    %rdx,-0xb0(%rbp)
  40652e:	0f 84 23 04 00 00    	je     406957 <_ZNSt6vectorI12netlist_elemSaIS0_EE14_M_fill_insertEN9__gnu_cxx17__normal_iteratorIPS0_S2_EEmRKS0_+0x467>
  406534:	48 8b 47 08          	mov    0x8(%rdi),%rax
  406538:	48 8b 7f 10          	mov    0x10(%rdi),%rdi
  40653c:	49 89 cc             	mov    %rcx,%r12
  40653f:	48 89 fa             	mov    %rdi,%rdx
  406542:	48 89 bd 58 ff ff ff 	mov    %rdi,-0xa8(%rbp)
  406549:	48 29 c2             	sub    %rax,%rdx
  40654c:	48 c1 fa 06          	sar    $0x6,%rdx
  406550:	48 39 d6             	cmp    %rdx,%rsi
  406553:	0f 87 23 04 00 00    	ja     40697c <_ZNSt6vectorI12netlist_elemSaIS0_EE14_M_fill_insertEN9__gnu_cxx17__normal_iteratorIPS0_S2_EEmRKS0_+0x48c>
  406559:	48 8d 7d 80          	lea    -0x80(%rbp),%rdi
  40655d:	48 89 ce             	mov    %rcx,%rsi
  406560:	e8 eb c6 ff ff       	callq  402c50 <_ZNSsC1ERKSs@plt>
  406565:	49 8b 74 24 08       	mov    0x8(%r12),%rsi
  40656a:	49 8b 5c 24 10       	mov    0x10(%r12),%rbx
  40656f:	48 c7 45 88 00 00 00 	movq   $0x0,-0x78(%rbp)
  406576:	00 
  406577:	48 c7 45 90 00 00 00 	movq   $0x0,-0x70(%rbp)
  40657e:	00 
  40657f:	48 c7 45 98 00 00 00 	movq   $0x0,-0x68(%rbp)
  406586:	00 
  406587:	48 29 f3             	sub    %rsi,%rbx
  40658a:	48 89 d8             	mov    %rbx,%rax
  40658d:	48 c1 f8 03          	sar    $0x3,%rax
  406591:	48 85 c0             	test   %rax,%rax
  406594:	0f 85 3b 0e 00 00    	jne    4073d5 <_ZNSt6vectorI12netlist_elemSaIS0_EE14_M_fill_insertEN9__gnu_cxx17__normal_iteratorIPS0_S2_EEmRKS0_+0xee5>
  40659a:	49 89 dd             	mov    %rbx,%r13
  40659d:	31 c9                	xor    %ecx,%ecx
  40659f:	48 01 cb             	add    %rcx,%rbx
  4065a2:	48 85 c0             	test   %rax,%rax
  4065a5:	48 89 4d 88          	mov    %rcx,-0x78(%rbp)
  4065a9:	48 89 4d 90          	mov    %rcx,-0x70(%rbp)
  4065ad:	48 89 5d 98          	mov    %rbx,-0x68(%rbp)
  4065b1:	74 0e                	je     4065c1 <_ZNSt6vectorI12netlist_elemSaIS0_EE14_M_fill_insertEN9__gnu_cxx17__normal_iteratorIPS0_S2_EEmRKS0_+0xd1>
  4065b3:	48 89 cf             	mov    %rcx,%rdi
  4065b6:	4c 89 ea             	mov    %r13,%rdx
  4065b9:	e8 a2 c7 ff ff       	callq  402d60 <memmove@plt>
  4065be:	48 89 c1             	mov    %rax,%rcx
  4065c1:	49 8b 74 24 20       	mov    0x20(%r12),%rsi
  4065c6:	49 8b 5c 24 28       	mov    0x28(%r12),%rbx
  4065cb:	49 01 cd             	add    %rcx,%r13
  4065ce:	4c 89 6d 90          	mov    %r13,-0x70(%rbp)
  4065d2:	48 c7 45 a0 00 00 00 	movq   $0x0,-0x60(%rbp)
  4065d9:	00 
  4065da:	48 c7 45 a8 00 00 00 	movq   $0x0,-0x58(%rbp)
  4065e1:	00 
  4065e2:	48 c7 45 b0 00 00 00 	movq   $0x0,-0x50(%rbp)
  4065e9:	00 
  4065ea:	48 29 f3             	sub    %rsi,%rbx
  4065ed:	48 89 d8             	mov    %rbx,%rax
  4065f0:	48 c1 f8 03          	sar    $0x3,%rax
  4065f4:	48 85 c0             	test   %rax,%rax
  4065f7:	0f 85 a1 0d 00 00    	jne    40739e <_ZNSt6vectorI12netlist_elemSaIS0_EE14_M_fill_insertEN9__gnu_cxx17__normal_iteratorIPS0_S2_EEmRKS0_+0xeae>
  4065fd:	49 89 dd             	mov    %rbx,%r13
  406600:	31 c9                	xor    %ecx,%ecx
  406602:	48 01 cb             	add    %rcx,%rbx
  406605:	48 85 c0             	test   %rax,%rax
  406608:	48 89 4d a0          	mov    %rcx,-0x60(%rbp)
  40660c:	48 89 4d a8          	mov    %rcx,-0x58(%rbp)
  406610:	48 89 5d b0          	mov    %rbx,-0x50(%rbp)
  406614:	74 0e                	je     406624 <_ZNSt6vectorI12netlist_elemSaIS0_EE14_M_fill_insertEN9__gnu_cxx17__normal_iteratorIPS0_S2_EEmRKS0_+0x134>
  406616:	48 89 cf             	mov    %rcx,%rdi
  406619:	4c 89 ea             	mov    %r13,%rdx
  40661c:	e8 3f c7 ff ff       	callq  402d60 <memmove@plt>
  406621:	48 89 c1             	mov    %rax,%rcx
  406624:	49 01 cd             	add    %rcx,%r13
  406627:	49 83 c4 38          	add    $0x38,%r12
  40662b:	4c 89 6d a8          	mov    %r13,-0x58(%rbp)
  40662f:	f0 49 0f b1 04 24    	lock cmpxchg %rax,(%r12)
  406635:	48 3b 05 f4 3b 20 00 	cmp    0x203bf4(%rip),%rax        # 60a230 <_ZN7threads9AtomicPtrI10location_tE11ATOMIC_NULLE>
  40663c:	74 f1                	je     40662f <_ZNSt6vectorI12netlist_elemSaIS0_EE14_M_fill_insertEN9__gnu_cxx17__normal_iteratorIPS0_S2_EEmRKS0_+0x13f>
  40663e:	48 89 45 b8          	mov    %rax,-0x48(%rbp)
  406642:	48 8b 85 60 ff ff ff 	mov    -0xa0(%rbp),%rax
  406649:	4c 8b 68 08          	mov    0x8(%rax),%r13
  40664d:	4c 89 e8             	mov    %r13,%rax
  406650:	48 2b 85 68 ff ff ff 	sub    -0x98(%rbp),%rax
  406657:	48 89 85 48 ff ff ff 	mov    %rax,-0xb8(%rbp)
  40665e:	48 c1 f8 06          	sar    $0x6,%rax
  406662:	48 39 85 50 ff ff ff 	cmp    %rax,-0xb0(%rbp)
  406669:	0f 83 ed 08 00 00    	jae    406f5c <_ZNSt6vectorI12netlist_elemSaIS0_EE14_M_fill_insertEN9__gnu_cxx17__normal_iteratorIPS0_S2_EEmRKS0_+0xa6c>
  40666f:	48 8b 85 50 ff ff ff 	mov    -0xb0(%rbp),%rax
  406676:	4d 89 ef             	mov    %r13,%r15
  406679:	48 c1 e0 06          	shl    $0x6,%rax
  40667d:	49 29 c7             	sub    %rax,%r15
  406680:	48 89 85 58 ff ff ff 	mov    %rax,-0xa8(%rbp)
  406687:	4d 39 ef             	cmp    %r13,%r15
  40668a:	0f 84 ff 11 00 00    	je     40788f <_ZNSt6vectorI12netlist_elemSaIS0_EE14_M_fill_insertEN9__gnu_cxx17__normal_iteratorIPS0_S2_EEmRKS0_+0x139f>
  406690:	4d 89 fc             	mov    %r15,%r12
  406693:	4c 89 eb             	mov    %r13,%rbx
  406696:	48 85 db             	test   %rbx,%rbx
  406699:	0f 84 0b 01 00 00    	je     4067aa <_ZNSt6vectorI12netlist_elemSaIS0_EE14_M_fill_insertEN9__gnu_cxx17__normal_iteratorIPS0_S2_EEmRKS0_+0x2ba>
  40669f:	4c 89 e6             	mov    %r12,%rsi
  4066a2:	48 89 df             	mov    %rbx,%rdi
  4066a5:	e8 a6 c5 ff ff       	callq  402c50 <_ZNSsC1ERKSs@plt>
  4066aa:	4d 8b 74 24 10       	mov    0x10(%r12),%r14
  4066af:	4d 2b 74 24 08       	sub    0x8(%r12),%r14
  4066b4:	31 c9                	xor    %ecx,%ecx
  4066b6:	48 c7 43 08 00 00 00 	movq   $0x0,0x8(%rbx)
  4066bd:	00 
  4066be:	48 c7 43 10 00 00 00 	movq   $0x0,0x10(%rbx)
  4066c5:	00 
  4066c6:	48 c7 43 18 00 00 00 	movq   $0x0,0x18(%rbx)
  4066cd:	00 
  4066ce:	4c 89 f0             	mov    %r14,%rax
  4066d1:	48 c1 f8 03          	sar    $0x3,%rax
  4066d5:	48 85 c0             	test   %rax,%rax
  4066d8:	0f 85 25 0c 00 00    	jne    407303 <_ZNSt6vectorI12netlist_elemSaIS0_EE14_M_fill_insertEN9__gnu_cxx17__normal_iteratorIPS0_S2_EEmRKS0_+0xe13>
  4066de:	4a 8d 14 31          	lea    (%rcx,%r14,1),%rdx
  4066e2:	48 89 4b 08          	mov    %rcx,0x8(%rbx)
  4066e6:	48 89 4b 10          	mov    %rcx,0x10(%rbx)
  4066ea:	48 89 53 18          	mov    %rdx,0x18(%rbx)
  4066ee:	49 8b 74 24 08       	mov    0x8(%r12),%rsi
  4066f3:	4d 8b 74 24 10       	mov    0x10(%r12),%r14
  4066f8:	49 29 f6             	sub    %rsi,%r14
  4066fb:	4c 89 f0             	mov    %r14,%rax
  4066fe:	48 c1 f8 03          	sar    $0x3,%rax
  406702:	48 85 c0             	test   %rax,%rax
  406705:	74 0e                	je     406715 <_ZNSt6vectorI12netlist_elemSaIS0_EE14_M_fill_insertEN9__gnu_cxx17__normal_iteratorIPS0_S2_EEmRKS0_+0x225>
  406707:	48 89 cf             	mov    %rcx,%rdi
  40670a:	4c 89 f2             	mov    %r14,%rdx
  40670d:	e8 4e c6 ff ff       	callq  402d60 <memmove@plt>
  406712:	48 89 c1             	mov    %rax,%rcx
  406715:	49 01 ce             	add    %rcx,%r14
  406718:	31 c9                	xor    %ecx,%ecx
  40671a:	4c 89 73 10          	mov    %r14,0x10(%rbx)
  40671e:	4d 8b 74 24 28       	mov    0x28(%r12),%r14
  406723:	4d 2b 74 24 20       	sub    0x20(%r12),%r14
  406728:	48 c7 43 20 00 00 00 	movq   $0x0,0x20(%rbx)
  40672f:	00 
  406730:	48 c7 43 28 00 00 00 	movq   $0x0,0x28(%rbx)
  406737:	00 
  406738:	48 c7 43 30 00 00 00 	movq   $0x0,0x30(%rbx)
  40673f:	00 
  406740:	4c 89 f0             	mov    %r14,%rax
  406743:	48 c1 f8 03          	sar    $0x3,%rax
  406747:	48 85 c0             	test   %rax,%rax
  40674a:	0f 85 90 0b 00 00    	jne    4072e0 <_ZNSt6vectorI12netlist_elemSaIS0_EE14_M_fill_insertEN9__gnu_cxx17__normal_iteratorIPS0_S2_EEmRKS0_+0xdf0>
  406750:	4a 8d 14 31          	lea    (%rcx,%r14,1),%rdx
  406754:	48 89 4b 20          	mov    %rcx,0x20(%rbx)
  406758:	48 89 4b 28          	mov    %rcx,0x28(%rbx)
  40675c:	48 89 53 30          	mov    %rdx,0x30(%rbx)
  406760:	49 8b 74 24 20       	mov    0x20(%r12),%rsi
  406765:	4d 8b 74 24 28       	mov    0x28(%r12),%r14
  40676a:	49 29 f6             	sub    %rsi,%r14
  40676d:	4c 89 f0             	mov    %r14,%rax
  406770:	48 c1 f8 03          	sar    $0x3,%rax
  406774:	48 85 c0             	test   %rax,%rax
  406777:	74 0e                	je     406787 <_ZNSt6vectorI12netlist_elemSaIS0_EE14_M_fill_insertEN9__gnu_cxx17__normal_iteratorIPS0_S2_EEmRKS0_+0x297>
  406779:	48 89 cf             	mov    %rcx,%rdi
  40677c:	4c 89 f2             	mov    %r14,%rdx
  40677f:	e8 dc c5 ff ff       	callq  402d60 <memmove@plt>
  406784:	48 89 c1             	mov    %rax,%rcx
  406787:	49 01 ce             	add    %rcx,%r14
  40678a:	49 8d 54 24 38       	lea    0x38(%r12),%rdx
  40678f:	4c 89 73 28          	mov    %r14,0x28(%rbx)
  406793:	0f 1f 44 00 00       	nopl   0x0(%rax,%rax,1)
  406798:	f0 48 0f b1 02       	lock cmpxchg %rax,(%rdx)
  40679d:	48 3b 05 8c 3a 20 00 	cmp    0x203a8c(%rip),%rax        # 60a230 <_ZN7threads9AtomicPtrI10location_tE11ATOMIC_NULLE>
  4067a4:	74 f2                	je     406798 <_ZNSt6vectorI12netlist_elemSaIS0_EE14_M_fill_insertEN9__gnu_cxx17__normal_iteratorIPS0_S2_EEmRKS0_+0x2a8>
  4067a6:	48 89 43 38          	mov    %rax,0x38(%rbx)
  4067aa:	49 83 c4 40          	add    $0x40,%r12
  4067ae:	48 83 c3 40          	add    $0x40,%rbx
  4067b2:	4d 39 e5             	cmp    %r12,%r13
  4067b5:	0f 85 db fe ff ff    	jne    406696 <_ZNSt6vectorI12netlist_elemSaIS0_EE14_M_fill_insertEN9__gnu_cxx17__normal_iteratorIPS0_S2_EEmRKS0_+0x1a6>
  4067bb:	48 8b 85 60 ff ff ff 	mov    -0xa0(%rbp),%rax
  4067c2:	48 8b 40 08          	mov    0x8(%rax),%rax
  4067c6:	48 03 85 58 ff ff ff 	add    -0xa8(%rbp),%rax
  4067cd:	48 8b bd 60 ff ff ff 	mov    -0xa0(%rbp),%rdi
  4067d4:	4c 89 eb             	mov    %r13,%rbx
  4067d7:	48 89 47 08          	mov    %rax,0x8(%rdi)
  4067db:	4c 89 f8             	mov    %r15,%rax
  4067de:	48 2b 85 68 ff ff ff 	sub    -0x98(%rbp),%rax
  4067e5:	48 29 c3             	sub    %rax,%rbx
  4067e8:	48 83 f8 3f          	cmp    $0x3f,%rax
  4067ec:	7e 7d                	jle    40686b <_ZNSt6vectorI12netlist_elemSaIS0_EE14_M_fill_insertEN9__gnu_cxx17__normal_iteratorIPS0_S2_EEmRKS0_+0x37b>
  4067ee:	49 83 ef 40          	sub    $0x40,%r15
  4067f2:	49 83 ed 40          	sub    $0x40,%r13
  4067f6:	4c 89 fe             	mov    %r15,%rsi
  4067f9:	4c 89 ef             	mov    %r13,%rdi
  4067fc:	e8 df c5 ff ff       	callq  402de0 <_ZNSs6assignERKSs@plt>
  406801:	49 8d 77 08          	lea    0x8(%r15),%rsi
  406805:	49 8d 7d 08          	lea    0x8(%r13),%rdi
  406809:	e8 92 fb ff ff       	callq  4063a0 <_ZNSt6vectorIP12netlist_elemSaIS1_EEaSERKS3_>
  40680e:	49 8d 77 20          	lea    0x20(%r15),%rsi
  406812:	49 8d 7d 20          	lea    0x20(%r13),%rdi
  406816:	e8 85 fb ff ff       	callq  4063a0 <_ZNSt6vectorIP12netlist_elemSaIS1_EEaSERKS3_>
  40681b:	49 8d 57 38          	lea    0x38(%r15),%rdx
  40681f:	90                   	nop
  406820:	f0 48 0f b1 02       	lock cmpxchg %rax,(%rdx)
  406825:	48 3b 05 04 3a 20 00 	cmp    0x203a04(%rip),%rax        # 60a230 <_ZN7threads9AtomicPtrI10location_tE11ATOMIC_NULLE>
  40682c:	74 f2                	je     406820 <_ZNSt6vectorI12netlist_elemSaIS0_EE14_M_fill_insertEN9__gnu_cxx17__normal_iteratorIPS0_S2_EEmRKS0_+0x330>
  40682e:	48 89 85 70 ff ff ff 	mov    %rax,-0x90(%rbp)
  406835:	f0 48 0f b1 85 70 ff 	lock cmpxchg %rax,-0x90(%rbp)
  40683c:	ff ff 
  40683e:	49 8d 55 38          	lea    0x38(%r13),%rdx
  406842:	48 89 c1             	mov    %rax,%rcx
  406845:	0f 1f 00             	nopl   (%rax)
  406848:	f0 48 0f b1 02       	lock cmpxchg %rax,(%rdx)
  40684d:	48 3b 05 dc 39 20 00 	cmp    0x2039dc(%rip),%rax        # 60a230 <_ZN7threads9AtomicPtrI10location_tE11ATOMIC_NULLE>
  406854:	74 f2                	je     406848 <_ZNSt6vectorI12netlist_elemSaIS0_EE14_M_fill_insertEN9__gnu_cxx17__normal_iteratorIPS0_S2_EEmRKS0_+0x358>
  406856:	f0 48 0f b1 0a       	lock cmpxchg %rcx,(%rdx)
  40685b:	0f 94 c0             	sete   %al
  40685e:	48 0f b6 c0          	movzbq %al,%rax
  406862:	85 c0                	test   %eax,%eax
  406864:	74 e2                	je     406848 <_ZNSt6vectorI12netlist_elemSaIS0_EE14_M_fill_insertEN9__gnu_cxx17__normal_iteratorIPS0_S2_EEmRKS0_+0x358>
  406866:	49 39 dd             	cmp    %rbx,%r13
  406869:	75 83                	jne    4067ee <_ZNSt6vectorI12netlist_elemSaIS0_EE14_M_fill_insertEN9__gnu_cxx17__normal_iteratorIPS0_S2_EEmRKS0_+0x2fe>
  40686b:	48 8b 85 68 ff ff ff 	mov    -0x98(%rbp),%rax
  406872:	48 8b 9d 58 ff ff ff 	mov    -0xa8(%rbp),%rbx
  406879:	49 89 c7             	mov    %rax,%r15
  40687c:	48 01 c3             	add    %rax,%rbx
  40687f:	48 8d 45 80          	lea    -0x80(%rbp),%rax
  406883:	49 39 df             	cmp    %rbx,%r15
  406886:	4c 8d 60 08          	lea    0x8(%rax),%r12
  40688a:	4c 8d 68 20          	lea    0x20(%rax),%r13
  40688e:	74 77                	je     406907 <_ZNSt6vectorI12netlist_elemSaIS0_EE14_M_fill_insertEN9__gnu_cxx17__normal_iteratorIPS0_S2_EEmRKS0_+0x417>
  406890:	48 8d 75 80          	lea    -0x80(%rbp),%rsi
  406894:	4c 89 ff             	mov    %r15,%rdi
  406897:	e8 44 c5 ff ff       	callq  402de0 <_ZNSs6assignERKSs@plt>
  40689c:	49 8d 7f 08          	lea    0x8(%r15),%rdi
  4068a0:	4c 89 e6             	mov    %r12,%rsi
  4068a3:	e8 f8 fa ff ff       	callq  4063a0 <_ZNSt6vectorIP12netlist_elemSaIS1_EEaSERKS3_>
  4068a8:	49 8d 7f 20          	lea    0x20(%r15),%rdi
  4068ac:	4c 89 ee             	mov    %r13,%rsi
  4068af:	e8 ec fa ff ff       	callq  4063a0 <_ZNSt6vectorIP12netlist_elemSaIS1_EEaSERKS3_>
  4068b4:	0f 1f 40 00          	nopl   0x0(%rax)
  4068b8:	f0 48 0f b1 45 b8    	lock cmpxchg %rax,-0x48(%rbp)
  4068be:	48 3b 05 6b 39 20 00 	cmp    0x20396b(%rip),%rax        # 60a230 <_ZN7threads9AtomicPtrI10location_tE11ATOMIC_NULLE>
  4068c5:	74 f1                	je     4068b8 <_ZNSt6vectorI12netlist_elemSaIS0_EE14_M_fill_insertEN9__gnu_cxx17__normal_iteratorIPS0_S2_EEmRKS0_+0x3c8>
  4068c7:	48 89 85 70 ff ff ff 	mov    %rax,-0x90(%rbp)
  4068ce:	f0 48 0f b1 85 70 ff 	lock cmpxchg %rax,-0x90(%rbp)
  4068d5:	ff ff 
  4068d7:	49 8d 57 38          	lea    0x38(%r15),%rdx
  4068db:	48 89 c1             	mov    %rax,%rcx
  4068de:	66 90                	xchg   %ax,%ax
  4068e0:	f0 48 0f b1 02       	lock cmpxchg %rax,(%rdx)
  4068e5:	48 3b 05 44 39 20 00 	cmp    0x203944(%rip),%rax        # 60a230 <_ZN7threads9AtomicPtrI10location_tE11ATOMIC_NULLE>
  4068ec:	74 f2                	je     4068e0 <_ZNSt6vectorI12netlist_elemSaIS0_EE14_M_fill_insertEN9__gnu_cxx17__normal_iteratorIPS0_S2_EEmRKS0_+0x3f0>
  4068ee:	f0 48 0f b1 0a       	lock cmpxchg %rcx,(%rdx)
  4068f3:	0f 94 c0             	sete   %al
  4068f6:	48 0f b6 c0          	movzbq %al,%rax
  4068fa:	85 c0                	test   %eax,%eax
  4068fc:	74 e2                	je     4068e0 <_ZNSt6vectorI12netlist_elemSaIS0_EE14_M_fill_insertEN9__gnu_cxx17__normal_iteratorIPS0_S2_EEmRKS0_+0x3f0>
  4068fe:	49 83 c7 40          	add    $0x40,%r15
  406902:	4c 39 fb             	cmp    %r15,%rbx
  406905:	75 89                	jne    406890 <_ZNSt6vectorI12netlist_elemSaIS0_EE14_M_fill_insertEN9__gnu_cxx17__normal_iteratorIPS0_S2_EEmRKS0_+0x3a0>
  406907:	48 8b 7d a0          	mov    -0x60(%rbp),%rdi
  40690b:	48 85 ff             	test   %rdi,%rdi
  40690e:	74 05                	je     406915 <_ZNSt6vectorI12netlist_elemSaIS0_EE14_M_fill_insertEN9__gnu_cxx17__normal_iteratorIPS0_S2_EEmRKS0_+0x425>
  406910:	e8 9b c2 ff ff       	callq  402bb0 <_ZdlPv@plt>
  406915:	48 8b 7d 88          	mov    -0x78(%rbp),%rdi
  406919:	48 85 ff             	test   %rdi,%rdi
  40691c:	74 05                	je     406923 <_ZNSt6vectorI12netlist_elemSaIS0_EE14_M_fill_insertEN9__gnu_cxx17__normal_iteratorIPS0_S2_EEmRKS0_+0x433>
  40691e:	e8 8d c2 ff ff       	callq  402bb0 <_ZdlPv@plt>
  406923:	48 8b 55 80          	mov    -0x80(%rbp),%rdx
  406927:	48 8d 7a e8          	lea    -0x18(%rdx),%rdi
  40692b:	48 81 ff 80 a5 60 00 	cmp    $0x60a580,%rdi
  406932:	74 23                	je     406957 <_ZNSt6vectorI12netlist_elemSaIS0_EE14_M_fill_insertEN9__gnu_cxx17__normal_iteratorIPS0_S2_EEmRKS0_+0x467>
  406934:	b8 b0 2e 40 00       	mov    $0x402eb0,%eax
  406939:	48 8d 4f 10          	lea    0x10(%rdi),%rcx
  40693d:	48 85 c0             	test   %rax,%rax
  406940:	0f 84 3b 0f 00 00    	je     407881 <_ZNSt6vectorI12netlist_elemSaIS0_EE14_M_fill_insertEN9__gnu_cxx17__normal_iteratorIPS0_S2_EEmRKS0_+0x1391>
  406946:	b8 ff ff ff ff       	mov    $0xffffffff,%eax
  40694b:	f0 0f c1 01          	lock xadd %eax,(%rcx)
  40694f:	85 c0                	test   %eax,%eax
  406951:	0f 8e 19 0f 00 00    	jle    407870 <_ZNSt6vectorI12netlist_elemSaIS0_EE14_M_fill_insertEN9__gnu_cxx17__normal_iteratorIPS0_S2_EEmRKS0_+0x1380>
  406957:	48 8b 45 c8          	mov    -0x38(%rbp),%rax
  40695b:	64 48 33 04 25 28 00 	xor    %fs:0x28,%rax
  406962:	00 00 
  406964:	0f 85 15 0d 00 00    	jne    40767f <_ZNSt6vectorI12netlist_elemSaIS0_EE14_M_fill_insertEN9__gnu_cxx17__normal_iteratorIPS0_S2_EEmRKS0_+0x118f>
  40696a:	48 81 c4 a8 00 00 00 	add    $0xa8,%rsp
  406971:	5b                   	pop    %rbx
  406972:	41 5c                	pop    %r12
  406974:	41 5d                	pop    %r13
  406976:	41 5e                	pop    %r14
  406978:	41 5f                	pop    %r15
  40697a:	5d                   	pop    %rbp
  40697b:	c3                   	retq   
  40697c:	48 8b bd 60 ff ff ff 	mov    -0xa0(%rbp),%rdi
  406983:	48 be ff ff ff ff ff 	movabs $0x3ffffffffffffff,%rsi
  40698a:	ff ff 03 
  40698d:	48 89 f1             	mov    %rsi,%rcx
  406990:	48 8b 17             	mov    (%rdi),%rdx
  406993:	48 29 d0             	sub    %rdx,%rax
  406996:	48 c1 f8 06          	sar    $0x6,%rax
  40699a:	48 29 c1             	sub    %rax,%rcx
  40699d:	48 39 8d 50 ff ff ff 	cmp    %rcx,-0xb0(%rbp)
  4069a4:	0f 87 ba 0c 00 00    	ja     407664 <_ZNSt6vectorI12netlist_elemSaIS0_EE14_M_fill_insertEN9__gnu_cxx17__normal_iteratorIPS0_S2_EEmRKS0_+0x1174>
  4069aa:	48 8b bd 50 ff ff ff 	mov    -0xb0(%rbp),%rdi
  4069b1:	48 39 f8             	cmp    %rdi,%rax
  4069b4:	48 0f 43 f8          	cmovae %rax,%rdi
  4069b8:	48 01 f8             	add    %rdi,%rax
  4069bb:	72 09                	jb     4069c6 <_ZNSt6vectorI12netlist_elemSaIS0_EE14_M_fill_insertEN9__gnu_cxx17__normal_iteratorIPS0_S2_EEmRKS0_+0x4d6>
  4069bd:	48 39 f0             	cmp    %rsi,%rax
  4069c0:	0f 86 d6 08 00 00    	jbe    40729c <_ZNSt6vectorI12netlist_elemSaIS0_EE14_M_fill_insertEN9__gnu_cxx17__normal_iteratorIPS0_S2_EEmRKS0_+0xdac>
  4069c6:	48 8b 9d 68 ff ff ff 	mov    -0x98(%rbp),%rbx
  4069cd:	48 c7 c7 c0 ff ff ff 	mov    $0xffffffffffffffc0,%rdi
  4069d4:	48 29 d3             	sub    %rdx,%rbx
  4069d7:	48 89 d8             	mov    %rbx,%rax
  4069da:	48 c1 f8 06          	sar    $0x6,%rax
  4069de:	48 89 85 30 ff ff ff 	mov    %rax,-0xd0(%rbp)
  4069e5:	48 b8 ff ff ff ff ff 	movabs $0x3ffffffffffffff,%rax
  4069ec:	ff ff 03 
  4069ef:	48 89 85 40 ff ff ff 	mov    %rax,-0xc0(%rbp)
  4069f6:	e8 e5 c4 ff ff       	callq  402ee0 <_Znwm@plt>
  4069fb:	48 89 85 58 ff ff ff 	mov    %rax,-0xa8(%rbp)
  406a02:	48 03 9d 58 ff ff ff 	add    -0xa8(%rbp),%rbx
  406a09:	4c 8b b5 50 ff ff ff 	mov    -0xb0(%rbp),%r14
  406a10:	49 bf ff ff ff ff ff 	movabs $0x1fffffffffffffff,%r15
  406a17:	ff ff 1f 
  406a1a:	48 89 9d 38 ff ff ff 	mov    %rbx,-0xc8(%rbp)
  406a21:	0f 1f 80 00 00 00 00 	nopl   0x0(%rax)
  406a28:	48 85 db             	test   %rbx,%rbx
  406a2b:	0f 84 09 01 00 00    	je     406b3a <_ZNSt6vectorI12netlist_elemSaIS0_EE14_M_fill_insertEN9__gnu_cxx17__normal_iteratorIPS0_S2_EEmRKS0_+0x64a>
  406a31:	4c 89 e6             	mov    %r12,%rsi
  406a34:	48 89 df             	mov    %rbx,%rdi
  406a37:	e8 14 c2 ff ff       	callq  402c50 <_ZNSsC1ERKSs@plt>
  406a3c:	4d 8b 6c 24 10       	mov    0x10(%r12),%r13
  406a41:	4d 2b 6c 24 08       	sub    0x8(%r12),%r13
  406a46:	31 c9                	xor    %ecx,%ecx
  406a48:	48 c7 43 08 00 00 00 	movq   $0x0,0x8(%rbx)
  406a4f:	00 
  406a50:	48 c7 43 10 00 00 00 	movq   $0x0,0x10(%rbx)
  406a57:	00 
  406a58:	48 c7 43 18 00 00 00 	movq   $0x0,0x18(%rbx)
  406a5f:	00 
  406a60:	4c 89 e8             	mov    %r13,%rax
  406a63:	48 c1 f8 03          	sar    $0x3,%rax
  406a67:	48 85 c0             	test   %rax,%rax
  406a6a:	0f 85 8d 04 00 00    	jne    406efd <_ZNSt6vectorI12netlist_elemSaIS0_EE14_M_fill_insertEN9__gnu_cxx17__normal_iteratorIPS0_S2_EEmRKS0_+0xa0d>
  406a70:	4a 8d 14 29          	lea    (%rcx,%r13,1),%rdx
