
dedup-lockperf:     file format elf64-x86-64


Disassembly of section .init:

0000000000406c38 <_init>:
  406c38:	48 83 ec 08          	sub    $0x8,%rsp
  406c3c:	48 8b 05 b5 13 25 00 	mov    0x2513b5(%rip),%rax        # 657ff8 <_DYNAMIC+0x1f0>
  406c43:	48 85 c0             	test   %rax,%rax
  406c46:	74 05                	je     406c4d <_init+0x15>
  406c48:	e8 73 00 00 00       	callq  406cc0 <__gmon_start__@plt>
  406c4d:	e8 de df 01 00       	callq  424c30 <OPENSSL_cpuid_setup>
  406c52:	48 83 c4 08          	add    $0x8,%rsp
  406c56:	c3                   	retq   

Disassembly of section .plt:

0000000000406c60 <printf@plt-0x10>:
  406c60:	ff 35 a2 13 25 00    	pushq  0x2513a2(%rip)        # 658008 <_GLOBAL_OFFSET_TABLE_+0x8>
  406c66:	ff 25 a4 13 25 00    	jmpq   *0x2513a4(%rip)        # 658010 <_GLOBAL_OFFSET_TABLE_+0x10>
  406c6c:	0f 1f 40 00          	nopl   0x0(%rax)

0000000000406c70 <printf@plt>:
  406c70:	ff 25 a2 13 25 00    	jmpq   *0x2513a2(%rip)        # 658018 <_GLOBAL_OFFSET_TABLE_+0x18>
  406c76:	68 00 00 00 00       	pushq  $0x0
  406c7b:	e9 e0 ff ff ff       	jmpq   406c60 <_init+0x28>

0000000000406c80 <memset@plt>:
  406c80:	ff 25 9a 13 25 00    	jmpq   *0x25139a(%rip)        # 658020 <_GLOBAL_OFFSET_TABLE_+0x20>
  406c86:	68 01 00 00 00       	pushq  $0x1
  406c8b:	e9 d0 ff ff ff       	jmpq   406c60 <_init+0x28>

0000000000406c90 <ftell@plt>:
  406c90:	ff 25 92 13 25 00    	jmpq   *0x251392(%rip)        # 658028 <_GLOBAL_OFFSET_TABLE_+0x28>
  406c96:	68 02 00 00 00       	pushq  $0x2
  406c9b:	e9 c0 ff ff ff       	jmpq   406c60 <_init+0x28>

0000000000406ca0 <close@plt>:
  406ca0:	ff 25 8a 13 25 00    	jmpq   *0x25138a(%rip)        # 658030 <_GLOBAL_OFFSET_TABLE_+0x30>
  406ca6:	68 03 00 00 00       	pushq  $0x3
  406cab:	e9 b0 ff ff ff       	jmpq   406c60 <_init+0x28>

0000000000406cb0 <abort@plt>:
  406cb0:	ff 25 82 13 25 00    	jmpq   *0x251382(%rip)        # 658038 <_GLOBAL_OFFSET_TABLE_+0x38>
  406cb6:	68 04 00 00 00       	pushq  $0x4
  406cbb:	e9 a0 ff ff ff       	jmpq   406c60 <_init+0x28>

0000000000406cc0 <__gmon_start__@plt>:
  406cc0:	ff 25 7a 13 25 00    	jmpq   *0x25137a(%rip)        # 658040 <_GLOBAL_OFFSET_TABLE_+0x40>
  406cc6:	68 05 00 00 00       	pushq  $0x5
  406ccb:	e9 90 ff ff ff       	jmpq   406c60 <_init+0x28>

0000000000406cd0 <puts@plt>:
  406cd0:	ff 25 72 13 25 00    	jmpq   *0x251372(%rip)        # 658048 <_GLOBAL_OFFSET_TABLE_+0x48>
  406cd6:	68 06 00 00 00       	pushq  $0x6
  406cdb:	e9 80 ff ff ff       	jmpq   406c60 <_init+0x28>

0000000000406ce0 <fseek@plt>:
  406ce0:	ff 25 6a 13 25 00    	jmpq   *0x25136a(%rip)        # 658050 <_GLOBAL_OFFSET_TABLE_+0x50>
  406ce6:	68 07 00 00 00       	pushq  $0x7
  406ceb:	e9 70 ff ff ff       	jmpq   406c60 <_init+0x28>

0000000000406cf0 <pthread_cond_signal@plt>:
  406cf0:	ff 25 62 13 25 00    	jmpq   *0x251362(%rip)        # 658058 <_GLOBAL_OFFSET_TABLE_+0x58>
  406cf6:	68 08 00 00 00       	pushq  $0x8
  406cfb:	e9 60 ff ff ff       	jmpq   406c60 <_init+0x28>

0000000000406d00 <__isoc99_sscanf@plt>:
  406d00:	ff 25 5a 13 25 00    	jmpq   *0x25135a(%rip)        # 658060 <_GLOBAL_OFFSET_TABLE_+0x60>
  406d06:	68 09 00 00 00       	pushq  $0x9
  406d0b:	e9 50 ff ff ff       	jmpq   406c60 <_init+0x28>

0000000000406d10 <pthread_mutex_init@plt>:
  406d10:	ff 25 52 13 25 00    	jmpq   *0x251352(%rip)        # 658068 <_GLOBAL_OFFSET_TABLE_+0x68>
  406d16:	68 0a 00 00 00       	pushq  $0xa
  406d1b:	e9 40 ff ff ff       	jmpq   406c60 <_init+0x28>

0000000000406d20 <exit@plt>:
  406d20:	ff 25 4a 13 25 00    	jmpq   *0x25134a(%rip)        # 658070 <_GLOBAL_OFFSET_TABLE_+0x70>
  406d26:	68 0b 00 00 00       	pushq  $0xb
  406d2b:	e9 30 ff ff ff       	jmpq   406c60 <_init+0x28>

0000000000406d30 <getopt@plt>:
  406d30:	ff 25 42 13 25 00    	jmpq   *0x251342(%rip)        # 658078 <_GLOBAL_OFFSET_TABLE_+0x78>
  406d36:	68 0c 00 00 00       	pushq  $0xc
  406d3b:	e9 20 ff ff ff       	jmpq   406c60 <_init+0x28>

0000000000406d40 <read@plt>:
  406d40:	ff 25 3a 13 25 00    	jmpq   *0x25133a(%rip)        # 658080 <_GLOBAL_OFFSET_TABLE_+0x80>
  406d46:	68 0d 00 00 00       	pushq  $0xd
  406d4b:	e9 10 ff ff ff       	jmpq   406c60 <_init+0x28>

0000000000406d50 <malloc@plt>:
  406d50:	ff 25 32 13 25 00    	jmpq   *0x251332(%rip)        # 658088 <_GLOBAL_OFFSET_TABLE_+0x88>
  406d56:	68 0e 00 00 00       	pushq  $0xe
  406d5b:	e9 00 ff ff ff       	jmpq   406c60 <_init+0x28>

0000000000406d60 <__libc_start_main@plt>:
  406d60:	ff 25 2a 13 25 00    	jmpq   *0x25132a(%rip)        # 658090 <_GLOBAL_OFFSET_TABLE_+0x90>
  406d66:	68 0f 00 00 00       	pushq  $0xf
  406d6b:	e9 f0 fe ff ff       	jmpq   406c60 <_init+0x28>

0000000000406d70 <getpid@plt>:
  406d70:	ff 25 22 13 25 00    	jmpq   *0x251322(%rip)        # 658098 <_GLOBAL_OFFSET_TABLE_+0x98>
  406d76:	68 10 00 00 00       	pushq  $0x10
  406d7b:	e9 e0 fe ff ff       	jmpq   406c60 <_init+0x28>

0000000000406d80 <pthread_mutex_lock@plt>:
  406d80:	ff 25 1a 13 25 00    	jmpq   *0x25131a(%rip)        # 6580a0 <_GLOBAL_OFFSET_TABLE_+0xa0>
  406d86:	68 11 00 00 00       	pushq  $0x11
  406d8b:	e9 d0 fe ff ff       	jmpq   406c60 <_init+0x28>

0000000000406d90 <fgets@plt>:
  406d90:	ff 25 12 13 25 00    	jmpq   *0x251312(%rip)        # 6580a8 <_GLOBAL_OFFSET_TABLE_+0xa8>
  406d96:	68 12 00 00 00       	pushq  $0x12
  406d9b:	e9 c0 fe ff ff       	jmpq   406c60 <_init+0x28>

0000000000406da0 <free@plt>:
  406da0:	ff 25 0a 13 25 00    	jmpq   *0x25130a(%rip)        # 6580b0 <_GLOBAL_OFFSET_TABLE_+0xb0>
  406da6:	68 13 00 00 00       	pushq  $0x13
  406dab:	e9 b0 fe ff ff       	jmpq   406c60 <_init+0x28>

0000000000406db0 <strlen@plt>:
  406db0:	ff 25 02 13 25 00    	jmpq   *0x251302(%rip)        # 6580b8 <_GLOBAL_OFFSET_TABLE_+0xb8>
  406db6:	68 14 00 00 00       	pushq  $0x14
  406dbb:	e9 a0 fe ff ff       	jmpq   406c60 <_init+0x28>

0000000000406dc0 <ferror@plt>:
  406dc0:	ff 25 fa 12 25 00    	jmpq   *0x2512fa(%rip)        # 6580c0 <_GLOBAL_OFFSET_TABLE_+0xc0>
  406dc6:	68 15 00 00 00       	pushq  $0x15
  406dcb:	e9 90 fe ff ff       	jmpq   406c60 <_init+0x28>

0000000000406dd0 <__xstat@plt>:
  406dd0:	ff 25 f2 12 25 00    	jmpq   *0x2512f2(%rip)        # 6580c8 <_GLOBAL_OFFSET_TABLE_+0xc8>
  406dd6:	68 16 00 00 00       	pushq  $0x16
  406ddb:	e9 80 fe ff ff       	jmpq   406c60 <_init+0x28>

0000000000406de0 <pthread_cond_init@plt>:
  406de0:	ff 25 ea 12 25 00    	jmpq   *0x2512ea(%rip)        # 6580d0 <_GLOBAL_OFFSET_TABLE_+0xd0>
  406de6:	68 17 00 00 00       	pushq  $0x17
  406deb:	e9 70 fe ff ff       	jmpq   406c60 <_init+0x28>

0000000000406df0 <__vfprintf_chk@plt>:
  406df0:	ff 25 e2 12 25 00    	jmpq   *0x2512e2(%rip)        # 6580d8 <_GLOBAL_OFFSET_TABLE_+0xd8>
  406df6:	68 18 00 00 00       	pushq  $0x18
  406dfb:	e9 60 fe ff ff       	jmpq   406c60 <_init+0x28>

0000000000406e00 <pthread_mutex_destroy@plt>:
  406e00:	ff 25 da 12 25 00    	jmpq   *0x2512da(%rip)        # 6580e0 <_GLOBAL_OFFSET_TABLE_+0xe0>
  406e06:	68 19 00 00 00       	pushq  $0x19
  406e0b:	e9 50 fe ff ff       	jmpq   406c60 <_init+0x28>

0000000000406e10 <__ctype_b_loc@plt>:
  406e10:	ff 25 d2 12 25 00    	jmpq   *0x2512d2(%rip)        # 6580e8 <_GLOBAL_OFFSET_TABLE_+0xe8>
  406e16:	68 1a 00 00 00       	pushq  $0x1a
  406e1b:	e9 40 fe ff ff       	jmpq   406c60 <_init+0x28>

0000000000406e20 <pthread_create@plt>:
  406e20:	ff 25 ca 12 25 00    	jmpq   *0x2512ca(%rip)        # 6580f0 <_GLOBAL_OFFSET_TABLE_+0xf0>
  406e26:	68 1b 00 00 00       	pushq  $0x1b
  406e2b:	e9 30 fe ff ff       	jmpq   406c60 <_init+0x28>

0000000000406e30 <strerror@plt>:
  406e30:	ff 25 c2 12 25 00    	jmpq   *0x2512c2(%rip)        # 6580f8 <_GLOBAL_OFFSET_TABLE_+0xf8>
  406e36:	68 1c 00 00 00       	pushq  $0x1c
  406e3b:	e9 20 fe ff ff       	jmpq   406c60 <_init+0x28>

0000000000406e40 <atoi@plt>:
  406e40:	ff 25 ba 12 25 00    	jmpq   *0x2512ba(%rip)        # 658100 <_GLOBAL_OFFSET_TABLE_+0x100>
  406e46:	68 1d 00 00 00       	pushq  $0x1d
  406e4b:	e9 10 fe ff ff       	jmpq   406c60 <_init+0x28>

0000000000406e50 <fchmod@plt>:
  406e50:	ff 25 b2 12 25 00    	jmpq   *0x2512b2(%rip)        # 658108 <_GLOBAL_OFFSET_TABLE_+0x108>
  406e56:	68 1e 00 00 00       	pushq  $0x1e
  406e5b:	e9 00 fe ff ff       	jmpq   406c60 <_init+0x28>

0000000000406e60 <memmove@plt>:
  406e60:	ff 25 aa 12 25 00    	jmpq   *0x2512aa(%rip)        # 658110 <_GLOBAL_OFFSET_TABLE_+0x110>
  406e66:	68 1f 00 00 00       	pushq  $0x1f
  406e6b:	e9 f0 fd ff ff       	jmpq   406c60 <_init+0x28>

0000000000406e70 <strchr@plt>:
  406e70:	ff 25 a2 12 25 00    	jmpq   *0x2512a2(%rip)        # 658118 <_GLOBAL_OFFSET_TABLE_+0x118>
  406e76:	68 20 00 00 00       	pushq  $0x20
  406e7b:	e9 e0 fd ff ff       	jmpq   406c60 <_init+0x28>

0000000000406e80 <fread@plt>:
  406e80:	ff 25 9a 12 25 00    	jmpq   *0x25129a(%rip)        # 658120 <_GLOBAL_OFFSET_TABLE_+0x120>
  406e86:	68 21 00 00 00       	pushq  $0x21
  406e8b:	e9 d0 fd ff ff       	jmpq   406c60 <_init+0x28>

0000000000406e90 <getenv@plt>:
  406e90:	ff 25 92 12 25 00    	jmpq   *0x251292(%rip)        # 658128 <_GLOBAL_OFFSET_TABLE_+0x128>
  406e96:	68 22 00 00 00       	pushq  $0x22
  406e9b:	e9 c0 fd ff ff       	jmpq   406c60 <_init+0x28>

0000000000406ea0 <__errno_location@plt>:
  406ea0:	ff 25 8a 12 25 00    	jmpq   *0x25128a(%rip)        # 658130 <_GLOBAL_OFFSET_TABLE_+0x130>
  406ea6:	68 23 00 00 00       	pushq  $0x23
  406eab:	e9 b0 fd ff ff       	jmpq   406c60 <_init+0x28>

0000000000406eb0 <qsort@plt>:
  406eb0:	ff 25 82 12 25 00    	jmpq   *0x251282(%rip)        # 658138 <_GLOBAL_OFFSET_TABLE_+0x138>
  406eb6:	68 24 00 00 00       	pushq  $0x24
  406ebb:	e9 a0 fd ff ff       	jmpq   406c60 <_init+0x28>

0000000000406ec0 <__stack_chk_fail@plt>:
  406ec0:	ff 25 7a 12 25 00    	jmpq   *0x25127a(%rip)        # 658140 <_GLOBAL_OFFSET_TABLE_+0x140>
  406ec6:	68 25 00 00 00       	pushq  $0x25
  406ecb:	e9 90 fd ff ff       	jmpq   406c60 <_init+0x28>

0000000000406ed0 <strcmp@plt>:
  406ed0:	ff 25 72 12 25 00    	jmpq   *0x251272(%rip)        # 658148 <_GLOBAL_OFFSET_TABLE_+0x148>
  406ed6:	68 26 00 00 00       	pushq  $0x26
  406edb:	e9 80 fd ff ff       	jmpq   406c60 <_init+0x28>

0000000000406ee0 <__memset_chk@plt>:
  406ee0:	ff 25 6a 12 25 00    	jmpq   *0x25126a(%rip)        # 658150 <_GLOBAL_OFFSET_TABLE_+0x150>
  406ee6:	68 27 00 00 00       	pushq  $0x27
  406eeb:	e9 70 fd ff ff       	jmpq   406c60 <_init+0x28>

0000000000406ef0 <strcpy@plt>:
  406ef0:	ff 25 62 12 25 00    	jmpq   *0x251262(%rip)        # 658158 <_GLOBAL_OFFSET_TABLE_+0x158>
  406ef6:	68 28 00 00 00       	pushq  $0x28
  406efb:	e9 60 fd ff ff       	jmpq   406c60 <_init+0x28>

0000000000406f00 <memcmp@plt>:
  406f00:	ff 25 5a 12 25 00    	jmpq   *0x25125a(%rip)        # 658160 <_GLOBAL_OFFSET_TABLE_+0x160>
  406f06:	68 29 00 00 00       	pushq  $0x29
  406f0b:	e9 50 fd ff ff       	jmpq   406c60 <_init+0x28>

0000000000406f10 <feof@plt>:
  406f10:	ff 25 52 12 25 00    	jmpq   *0x251252(%rip)        # 658168 <_GLOBAL_OFFSET_TABLE_+0x168>
  406f16:	68 2a 00 00 00       	pushq  $0x2a
  406f1b:	e9 40 fd ff ff       	jmpq   406c60 <_init+0x28>

0000000000406f20 <fclose@plt>:
  406f20:	ff 25 4a 12 25 00    	jmpq   *0x25124a(%rip)        # 658170 <_GLOBAL_OFFSET_TABLE_+0x170>
  406f26:	68 2b 00 00 00       	pushq  $0x2b
  406f2b:	e9 30 fd ff ff       	jmpq   406c60 <_init+0x28>

0000000000406f30 <strncpy@plt>:
  406f30:	ff 25 42 12 25 00    	jmpq   *0x251242(%rip)        # 658178 <_GLOBAL_OFFSET_TABLE_+0x178>
  406f36:	68 2c 00 00 00       	pushq  $0x2c
  406f3b:	e9 20 fd ff ff       	jmpq   406c60 <_init+0x28>

0000000000406f40 <pthread_mutex_unlock@plt>:
  406f40:	ff 25 3a 12 25 00    	jmpq   *0x25123a(%rip)        # 658180 <_GLOBAL_OFFSET_TABLE_+0x180>
  406f46:	68 2d 00 00 00       	pushq  $0x2d
  406f4b:	e9 10 fd ff ff       	jmpq   406c60 <_init+0x28>

0000000000406f50 <fopen64@plt>:
  406f50:	ff 25 32 12 25 00    	jmpq   *0x251232(%rip)        # 658188 <_GLOBAL_OFFSET_TABLE_+0x188>
  406f56:	68 2e 00 00 00       	pushq  $0x2e
  406f5b:	e9 00 fd ff ff       	jmpq   406c60 <_init+0x28>

0000000000406f60 <fwrite@plt>:
  406f60:	ff 25 2a 12 25 00    	jmpq   *0x25122a(%rip)        # 658190 <_GLOBAL_OFFSET_TABLE_+0x190>
  406f66:	68 2f 00 00 00       	pushq  $0x2f
  406f6b:	e9 f0 fc ff ff       	jmpq   406c60 <_init+0x28>

0000000000406f70 <realloc@plt>:
  406f70:	ff 25 22 12 25 00    	jmpq   *0x251222(%rip)        # 658198 <_GLOBAL_OFFSET_TABLE_+0x198>
  406f76:	68 30 00 00 00       	pushq  $0x30
  406f7b:	e9 e0 fc ff ff       	jmpq   406c60 <_init+0x28>

0000000000406f80 <perror@plt>:
  406f80:	ff 25 1a 12 25 00    	jmpq   *0x25121a(%rip)        # 6581a0 <_GLOBAL_OFFSET_TABLE_+0x1a0>
  406f86:	68 31 00 00 00       	pushq  $0x31
  406f8b:	e9 d0 fc ff ff       	jmpq   406c60 <_init+0x28>

0000000000406f90 <fprintf@plt>:
  406f90:	ff 25 12 12 25 00    	jmpq   *0x251212(%rip)        # 6581a8 <_GLOBAL_OFFSET_TABLE_+0x1a8>
  406f96:	68 32 00 00 00       	pushq  $0x32
  406f9b:	e9 c0 fc ff ff       	jmpq   406c60 <_init+0x28>

0000000000406fa0 <localtime@plt>:
  406fa0:	ff 25 0a 12 25 00    	jmpq   *0x25120a(%rip)        # 6581b0 <_GLOBAL_OFFSET_TABLE_+0x1b0>
  406fa6:	68 33 00 00 00       	pushq  $0x33
  406fab:	e9 b0 fc ff ff       	jmpq   406c60 <_init+0x28>

0000000000406fb0 <pthread_cond_wait@plt>:
  406fb0:	ff 25 02 12 25 00    	jmpq   *0x251202(%rip)        # 6581b8 <_GLOBAL_OFFSET_TABLE_+0x1b8>
  406fb6:	68 34 00 00 00       	pushq  $0x34
  406fbb:	e9 a0 fc ff ff       	jmpq   406c60 <_init+0x28>

0000000000406fc0 <write@plt>:
  406fc0:	ff 25 fa 11 25 00    	jmpq   *0x2511fa(%rip)        # 6581c0 <_GLOBAL_OFFSET_TABLE_+0x1c0>
  406fc6:	68 35 00 00 00       	pushq  $0x35
  406fcb:	e9 90 fc ff ff       	jmpq   406c60 <_init+0x28>

0000000000406fd0 <pthread_cond_broadcast@plt>:
  406fd0:	ff 25 f2 11 25 00    	jmpq   *0x2511f2(%rip)        # 6581c8 <_GLOBAL_OFFSET_TABLE_+0x1c8>
  406fd6:	68 36 00 00 00       	pushq  $0x36
  406fdb:	e9 80 fc ff ff       	jmpq   406c60 <_init+0x28>

0000000000406fe0 <strtoul@plt>:
  406fe0:	ff 25 ea 11 25 00    	jmpq   *0x2511ea(%rip)        # 6581d0 <_GLOBAL_OFFSET_TABLE_+0x1d0>
  406fe6:	68 37 00 00 00       	pushq  $0x37
  406feb:	e9 70 fc ff ff       	jmpq   406c60 <_init+0x28>

0000000000406ff0 <memcpy@plt>:
  406ff0:	ff 25 e2 11 25 00    	jmpq   *0x2511e2(%rip)        # 6581d8 <_GLOBAL_OFFSET_TABLE_+0x1d8>
  406ff6:	68 38 00 00 00       	pushq  $0x38
  406ffb:	e9 60 fc ff ff       	jmpq   406c60 <_init+0x28>

0000000000407000 <open@plt>:
  407000:	ff 25 da 11 25 00    	jmpq   *0x2511da(%rip)        # 6581e0 <_GLOBAL_OFFSET_TABLE_+0x1e0>
  407006:	68 39 00 00 00       	pushq  $0x39
  40700b:	e9 50 fc ff ff       	jmpq   406c60 <_init+0x28>

0000000000407010 <time@plt>:
  407010:	ff 25 d2 11 25 00    	jmpq   *0x2511d2(%rip)        # 6581e8 <_GLOBAL_OFFSET_TABLE_+0x1e8>
  407016:	68 3a 00 00 00       	pushq  $0x3a
  40701b:	e9 40 fc ff ff       	jmpq   406c60 <_init+0x28>

0000000000407020 <fflush@plt>:
  407020:	ff 25 ca 11 25 00    	jmpq   *0x2511ca(%rip)        # 6581f0 <_GLOBAL_OFFSET_TABLE_+0x1f0>
  407026:	68 3b 00 00 00       	pushq  $0x3b
  40702b:	e9 30 fc ff ff       	jmpq   406c60 <_init+0x28>

0000000000407030 <pthread_join@plt>:
  407030:	ff 25 c2 11 25 00    	jmpq   *0x2511c2(%rip)        # 6581f8 <_GLOBAL_OFFSET_TABLE_+0x1f8>
  407036:	68 3c 00 00 00       	pushq  $0x3c
  40703b:	e9 20 fc ff ff       	jmpq   406c60 <_init+0x28>

Disassembly of section .text:

0000000000407040 <CRYPTO_lock.part.0>:
  407040:	50                   	push   %rax
  407041:	ba 96 df 43 00       	mov    $0x43df96,%edx
  407046:	be 53 02 00 00       	mov    $0x253,%esi
  40704b:	bf 68 df 43 00       	mov    $0x43df68,%edi
  407050:	e8 9b dd 01 00       	callq  424df0 <OpenSSLDie>

0000000000407055 <_start>:
  407055:	31 ed                	xor    %ebp,%ebp
  407057:	49 89 d1             	mov    %rdx,%r9
  40705a:	5e                   	pop    %rsi
  40705b:	48 89 e2             	mov    %rsp,%rdx
  40705e:	48 83 e4 f0          	and    $0xfffffffffffffff0,%rsp
  407062:	50                   	push   %rax
  407063:	54                   	push   %rsp
  407064:	49 c7 c0 e0 7b 43 00 	mov    $0x437be0,%r8
  40706b:	48 c7 c1 70 7b 43 00 	mov    $0x437b70,%rcx
  407072:	48 c7 c7 3b 86 40 00 	mov    $0x40863b,%rdi
  407079:	e8 e2 fc ff ff       	callq  406d60 <__libc_start_main@plt>
  40707e:	f4                   	hlt    
  40707f:	90                   	nop

0000000000407080 <deregister_tm_clones>:
  407080:	b8 37 89 65 00       	mov    $0x658937,%eax
  407085:	55                   	push   %rbp
  407086:	48 2d 30 89 65 00    	sub    $0x658930,%rax
  40708c:	48 83 f8 0e          	cmp    $0xe,%rax
  407090:	48 89 e5             	mov    %rsp,%rbp
  407093:	76 1b                	jbe    4070b0 <deregister_tm_clones+0x30>
  407095:	b8 00 00 00 00       	mov    $0x0,%eax
  40709a:	48 85 c0             	test   %rax,%rax
  40709d:	74 11                	je     4070b0 <deregister_tm_clones+0x30>
  40709f:	5d                   	pop    %rbp
  4070a0:	bf 30 89 65 00       	mov    $0x658930,%edi
  4070a5:	ff e0                	jmpq   *%rax
  4070a7:	66 0f 1f 84 00 00 00 	nopw   0x0(%rax,%rax,1)
  4070ae:	00 00 
  4070b0:	5d                   	pop    %rbp
  4070b1:	c3                   	retq   
  4070b2:	66 66 66 66 66 2e 0f 	data16 data16 data16 data16 nopw %cs:0x0(%rax,%rax,1)
  4070b9:	1f 84 00 00 00 00 00 

00000000004070c0 <register_tm_clones>:
  4070c0:	be 30 89 65 00       	mov    $0x658930,%esi
  4070c5:	55                   	push   %rbp
  4070c6:	48 81 ee 30 89 65 00 	sub    $0x658930,%rsi
  4070cd:	48 c1 fe 03          	sar    $0x3,%rsi
  4070d1:	48 89 e5             	mov    %rsp,%rbp
  4070d4:	48 89 f0             	mov    %rsi,%rax
  4070d7:	48 c1 e8 3f          	shr    $0x3f,%rax
  4070db:	48 01 c6             	add    %rax,%rsi
  4070de:	48 d1 fe             	sar    %rsi
  4070e1:	74 15                	je     4070f8 <register_tm_clones+0x38>
  4070e3:	b8 00 00 00 00       	mov    $0x0,%eax
  4070e8:	48 85 c0             	test   %rax,%rax
  4070eb:	74 0b                	je     4070f8 <register_tm_clones+0x38>
  4070ed:	5d                   	pop    %rbp
  4070ee:	bf 30 89 65 00       	mov    $0x658930,%edi
  4070f3:	ff e0                	jmpq   *%rax
  4070f5:	0f 1f 00             	nopl   (%rax)
  4070f8:	5d                   	pop    %rbp
  4070f9:	c3                   	retq   
  4070fa:	66 0f 1f 44 00 00    	nopw   0x0(%rax,%rax,1)

0000000000407100 <__do_global_dtors_aux>:
  407100:	80 3d 91 18 25 00 00 	cmpb   $0x0,0x251891(%rip)        # 658998 <completed.7259>
  407107:	75 11                	jne    40711a <__do_global_dtors_aux+0x1a>
  407109:	55                   	push   %rbp
  40710a:	48 89 e5             	mov    %rsp,%rbp
  40710d:	e8 6e ff ff ff       	callq  407080 <deregister_tm_clones>
  407112:	5d                   	pop    %rbp
  407113:	c6 05 7e 18 25 00 01 	movb   $0x1,0x25187e(%rip)        # 658998 <completed.7259>
  40711a:	f3 c3                	repz retq 
  40711c:	0f 1f 40 00          	nopl   0x0(%rax)

0000000000407120 <frame_dummy>:
  407120:	bf 00 7e 65 00       	mov    $0x657e00,%edi
  407125:	48 83 3f 00          	cmpq   $0x0,(%rdi)
  407129:	75 05                	jne    407130 <frame_dummy+0x10>
  40712b:	eb 93                	jmp    4070c0 <register_tm_clones>
  40712d:	0f 1f 00             	nopl   (%rax)
  407130:	b8 00 00 00 00       	mov    $0x0,%eax
  407135:	48 85 c0             	test   %rax,%rax
  407138:	74 f1                	je     40712b <frame_dummy+0xb>
  40713a:	55                   	push   %rbp
  40713b:	48 89 e5             	mov    %rsp,%rbp
  40713e:	ff d0                	callq  *%rax
  407140:	5d                   	pop    %rbp
  407141:	e9 7a ff ff ff       	jmpq   4070c0 <register_tm_clones>

0000000000407146 <Initialize>:

#define MinPQSize (16)

PriorityQueue
Initialize( int InitCapacity )
{
  407146:	55                   	push   %rbp
  407147:	48 89 e5             	mov    %rsp,%rbp
  40714a:	48 83 ec 20          	sub    $0x20,%rsp
  40714e:	89 7d ec             	mov    %edi,-0x14(%rbp)
	PriorityQueue H;

	if( InitCapacity < MinPQSize )
  407151:	83 7d ec 0f          	cmpl   $0xf,-0x14(%rbp)
  407155:	7f 28                	jg     40717f <Initialize+0x39>
		Error( "Priority queue size is too small" );
  407157:	48 8b 05 22 18 25 00 	mov    0x251822(%rip),%rax        # 658980 <stderr@@GLIBC_2.2.5>
  40715e:	ba 48 7c 43 00       	mov    $0x437c48,%edx
  407163:	be 69 7c 43 00       	mov    $0x437c69,%esi
  407168:	48 89 c7             	mov    %rax,%rdi
  40716b:	b8 00 00 00 00       	mov    $0x0,%eax
  407170:	e8 1b fe ff ff       	callq  406f90 <fprintf@plt>
  407175:	bf 01 00 00 00       	mov    $0x1,%edi
  40717a:	e8 a1 fb ff ff       	callq  406d20 <exit@plt>

	H = malloc( sizeof( struct HeapStruct ) );
  40717f:	bf 10 00 00 00       	mov    $0x10,%edi
  407184:	e8 c7 fb ff ff       	callq  406d50 <malloc@plt>
  407189:	48 89 45 f8          	mov    %rax,-0x8(%rbp)
	if( H ==NULL )
  40718d:	48 83 7d f8 00       	cmpq   $0x0,-0x8(%rbp)
  407192:	75 28                	jne    4071bc <Initialize+0x76>
		FatalError( "Out of space!!!" );
  407194:	48 8b 05 e5 17 25 00 	mov    0x2517e5(%rip),%rax        # 658980 <stderr@@GLIBC_2.2.5>
  40719b:	ba 7a 7c 43 00       	mov    $0x437c7a,%edx
  4071a0:	be 69 7c 43 00       	mov    $0x437c69,%esi
  4071a5:	48 89 c7             	mov    %rax,%rdi
  4071a8:	b8 00 00 00 00       	mov    $0x0,%eax
  4071ad:	e8 de fd ff ff       	callq  406f90 <fprintf@plt>
  4071b2:	bf 01 00 00 00       	mov    $0x1,%edi
  4071b7:	e8 64 fb ff ff       	callq  406d20 <exit@plt>

	/* Allocate the array plus one extra for sentinel */
	H->Elements = malloc( ( InitCapacity + 1 ) * sizeof( HeapElementType ) );
  4071bc:	8b 45 ec             	mov    -0x14(%rbp),%eax
  4071bf:	83 c0 01             	add    $0x1,%eax
  4071c2:	48 98                	cltq   
  4071c4:	48 c1 e0 03          	shl    $0x3,%rax
  4071c8:	48 89 c7             	mov    %rax,%rdi
  4071cb:	e8 80 fb ff ff       	callq  406d50 <malloc@plt>
  4071d0:	48 89 c2             	mov    %rax,%rdx
  4071d3:	48 8b 45 f8          	mov    -0x8(%rbp),%rax
  4071d7:	48 89 50 08          	mov    %rdx,0x8(%rax)
	if( H->Elements == NULL )
  4071db:	48 8b 45 f8          	mov    -0x8(%rbp),%rax
  4071df:	48 8b 40 08          	mov    0x8(%rax),%rax
  4071e3:	48 85 c0             	test   %rax,%rax
  4071e6:	75 28                	jne    407210 <Initialize+0xca>
		FatalError( "Out of space!!!" );
  4071e8:	48 8b 05 91 17 25 00 	mov    0x251791(%rip),%rax        # 658980 <stderr@@GLIBC_2.2.5>
  4071ef:	ba 7a 7c 43 00       	mov    $0x437c7a,%edx
  4071f4:	be 69 7c 43 00       	mov    $0x437c69,%esi
  4071f9:	48 89 c7             	mov    %rax,%rdi
  4071fc:	b8 00 00 00 00       	mov    $0x0,%eax
  407201:	e8 8a fd ff ff       	callq  406f90 <fprintf@plt>
  407206:	bf 01 00 00 00       	mov    $0x1,%edi
  40720b:	e8 10 fb ff ff       	callq  406d20 <exit@plt>

	H->Capacity = InitCapacity;
  407210:	48 8b 45 f8          	mov    -0x8(%rbp),%rax
  407214:	8b 55 ec             	mov    -0x14(%rbp),%edx
  407217:	89 10                	mov    %edx,(%rax)
	H->Size = 0;
  407219:	48 8b 45 f8          	mov    -0x8(%rbp),%rax
  40721d:	c7 40 04 00 00 00 00 	movl   $0x0,0x4(%rax)
        H->Elements[0] = NULL;
  407224:	48 8b 45 f8          	mov    -0x8(%rbp),%rax
  407228:	48 8b 40 08          	mov    0x8(%rax),%rax
  40722c:	48 c7 00 00 00 00 00 	movq   $0x0,(%rax)

	return H;
  407233:	48 8b 45 f8          	mov    -0x8(%rbp),%rax
}
  407237:	c9                   	leaveq 
  407238:	c3                   	retq   

0000000000407239 <MakeEmpty>:

void
MakeEmpty( PriorityQueue H )
{
  407239:	55                   	push   %rbp
  40723a:	48 89 e5             	mov    %rsp,%rbp
  40723d:	48 89 7d f8          	mov    %rdi,-0x8(%rbp)
	H->Size = 0;
  407241:	48 8b 45 f8          	mov    -0x8(%rbp),%rax
  407245:	c7 40 04 00 00 00 00 	movl   $0x0,0x4(%rax)
}
  40724c:	5d                   	pop    %rbp
  40724d:	c3                   	retq   

000000000040724e <Insert>:

void
Insert( HeapElementType X, PriorityQueue H )
{
  40724e:	55                   	push   %rbp
  40724f:	48 89 e5             	mov    %rsp,%rbp
  407252:	48 83 ec 20          	sub    $0x20,%rsp
  407256:	48 89 7d e8          	mov    %rdi,-0x18(%rbp)
  40725a:	48 89 75 e0          	mov    %rsi,-0x20(%rbp)
	int i;

	if( IsFull( H ) )
  40725e:	48 8b 45 e0          	mov    -0x20(%rbp),%rax
  407262:	48 89 c7             	mov    %rax,%rdi
  407265:	e8 3a 03 00 00       	callq  4075a4 <IsFull>
  40726a:	85 c0                	test   %eax,%eax
  40726c:	74 75                	je     4072e3 <Insert+0x95>
	{
		/* double capacity of heap */
		H->Capacity = 2 * H->Capacity;
  40726e:	48 8b 45 e0          	mov    -0x20(%rbp),%rax
  407272:	8b 00                	mov    (%rax),%eax
  407274:	8d 14 00             	lea    (%rax,%rax,1),%edx
  407277:	48 8b 45 e0          	mov    -0x20(%rbp),%rax
  40727b:	89 10                	mov    %edx,(%rax)
		H->Elements = realloc( H->Elements, ( H->Capacity + 1 ) * sizeof( HeapElementType ) );
  40727d:	48 8b 45 e0          	mov    -0x20(%rbp),%rax
  407281:	8b 00                	mov    (%rax),%eax
  407283:	83 c0 01             	add    $0x1,%eax
  407286:	48 98                	cltq   
  407288:	48 8d 14 c5 00 00 00 	lea    0x0(,%rax,8),%rdx
  40728f:	00 
  407290:	48 8b 45 e0          	mov    -0x20(%rbp),%rax
  407294:	48 8b 40 08          	mov    0x8(%rax),%rax
  407298:	48 89 d6             	mov    %rdx,%rsi
  40729b:	48 89 c7             	mov    %rax,%rdi
  40729e:	e8 cd fc ff ff       	callq  406f70 <realloc@plt>
  4072a3:	48 89 c2             	mov    %rax,%rdx
  4072a6:	48 8b 45 e0          	mov    -0x20(%rbp),%rax
  4072aa:	48 89 50 08          	mov    %rdx,0x8(%rax)
		if( H->Elements == NULL )
  4072ae:	48 8b 45 e0          	mov    -0x20(%rbp),%rax
  4072b2:	48 8b 40 08          	mov    0x8(%rax),%rax
  4072b6:	48 85 c0             	test   %rax,%rax
  4072b9:	75 28                	jne    4072e3 <Insert+0x95>
			FatalError( "Out of space!!!" );
  4072bb:	48 8b 05 be 16 25 00 	mov    0x2516be(%rip),%rax        # 658980 <stderr@@GLIBC_2.2.5>
  4072c2:	ba 7a 7c 43 00       	mov    $0x437c7a,%edx
  4072c7:	be 69 7c 43 00       	mov    $0x437c69,%esi
  4072cc:	48 89 c7             	mov    %rax,%rdi
  4072cf:	b8 00 00 00 00       	mov    $0x0,%eax
  4072d4:	e8 b7 fc ff ff       	callq  406f90 <fprintf@plt>
  4072d9:	bf 01 00 00 00       	mov    $0x1,%edi
  4072de:	e8 3d fa ff ff       	callq  406d20 <exit@plt>
	}

	/* NOTE: H->Element[ 0 ] is a sentinel */

        if (H->Size == 0) {
  4072e3:	48 8b 45 e0          	mov    -0x20(%rbp),%rax
  4072e7:	8b 40 04             	mov    0x4(%rax),%eax
  4072ea:	85 c0                	test   %eax,%eax
  4072ec:	75 23                	jne    407311 <Insert+0xc3>
          H->Elements[1] = X;
  4072ee:	48 8b 45 e0          	mov    -0x20(%rbp),%rax
  4072f2:	48 8b 40 08          	mov    0x8(%rax),%rax
  4072f6:	48 8d 50 08          	lea    0x8(%rax),%rdx
  4072fa:	48 8b 45 e8          	mov    -0x18(%rbp),%rax
  4072fe:	48 89 02             	mov    %rax,(%rdx)
          H->Size = 1;
  407301:	48 8b 45 e0          	mov    -0x20(%rbp),%rax
  407305:	c7 40 04 01 00 00 00 	movl   $0x1,0x4(%rax)
          return;
  40730c:	e9 d5 00 00 00       	jmpq   4073e6 <Insert+0x198>
        }

        H->Size++;
  407311:	48 8b 45 e0          	mov    -0x20(%rbp),%rax
  407315:	8b 40 04             	mov    0x4(%rax),%eax
  407318:	8d 50 01             	lea    0x1(%rax),%edx
  40731b:	48 8b 45 e0          	mov    -0x20(%rbp),%rax
  40731f:	89 50 04             	mov    %edx,0x4(%rax)
	for( i = H->Size; H->Elements[i/2]!= NULL && H->Elements[ i / 2 ]->cid > X->cid; i /= 2 ) {
  407322:	48 8b 45 e0          	mov    -0x20(%rbp),%rax
  407326:	8b 40 04             	mov    0x4(%rax),%eax
  407329:	89 45 fc             	mov    %eax,-0x4(%rbp)
  40732c:	eb 47                	jmp    407375 <Insert+0x127>
          H->Elements[ i ] = H->Elements[ i / 2 ];
  40732e:	48 8b 45 e0          	mov    -0x20(%rbp),%rax
  407332:	48 8b 40 08          	mov    0x8(%rax),%rax
  407336:	8b 55 fc             	mov    -0x4(%rbp),%edx
  407339:	48 63 d2             	movslq %edx,%rdx
  40733c:	48 c1 e2 03          	shl    $0x3,%rdx
  407340:	48 01 c2             	add    %rax,%rdx
  407343:	48 8b 45 e0          	mov    -0x20(%rbp),%rax
  407347:	48 8b 48 08          	mov    0x8(%rax),%rcx
  40734b:	8b 45 fc             	mov    -0x4(%rbp),%eax
  40734e:	89 c6                	mov    %eax,%esi
  407350:	c1 ee 1f             	shr    $0x1f,%esi
  407353:	01 f0                	add    %esi,%eax
  407355:	d1 f8                	sar    %eax
  407357:	48 98                	cltq   
  407359:	48 c1 e0 03          	shl    $0x3,%rax
  40735d:	48 01 c8             	add    %rcx,%rax
  407360:	48 8b 00             	mov    (%rax),%rax
  407363:	48 89 02             	mov    %rax,(%rdx)
          H->Size = 1;
          return;
        }

        H->Size++;
	for( i = H->Size; H->Elements[i/2]!= NULL && H->Elements[ i / 2 ]->cid > X->cid; i /= 2 ) {
  407366:	8b 45 fc             	mov    -0x4(%rbp),%eax
  407369:	89 c2                	mov    %eax,%edx
  40736b:	c1 ea 1f             	shr    $0x1f,%edx
  40736e:	01 d0                	add    %edx,%eax
  407370:	d1 f8                	sar    %eax
  407372:	89 45 fc             	mov    %eax,-0x4(%rbp)
  407375:	48 8b 45 e0          	mov    -0x20(%rbp),%rax
  407379:	48 8b 50 08          	mov    0x8(%rax),%rdx
  40737d:	8b 45 fc             	mov    -0x4(%rbp),%eax
  407380:	89 c1                	mov    %eax,%ecx
  407382:	c1 e9 1f             	shr    $0x1f,%ecx
  407385:	01 c8                	add    %ecx,%eax
  407387:	d1 f8                	sar    %eax
  407389:	48 98                	cltq   
  40738b:	48 c1 e0 03          	shl    $0x3,%rax
  40738f:	48 01 d0             	add    %rdx,%rax
  407392:	48 8b 00             	mov    (%rax),%rax
  407395:	48 85 c0             	test   %rax,%rax
  407398:	74 30                	je     4073ca <Insert+0x17c>
  40739a:	48 8b 45 e0          	mov    -0x20(%rbp),%rax
  40739e:	48 8b 50 08          	mov    0x8(%rax),%rdx
  4073a2:	8b 45 fc             	mov    -0x4(%rbp),%eax
  4073a5:	89 c1                	mov    %eax,%ecx
  4073a7:	c1 e9 1f             	shr    $0x1f,%ecx
  4073aa:	01 c8                	add    %ecx,%eax
  4073ac:	d1 f8                	sar    %eax
  4073ae:	48 98                	cltq   
  4073b0:	48 c1 e0 03          	shl    $0x3,%rax
  4073b4:	48 01 d0             	add    %rdx,%rax
  4073b7:	48 8b 00             	mov    (%rax),%rax
  4073ba:	8b 10                	mov    (%rax),%edx
  4073bc:	48 8b 45 e8          	mov    -0x18(%rbp),%rax
  4073c0:	8b 00                	mov    (%rax),%eax
  4073c2:	39 c2                	cmp    %eax,%edx
  4073c4:	0f 87 64 ff ff ff    	ja     40732e <Insert+0xe0>
          H->Elements[ i ] = H->Elements[ i / 2 ];
        }
	H->Elements[ i ] = X;
  4073ca:	48 8b 45 e0          	mov    -0x20(%rbp),%rax
  4073ce:	48 8b 40 08          	mov    0x8(%rax),%rax
  4073d2:	8b 55 fc             	mov    -0x4(%rbp),%edx
  4073d5:	48 63 d2             	movslq %edx,%rdx
  4073d8:	48 c1 e2 03          	shl    $0x3,%rdx
  4073dc:	48 01 c2             	add    %rax,%rdx
  4073df:	48 8b 45 e8          	mov    -0x18(%rbp),%rax
  4073e3:	48 89 02             	mov    %rax,(%rdx)
        
}
  4073e6:	c9                   	leaveq 
  4073e7:	c3                   	retq   

00000000004073e8 <DeleteMin>:

HeapElementType
DeleteMin( PriorityQueue H )
{
  4073e8:	55                   	push   %rbp
  4073e9:	48 89 e5             	mov    %rsp,%rbp
  4073ec:	48 83 ec 30          	sub    $0x30,%rsp
  4073f0:	48 89 7d d8          	mov    %rdi,-0x28(%rbp)
	int i, Child;
	HeapElementType MinElement, LastElement;

	if( IsEmpty( H ) )
  4073f4:	48 8b 45 d8          	mov    -0x28(%rbp),%rax
  4073f8:	48 89 c7             	mov    %rax,%rdi
  4073fb:	e8 8b 01 00 00       	callq  40758b <IsEmpty>
  407400:	85 c0                	test   %eax,%eax
  407402:	74 28                	je     40742c <DeleteMin+0x44>
	{
		Error( "Priority queue is empty" );
  407404:	48 8b 05 75 15 25 00 	mov    0x251575(%rip),%rax        # 658980 <stderr@@GLIBC_2.2.5>
  40740b:	ba 8a 7c 43 00       	mov    $0x437c8a,%edx
  407410:	be 69 7c 43 00       	mov    $0x437c69,%esi
  407415:	48 89 c7             	mov    %rax,%rdi
  407418:	b8 00 00 00 00       	mov    $0x0,%eax
  40741d:	e8 6e fb ff ff       	callq  406f90 <fprintf@plt>
  407422:	bf 01 00 00 00       	mov    $0x1,%edi
  407427:	e8 f4 f8 ff ff       	callq  406d20 <exit@plt>
		return H->Elements[ 0 ];
	}
	MinElement = H->Elements[ 1 ];
  40742c:	48 8b 45 d8          	mov    -0x28(%rbp),%rax
  407430:	48 8b 40 08          	mov    0x8(%rax),%rax
  407434:	48 8b 40 08          	mov    0x8(%rax),%rax
  407438:	48 89 45 f0          	mov    %rax,-0x10(%rbp)
	LastElement = H->Elements[ H->Size-- ];
  40743c:	48 8b 45 d8          	mov    -0x28(%rbp),%rax
  407440:	48 8b 70 08          	mov    0x8(%rax),%rsi
  407444:	48 8b 45 d8          	mov    -0x28(%rbp),%rax
  407448:	8b 40 04             	mov    0x4(%rax),%eax
  40744b:	8d 48 ff             	lea    -0x1(%rax),%ecx
  40744e:	48 8b 55 d8          	mov    -0x28(%rbp),%rdx
  407452:	89 4a 04             	mov    %ecx,0x4(%rdx)
  407455:	48 98                	cltq   
  407457:	48 c1 e0 03          	shl    $0x3,%rax
  40745b:	48 01 f0             	add    %rsi,%rax
  40745e:	48 8b 00             	mov    (%rax),%rax
  407461:	48 89 45 f8          	mov    %rax,-0x8(%rbp)

	for( i = 1; i * 2 <= H->Size; i = Child )
  407465:	c7 45 e8 01 00 00 00 	movl   $0x1,-0x18(%rbp)
  40746c:	e9 b2 00 00 00       	jmpq   407523 <DeleteMin+0x13b>
	{
		/* Find smaller child */
		Child = i * 2;
  407471:	8b 45 e8             	mov    -0x18(%rbp),%eax
  407474:	01 c0                	add    %eax,%eax
  407476:	89 45 ec             	mov    %eax,-0x14(%rbp)
		if( Child != H->Size && H->Elements[ Child + 1 ]->cid < H->Elements[ Child ]->cid )
  407479:	48 8b 45 d8          	mov    -0x28(%rbp),%rax
  40747d:	8b 40 04             	mov    0x4(%rax),%eax
  407480:	3b 45 ec             	cmp    -0x14(%rbp),%eax
  407483:	74 40                	je     4074c5 <DeleteMin+0xdd>
  407485:	48 8b 45 d8          	mov    -0x28(%rbp),%rax
  407489:	48 8b 40 08          	mov    0x8(%rax),%rax
  40748d:	8b 55 ec             	mov    -0x14(%rbp),%edx
  407490:	48 63 d2             	movslq %edx,%rdx
  407493:	48 83 c2 01          	add    $0x1,%rdx
  407497:	48 c1 e2 03          	shl    $0x3,%rdx
  40749b:	48 01 d0             	add    %rdx,%rax
  40749e:	48 8b 00             	mov    (%rax),%rax
  4074a1:	8b 10                	mov    (%rax),%edx
  4074a3:	48 8b 45 d8          	mov    -0x28(%rbp),%rax
  4074a7:	48 8b 40 08          	mov    0x8(%rax),%rax
  4074ab:	8b 4d ec             	mov    -0x14(%rbp),%ecx
  4074ae:	48 63 c9             	movslq %ecx,%rcx
  4074b1:	48 c1 e1 03          	shl    $0x3,%rcx
  4074b5:	48 01 c8             	add    %rcx,%rax
  4074b8:	48 8b 00             	mov    (%rax),%rax
  4074bb:	8b 00                	mov    (%rax),%eax
  4074bd:	39 c2                	cmp    %eax,%edx
  4074bf:	73 04                	jae    4074c5 <DeleteMin+0xdd>
			Child++;
  4074c1:	83 45 ec 01          	addl   $0x1,-0x14(%rbp)

		/* Percolate one level */
		if( LastElement->cid > H->Elements[ Child ]->cid )
  4074c5:	48 8b 45 f8          	mov    -0x8(%rbp),%rax
  4074c9:	8b 10                	mov    (%rax),%edx
  4074cb:	48 8b 45 d8          	mov    -0x28(%rbp),%rax
  4074cf:	48 8b 40 08          	mov    0x8(%rax),%rax
  4074d3:	8b 4d ec             	mov    -0x14(%rbp),%ecx
  4074d6:	48 63 c9             	movslq %ecx,%rcx
  4074d9:	48 c1 e1 03          	shl    $0x3,%rcx
  4074dd:	48 01 c8             	add    %rcx,%rax
  4074e0:	48 8b 00             	mov    (%rax),%rax
  4074e3:	8b 00                	mov    (%rax),%eax
  4074e5:	39 c2                	cmp    %eax,%edx
  4074e7:	76 32                	jbe    40751b <DeleteMin+0x133>
			H->Elements[ i ] = H->Elements[ Child ];
  4074e9:	48 8b 45 d8          	mov    -0x28(%rbp),%rax
  4074ed:	48 8b 40 08          	mov    0x8(%rax),%rax
  4074f1:	8b 55 e8             	mov    -0x18(%rbp),%edx
  4074f4:	48 63 d2             	movslq %edx,%rdx
  4074f7:	48 c1 e2 03          	shl    $0x3,%rdx
  4074fb:	48 01 c2             	add    %rax,%rdx
  4074fe:	48 8b 45 d8          	mov    -0x28(%rbp),%rax
  407502:	48 8b 40 08          	mov    0x8(%rax),%rax
  407506:	8b 4d ec             	mov    -0x14(%rbp),%ecx
  407509:	48 63 c9             	movslq %ecx,%rcx
  40750c:	48 c1 e1 03          	shl    $0x3,%rcx
  407510:	48 01 c8             	add    %rcx,%rax
  407513:	48 8b 00             	mov    (%rax),%rax
  407516:	48 89 02             	mov    %rax,(%rdx)
  407519:	eb 02                	jmp    40751d <DeleteMin+0x135>
		else
			break;
  40751b:	eb 1b                	jmp    407538 <DeleteMin+0x150>
		return H->Elements[ 0 ];
	}
	MinElement = H->Elements[ 1 ];
	LastElement = H->Elements[ H->Size-- ];

	for( i = 1; i * 2 <= H->Size; i = Child )
  40751d:	8b 45 ec             	mov    -0x14(%rbp),%eax
  407520:	89 45 e8             	mov    %eax,-0x18(%rbp)
  407523:	8b 45 e8             	mov    -0x18(%rbp),%eax
  407526:	8d 14 00             	lea    (%rax,%rax,1),%edx
  407529:	48 8b 45 d8          	mov    -0x28(%rbp),%rax
  40752d:	8b 40 04             	mov    0x4(%rax),%eax
  407530:	39 c2                	cmp    %eax,%edx
  407532:	0f 8e 39 ff ff ff    	jle    407471 <DeleteMin+0x89>
		if( LastElement->cid > H->Elements[ Child ]->cid )
			H->Elements[ i ] = H->Elements[ Child ];
		else
			break;
	}
	H->Elements[ i ] = LastElement;
  407538:	48 8b 45 d8          	mov    -0x28(%rbp),%rax
  40753c:	48 8b 40 08          	mov    0x8(%rax),%rax
  407540:	8b 55 e8             	mov    -0x18(%rbp),%edx
  407543:	48 63 d2             	movslq %edx,%rdx
  407546:	48 c1 e2 03          	shl    $0x3,%rdx
  40754a:	48 01 c2             	add    %rax,%rdx
  40754d:	48 8b 45 f8          	mov    -0x8(%rbp),%rax
  407551:	48 89 02             	mov    %rax,(%rdx)
	return MinElement;
  407554:	48 8b 45 f0          	mov    -0x10(%rbp),%rax
}
  407558:	c9                   	leaveq 
  407559:	c3                   	retq   

000000000040755a <FindMin>:

HeapElementType
FindMin( PriorityQueue H )
{
  40755a:	55                   	push   %rbp
  40755b:	48 89 e5             	mov    %rsp,%rbp
  40755e:	48 83 ec 10          	sub    $0x10,%rsp
  407562:	48 89 7d f8          	mov    %rdi,-0x8(%rbp)
	if( !IsEmpty( H ) )
  407566:	48 8b 45 f8          	mov    -0x8(%rbp),%rax
  40756a:	48 89 c7             	mov    %rax,%rdi
  40756d:	e8 19 00 00 00       	callq  40758b <IsEmpty>
  407572:	85 c0                	test   %eax,%eax
  407574:	75 0e                	jne    407584 <FindMin+0x2a>
		return H->Elements[ 1 ];
  407576:	48 8b 45 f8          	mov    -0x8(%rbp),%rax
  40757a:	48 8b 40 08          	mov    0x8(%rax),%rax
  40757e:	48 8b 40 08          	mov    0x8(%rax),%rax
  407582:	eb 05                	jmp    407589 <FindMin+0x2f>
	else
          //FatalError( "Priority Queue is Empty" );
          return NULL;
  407584:	b8 00 00 00 00       	mov    $0x0,%eax
}
  407589:	c9                   	leaveq 
  40758a:	c3                   	retq   

000000000040758b <IsEmpty>:

int
IsEmpty( PriorityQueue H )
{
  40758b:	55                   	push   %rbp
  40758c:	48 89 e5             	mov    %rsp,%rbp
  40758f:	48 89 7d f8          	mov    %rdi,-0x8(%rbp)
	return (H->Size == 0);
  407593:	48 8b 45 f8          	mov    -0x8(%rbp),%rax
  407597:	8b 40 04             	mov    0x4(%rax),%eax
  40759a:	85 c0                	test   %eax,%eax
  40759c:	0f 94 c0             	sete   %al
  40759f:	0f b6 c0             	movzbl %al,%eax
}
  4075a2:	5d                   	pop    %rbp
  4075a3:	c3                   	retq   

00000000004075a4 <IsFull>:

int
IsFull( PriorityQueue H )
{
  4075a4:	55                   	push   %rbp
  4075a5:	48 89 e5             	mov    %rsp,%rbp
  4075a8:	48 89 7d f8          	mov    %rdi,-0x8(%rbp)
	return H->Size == H->Capacity;
  4075ac:	48 8b 45 f8          	mov    -0x8(%rbp),%rax
  4075b0:	8b 50 04             	mov    0x4(%rax),%edx
  4075b3:	48 8b 45 f8          	mov    -0x8(%rbp),%rax
  4075b7:	8b 00                	mov    (%rax),%eax
  4075b9:	39 c2                	cmp    %eax,%edx
  4075bb:	0f 94 c0             	sete   %al
  4075be:	0f b6 c0             	movzbl %al,%eax
}
  4075c1:	5d                   	pop    %rbp
  4075c2:	c3                   	retq   

00000000004075c3 <NumberElements>:

int
NumberElements( PriorityQueue H )
{
  4075c3:	55                   	push   %rbp
  4075c4:	48 89 e5             	mov    %rsp,%rbp
  4075c7:	48 89 7d f8          	mov    %rdi,-0x8(%rbp)
	return H->Size;
  4075cb:	48 8b 45 f8          	mov    -0x8(%rbp),%rax
  4075cf:	8b 40 04             	mov    0x4(%rax),%eax
}
  4075d2:	5d                   	pop    %rbp
  4075d3:	c3                   	retq   

00000000004075d4 <Destroy>:

void
Destroy( PriorityQueue H )
{
  4075d4:	55                   	push   %rbp
  4075d5:	48 89 e5             	mov    %rsp,%rbp
  4075d8:	48 83 ec 10          	sub    $0x10,%rsp
  4075dc:	48 89 7d f8          	mov    %rdi,-0x8(%rbp)
	free( H->Elements );
  4075e0:	48 8b 45 f8          	mov    -0x8(%rbp),%rax
  4075e4:	48 8b 40 08          	mov    0x8(%rax),%rax
  4075e8:	48 89 c7             	mov    %rax,%rdi
  4075eb:	e8 b0 f7 ff ff       	callq  406da0 <free@plt>
	free( H );
  4075f0:	48 8b 45 f8          	mov    -0x8(%rbp),%rax
  4075f4:	48 89 c7             	mov    %rax,%rdi
  4075f7:	e8 a4 f7 ff ff       	callq  406da0 <free@plt>
}
  4075fc:	c9                   	leaveq 
  4075fd:	c3                   	retq   

00000000004075fe <CheckCache>:

/*
 * Given SHA-1 key, check whether the corresponding compressed data is available
 */
void * 
CheckCache(void * args) {
  4075fe:	55                   	push   %rbp
  4075ff:	48 89 e5             	mov    %rsp,%rbp
  407602:	48 83 ec 30          	sub    $0x30,%rsp
  407606:	48 89 7d d8          	mov    %rdi,-0x28(%rbp)
  while (1) {
    send_buf_item * item;
    if (tail_checkcache == head_checkcache && end_RecvBlock) {
  40760a:	8b 15 8c 16 25 00    	mov    0x25168c(%rip),%edx        # 658c9c <tail_checkcache>
  407610:	8b 05 82 16 25 00    	mov    0x251682(%rip),%eax        # 658c98 <head_checkcache>
  407616:	39 c2                	cmp    %eax,%edx
  407618:	75 0f                	jne    407629 <CheckCache+0x2b>
  40761a:	8b 05 8c 16 25 00    	mov    0x25168c(%rip),%eax        # 658cac <end_RecvBlock>
  407620:	85 c0                	test   %eax,%eax
  407622:	74 05                	je     407629 <CheckCache+0x2b>
      break;     
  407624:	e9 ff 00 00 00       	jmpq   407728 <CheckCache+0x12a>
    }
    item = buf_checkcache[tail_checkcache];
  407629:	8b 05 6d 16 25 00    	mov    0x25166d(%rip),%eax        # 658c9c <tail_checkcache>
  40762f:	48 98                	cltq   
  407631:	48 8b 04 c5 c0 a9 65 	mov    0x65a9c0(,%rax,8),%rax
  407638:	00 
  407639:	48 89 45 e0          	mov    %rax,-0x20(%rbp)
    tail_checkcache ++;
  40763d:	8b 05 59 16 25 00    	mov    0x251659(%rip),%eax        # 658c9c <tail_checkcache>
  407643:	83 c0 01             	add    $0x1,%eax
  407646:	89 05 50 16 25 00    	mov    %eax,0x251650(%rip)        # 658c9c <tail_checkcache>

    if (tail_checkcache == NUM_BUF_CHECKCACHE) tail_checkcache = 0;
  40764c:	8b 05 4a 16 25 00    	mov    0x25164a(%rip),%eax        # 658c9c <tail_checkcache>
  407652:	3d 00 00 10 00       	cmp    $0x100000,%eax
  407657:	75 0a                	jne    407663 <CheckCache+0x65>
  407659:	c7 05 39 16 25 00 00 	movl   $0x0,0x251639(%rip)        # 658c9c <tail_checkcache>
  407660:	00 00 00 

    data_chunk * value;
    struct hash_entry * ent;
    /* search the cache */
    //if data not available, wait
    while ((ent = hashtable_search(cache, item->content)) == NULL) {
  407663:	90                   	nop
  407664:	48 8b 45 e0          	mov    -0x20(%rbp),%rax
  407668:	48 8b 50 10          	mov    0x10(%rax),%rdx
  40766c:	48 8b 05 4d 33 25 01 	mov    0x125334d(%rip),%rax        # 165a9c0 <cache>
  407673:	48 89 d6             	mov    %rdx,%rsi
  407676:	48 89 c7             	mov    %rax,%rdi
  407679:	e8 bf 54 00 00       	callq  40cb3d <hashtable_search>
  40767e:	48 89 45 e8          	mov    %rax,-0x18(%rbp)
  407682:	48 83 7d e8 00       	cmpq   $0x0,-0x18(%rbp)
  407687:	74 db                	je     407664 <CheckCache+0x66>
    }

    value = ent->v;
  407689:	48 8b 45 e8          	mov    -0x18(%rbp),%rax
  40768d:	48 8b 40 08          	mov    0x8(%rax),%rax
  407691:	48 89 45 f0          	mov    %rax,-0x10(%rbp)
    
    /* cache hit */
    //get the data(SHA-1), put it into the reassemble queue
    MEM_FREE(item->content);
  407695:	48 8b 45 e0          	mov    -0x20(%rbp),%rax
  407699:	48 8b 40 10          	mov    0x10(%rax),%rax
  40769d:	48 85 c0             	test   %rax,%rax
  4076a0:	74 1c                	je     4076be <CheckCache+0xc0>
  4076a2:	48 8b 45 e0          	mov    -0x20(%rbp),%rax
  4076a6:	48 8b 40 10          	mov    0x10(%rax),%rax
  4076aa:	48 89 c7             	mov    %rax,%rdi
  4076ad:	e8 ee f6 ff ff       	callq  406da0 <free@plt>
  4076b2:	48 8b 45 e0          	mov    -0x20(%rbp),%rax
  4076b6:	48 c7 40 10 00 00 00 	movq   $0x0,0x10(%rax)
  4076bd:	00 
    item->content = value->start;      
  4076be:	48 8b 45 f0          	mov    -0x10(%rbp),%rax
  4076c2:	48 8b 10             	mov    (%rax),%rdx
  4076c5:	48 8b 45 e0          	mov    -0x20(%rbp),%rax
  4076c9:	48 89 50 10          	mov    %rdx,0x10(%rax)
    send_body * body = (send_body *)item->str;
  4076cd:	48 8b 45 e0          	mov    -0x20(%rbp),%rax
  4076d1:	48 8b 40 08          	mov    0x8(%rax),%rax
  4076d5:	48 89 45 f8          	mov    %rax,-0x8(%rbp)
    body->len = value->len;
  4076d9:	48 8b 45 f0          	mov    -0x10(%rbp),%rax
  4076dd:	48 8b 50 08          	mov    0x8(%rax),%rdx
  4076e1:	48 8b 45 f8          	mov    -0x8(%rbp),%rax
  4076e5:	48 89 50 10          	mov    %rdx,0x10(%rax)

    buf_reassemble[head_reassemble] = item;
  4076e9:	8b 05 b1 15 25 00    	mov    0x2515b1(%rip),%eax        # 658ca0 <head_reassemble>
  4076ef:	48 98                	cltq   
  4076f1:	48 8b 55 e0          	mov    -0x20(%rbp),%rdx
  4076f5:	48 89 14 c5 c0 a9 e5 	mov    %rdx,0xe5a9c0(,%rax,8)
  4076fc:	00 
    head_reassemble ++;
  4076fd:	8b 05 9d 15 25 00    	mov    0x25159d(%rip),%eax        # 658ca0 <head_reassemble>
  407703:	83 c0 01             	add    $0x1,%eax
  407706:	89 05 94 15 25 00    	mov    %eax,0x251594(%rip)        # 658ca0 <head_reassemble>

    if (head_reassemble == NUM_BUF_REASSEMBLE) head_reassemble = 0;
  40770c:	8b 05 8e 15 25 00    	mov    0x25158e(%rip),%eax        # 658ca0 <head_reassemble>
  407712:	3d 00 00 10 00       	cmp    $0x100000,%eax
  407717:	75 0a                	jne    407723 <CheckCache+0x125>
  407719:	c7 05 7d 15 25 00 00 	movl   $0x0,0x25157d(%rip)        # 658ca0 <head_reassemble>
  407720:	00 00 00 
  }
  407723:	e9 e2 fe ff ff       	jmpq   40760a <CheckCache+0xc>

  end_CheckCache +=1;
  407728:	8b 05 82 15 25 00    	mov    0x251582(%rip),%eax        # 658cb0 <end_CheckCache>
  40772e:	83 c0 01             	add    $0x1,%eax
  407731:	89 05 79 15 25 00    	mov    %eax,0x251579(%rip)        # 658cb0 <end_CheckCache>

  return NULL;
  407737:	b8 00 00 00 00       	mov    $0x0,%eax
}
  40773c:	c9                   	leaveq 
  40773d:	c3                   	retq   

000000000040773e <Decompress>:

/*
 * Decompress the data
 */
void * 
Decompress(void * args) {
  40773e:	55                   	push   %rbp
  40773f:	48 89 e5             	mov    %rsp,%rbp
  407742:	48 81 ec e0 96 98 00 	sub    $0x9896e0,%rsp
  407749:	48 89 bd 28 69 67 ff 	mov    %rdi,-0x9896d8(%rbp)
  407750:	64 48 8b 04 25 28 00 	mov    %fs:0x28,%rax
  407757:	00 00 
  407759:	48 89 45 f8          	mov    %rax,-0x8(%rbp)
  40775d:	31 c0                	xor    %eax,%eax
  u_char tmpstr[UNCOMPRESS_BOUND];
  while (1) {
    send_buf_item * item;
    //get one item
    if (tail_decompress == head_decompress && end_RecvBlock) {
  40775f:	8b 15 2f 15 25 00    	mov    0x25152f(%rip),%edx        # 658c94 <tail_decompress>
  407765:	8b 05 25 15 25 00    	mov    0x251525(%rip),%eax        # 658c90 <head_decompress>
  40776b:	39 c2                	cmp    %eax,%edx
  40776d:	75 36                	jne    4077a5 <Decompress+0x67>
  40776f:	8b 05 37 15 25 00    	mov    0x251537(%rip),%eax        # 658cac <end_RecvBlock>
  407775:	85 c0                	test   %eax,%eax
  407777:	74 2c                	je     4077a5 <Decompress+0x67>
    buf_reassemble[head_reassemble] = item;
    head_reassemble ++;
    if (head_reassemble == NUM_BUF_REASSEMBLE) head_reassemble = 0;
  }

  end_Decompress += 1;
  407779:	8b 05 29 15 25 00    	mov    0x251529(%rip),%eax        # 658ca8 <end_Decompress>
  40777f:	83 c0 01             	add    $0x1,%eax
  407782:	89 05 20 15 25 00    	mov    %eax,0x251520(%rip)        # 658ca8 <end_Decompress>
  return NULL;
  407788:	b8 00 00 00 00       	mov    $0x0,%eax
}
  40778d:	48 8b 75 f8          	mov    -0x8(%rbp),%rsi
  407791:	64 48 33 34 25 28 00 	xor    %fs:0x28,%rsi
  407798:	00 00 
  40779a:	0f 84 7a 02 00 00    	je     407a1a <Decompress+0x2dc>
  4077a0:	e9 70 02 00 00       	jmpq   407a15 <Decompress+0x2d7>
    //get one item
    if (tail_decompress == head_decompress && end_RecvBlock) {
      break;     
    }
    
    item = buf_decompress[tail_decompress];
  4077a5:	8b 05 e9 14 25 00    	mov    0x2514e9(%rip),%eax        # 658c94 <tail_decompress>
  4077ab:	48 98                	cltq   
  4077ad:	48 8b 04 c5 00 aa 65 	mov    0x165aa00(,%rax,8),%rax
  4077b4:	01 
  4077b5:	48 89 85 40 69 67 ff 	mov    %rax,-0x9896c0(%rbp)
    tail_decompress ++;
  4077bc:	8b 05 d2 14 25 00    	mov    0x2514d2(%rip),%eax        # 658c94 <tail_decompress>
  4077c2:	83 c0 01             	add    $0x1,%eax
  4077c5:	89 05 c9 14 25 00    	mov    %eax,0x2514c9(%rip)        # 658c94 <tail_decompress>
    if (tail_decompress == NUM_BUF_DECOMPRESS) tail_decompress = 0;
  4077cb:	8b 05 c3 14 25 00    	mov    0x2514c3(%rip),%eax        # 658c94 <tail_decompress>
  4077d1:	3d 00 00 10 00       	cmp    $0x100000,%eax
  4077d6:	75 0a                	jne    4077e2 <Decompress+0xa4>
  4077d8:	c7 05 b2 14 25 00 00 	movl   $0x0,0x2514b2(%rip)        # 658c94 <tail_decompress>
  4077df:	00 00 00 
        
    send_body * body = (send_body*)item->str;
  4077e2:	48 8b 85 40 69 67 ff 	mov    -0x9896c0(%rbp),%rax
  4077e9:	48 8b 40 08          	mov    0x8(%rax),%rax
  4077ed:	48 89 85 48 69 67 ff 	mov    %rax,-0x9896b8(%rbp)

    u_char * pstr = NULL;
  4077f4:	48 c7 85 50 69 67 ff 	movq   $0x0,-0x9896b0(%rbp)
  4077fb:	00 00 00 00 
    u_long len = 0;
  4077ff:	48 c7 85 58 69 67 ff 	movq   $0x0,-0x9896a8(%rbp)
  407806:	00 00 00 00 
    int t = 0;
  40780a:	c7 85 34 69 67 ff 00 	movl   $0x0,-0x9896cc(%rbp)
  407811:	00 00 00 
    unsigned long len_32;

    //uncompress the item
    switch (compress_way) {
  407814:	8b 05 ae 31 25 01    	mov    0x12531ae(%rip),%eax        # 165a9c8 <compress_way>
  40781a:	83 f8 01             	cmp    $0x1,%eax
  40781d:	0f 84 ea 00 00 00    	je     40790d <Decompress+0x1cf>
  407823:	83 f8 02             	cmp    $0x2,%eax
  407826:	0f 84 e4 00 00 00    	je     407910 <Decompress+0x1d2>
  40782c:	85 c0                	test   %eax,%eax
  40782e:	0f 85 dd 00 00 00    	jne    407911 <Decompress+0x1d3>
    case COMPRESS_GZIP:
      len_32 = UNCOMPRESS_BOUND;
  407834:	48 c7 85 38 69 67 ff 	movq   $0x989680,-0x9896c8(%rbp)
  40783b:	80 96 98 00 
      t = uncompress(tmpstr, &len_32, item->content, body->len);
  40783f:	48 8b 85 48 69 67 ff 	mov    -0x9896b8(%rbp),%rax
  407846:	48 8b 48 10          	mov    0x10(%rax),%rcx
  40784a:	48 8b 85 40 69 67 ff 	mov    -0x9896c0(%rbp),%rax
  407851:	48 8b 50 10          	mov    0x10(%rax),%rdx
  407855:	48 8d b5 38 69 67 ff 	lea    -0x9896c8(%rbp),%rsi
  40785c:	48 8d 85 70 69 67 ff 	lea    -0x989690(%rbp),%rax
  407863:	48 89 c7             	mov    %rax,%rdi
  407866:	e8 65 67 00 00       	callq  40dfd0 <uncompress>
  40786b:	89 85 34 69 67 ff    	mov    %eax,-0x9896cc(%rbp)

      len = len_32;
  407871:	48 8b 85 38 69 67 ff 	mov    -0x9896c8(%rbp),%rax
  407878:	48 89 85 58 69 67 ff 	mov    %rax,-0x9896a8(%rbp)
      pstr= (u_char *)malloc(len);
  40787f:	48 8b 85 58 69 67 ff 	mov    -0x9896a8(%rbp),%rax
  407886:	48 89 c7             	mov    %rax,%rdi
  407889:	e8 c2 f4 ff ff       	callq  406d50 <malloc@plt>
  40788e:	48 89 85 50 69 67 ff 	mov    %rax,-0x9896b0(%rbp)
      body->len = len;
  407895:	48 8b 85 48 69 67 ff 	mov    -0x9896b8(%rbp),%rax
  40789c:	48 8b 95 58 69 67 ff 	mov    -0x9896a8(%rbp),%rdx
  4078a3:	48 89 50 10          	mov    %rdx,0x10(%rax)
      memcpy(pstr, tmpstr, len);
  4078a7:	48 8b 95 58 69 67 ff 	mov    -0x9896a8(%rbp),%rdx
  4078ae:	48 8d 8d 70 69 67 ff 	lea    -0x989690(%rbp),%rcx
  4078b5:	48 8b 85 50 69 67 ff 	mov    -0x9896b0(%rbp),%rax
  4078bc:	48 89 ce             	mov    %rcx,%rsi
  4078bf:	48 89 c7             	mov    %rax,%rdi
  4078c2:	e8 29 f7 ff ff       	callq  406ff0 <memcpy@plt>
      MEM_FREE(item->content);
  4078c7:	48 8b 85 40 69 67 ff 	mov    -0x9896c0(%rbp),%rax
  4078ce:	48 8b 40 10          	mov    0x10(%rax),%rax
  4078d2:	48 85 c0             	test   %rax,%rax
  4078d5:	74 22                	je     4078f9 <Decompress+0x1bb>
  4078d7:	48 8b 85 40 69 67 ff 	mov    -0x9896c0(%rbp),%rax
  4078de:	48 8b 40 10          	mov    0x10(%rax),%rax
  4078e2:	48 89 c7             	mov    %rax,%rdi
  4078e5:	e8 b6 f4 ff ff       	callq  406da0 <free@plt>
  4078ea:	48 8b 85 40 69 67 ff 	mov    -0x9896c0(%rbp),%rax
  4078f1:	48 c7 40 10 00 00 00 	movq   $0x0,0x10(%rax)
  4078f8:	00 
      item->content = pstr;
  4078f9:	48 8b 85 40 69 67 ff 	mov    -0x9896c0(%rbp),%rax
  407900:	48 8b 95 50 69 67 ff 	mov    -0x9896b0(%rbp),%rdx
  407907:	48 89 50 10          	mov    %rdx,0x10(%rax)
      break;
  40790b:	eb 04                	jmp    407911 <Decompress+0x1d3>
    case COMPRESS_BZIP2:
      break;
  40790d:	90                   	nop
  40790e:	eb 01                	jmp    407911 <Decompress+0x1d3>
    case COMPRESS_NONE:
      break;
  407910:	90                   	nop
    }
    u_char * key = (u_char * )malloc(SHA1_LEN);
  407911:	bf 14 00 00 00       	mov    $0x14,%edi
  407916:	e8 35 f4 ff ff       	callq  406d50 <malloc@plt>
  40791b:	48 89 85 60 69 67 ff 	mov    %rax,-0x9896a0(%rbp)
    Calc_SHA1Sig(item->content, body->len, key);
  407922:	48 8b 85 48 69 67 ff 	mov    -0x9896b8(%rbp),%rax
  407929:	48 8b 40 10          	mov    0x10(%rax),%rax
  40792d:	89 c1                	mov    %eax,%ecx
  40792f:	48 8b 85 40 69 67 ff 	mov    -0x9896c0(%rbp),%rax
  407936:	48 8b 40 10          	mov    0x10(%rax),%rax
  40793a:	48 8b 95 60 69 67 ff 	mov    -0x9896a0(%rbp),%rdx
  407941:	89 ce                	mov    %ecx,%esi
  407943:	48 89 c7             	mov    %rax,%rdi
  407946:	e8 f8 5f 00 00       	callq  40d943 <Calc_SHA1Sig>
    
    data_chunk * value = (data_chunk *)malloc(sizeof(data_chunk));
  40794b:	bf 18 00 00 00       	mov    $0x18,%edi
  407950:	e8 fb f3 ff ff       	callq  406d50 <malloc@plt>
  407955:	48 89 85 68 69 67 ff 	mov    %rax,-0x989698(%rbp)
    value->start = item->content;
  40795c:	48 8b 85 40 69 67 ff 	mov    -0x9896c0(%rbp),%rax
  407963:	48 8b 50 10          	mov    0x10(%rax),%rdx
  407967:	48 8b 85 68 69 67 ff 	mov    -0x989698(%rbp),%rax
  40796e:	48 89 10             	mov    %rdx,(%rax)
    value->len = body->len;
  407971:	48 8b 85 48 69 67 ff 	mov    -0x9896b8(%rbp),%rax
  407978:	48 8b 50 10          	mov    0x10(%rax),%rdx
  40797c:	48 8b 85 68 69 67 ff 	mov    -0x989698(%rbp),%rax
  407983:	48 89 50 08          	mov    %rdx,0x8(%rax)

    if (hashtable_insert(cache, key, value) == 0) {
  407987:	48 8b 05 32 30 25 01 	mov    0x1253032(%rip),%rax        # 165a9c0 <cache>
  40798e:	48 8b 95 68 69 67 ff 	mov    -0x989698(%rbp),%rdx
  407995:	48 8b 8d 60 69 67 ff 	mov    -0x9896a0(%rbp),%rcx
  40799c:	48 89 ce             	mov    %rcx,%rsi
  40799f:	48 89 c7             	mov    %rax,%rdi
  4079a2:	e8 da 50 00 00       	callq  40ca81 <hashtable_insert>
  4079a7:	85 c0                	test   %eax,%eax
  4079a9:	75 28                	jne    4079d3 <Decompress+0x295>
      EXIT_TRACE("hashtable_insert failed");
  4079ab:	48 8b 05 ce 0f 25 00 	mov    0x250fce(%rip),%rax        # 658980 <stderr@@GLIBC_2.2.5>
  4079b2:	ba 01 7e 43 00       	mov    $0x437e01,%edx
  4079b7:	be a8 7c 43 00       	mov    $0x437ca8,%esi
  4079bc:	48 89 c7             	mov    %rax,%rdi
  4079bf:	b8 00 00 00 00       	mov    $0x0,%eax
  4079c4:	e8 c7 f5 ff ff       	callq  406f90 <fprintf@plt>
  4079c9:	bf ff ff ff ff       	mov    $0xffffffff,%edi
  4079ce:	e8 4d f3 ff ff       	callq  406d20 <exit@plt>
    }  
    //put it into the reassemble queue
    buf_reassemble[head_reassemble] = item;
  4079d3:	8b 05 c7 12 25 00    	mov    0x2512c7(%rip),%eax        # 658ca0 <head_reassemble>
  4079d9:	48 98                	cltq   
  4079db:	48 8b 95 40 69 67 ff 	mov    -0x9896c0(%rbp),%rdx
  4079e2:	48 89 14 c5 c0 a9 e5 	mov    %rdx,0xe5a9c0(,%rax,8)
  4079e9:	00 
    head_reassemble ++;
  4079ea:	8b 05 b0 12 25 00    	mov    0x2512b0(%rip),%eax        # 658ca0 <head_reassemble>
  4079f0:	83 c0 01             	add    $0x1,%eax
  4079f3:	89 05 a7 12 25 00    	mov    %eax,0x2512a7(%rip)        # 658ca0 <head_reassemble>
    if (head_reassemble == NUM_BUF_REASSEMBLE) head_reassemble = 0;
  4079f9:	8b 05 a1 12 25 00    	mov    0x2512a1(%rip),%eax        # 658ca0 <head_reassemble>
  4079ff:	3d 00 00 10 00       	cmp    $0x100000,%eax
  407a04:	75 0a                	jne    407a10 <Decompress+0x2d2>
  407a06:	c7 05 90 12 25 00 00 	movl   $0x0,0x251290(%rip)        # 658ca0 <head_reassemble>
  407a0d:	00 00 00 
  }
  407a10:	e9 4a fd ff ff       	jmpq   40775f <Decompress+0x21>

  end_Decompress += 1;
  return NULL;
}
  407a15:	e8 a6 f4 ff ff       	callq  406ec0 <__stack_chk_fail@plt>
  407a1a:	c9                   	leaveq 
  407a1b:	c3                   	retq   

0000000000407a1c <list_insert>:

struct chunk_list * list_insert(struct chunk_list * list_head, u_int32 cid) {
  407a1c:	55                   	push   %rbp
  407a1d:	48 89 e5             	mov    %rsp,%rbp
  407a20:	48 83 ec 20          	sub    $0x20,%rsp
  407a24:	48 89 7d e8          	mov    %rdi,-0x18(%rbp)
  407a28:	89 75 e4             	mov    %esi,-0x1c(%rbp)
  struct chunk_list * p, * pnext;
  if (list_head == NULL) {
  407a2b:	48 83 7d e8 00       	cmpq   $0x0,-0x18(%rbp)
  407a30:	75 23                	jne    407a55 <list_insert+0x39>
    list_head = (struct chunk_list *) malloc(sizeof(struct chunk_list));
  407a32:	bf 20 00 00 00       	mov    $0x20,%edi
  407a37:	e8 14 f3 ff ff       	callq  406d50 <malloc@plt>
  407a3c:	48 89 45 e8          	mov    %rax,-0x18(%rbp)
    pnext = NULL;
  407a40:	48 c7 45 f8 00 00 00 	movq   $0x0,-0x8(%rbp)
  407a47:	00 
    p = list_head;
  407a48:	48 8b 45 e8          	mov    -0x18(%rbp),%rax
  407a4c:	48 89 45 f0          	mov    %rax,-0x10(%rbp)
  407a50:	e9 85 00 00 00       	jmpq   407ada <list_insert+0xbe>
  } else {
    if (cid < list_head->cid) {
  407a55:	48 8b 45 e8          	mov    -0x18(%rbp),%rax
  407a59:	8b 40 10             	mov    0x10(%rax),%eax
  407a5c:	3b 45 e4             	cmp    -0x1c(%rbp),%eax
  407a5f:	76 1f                	jbe    407a80 <list_insert+0x64>
      p = (struct chunk_list *) malloc(sizeof(struct chunk_list));
  407a61:	bf 20 00 00 00       	mov    $0x20,%edi
  407a66:	e8 e5 f2 ff ff       	callq  406d50 <malloc@plt>
  407a6b:	48 89 45 f0          	mov    %rax,-0x10(%rbp)
      p->next = list_head;
  407a6f:	48 8b 45 f0          	mov    -0x10(%rbp),%rax
  407a73:	48 8b 55 e8          	mov    -0x18(%rbp),%rdx
  407a77:	48 89 10             	mov    %rdx,(%rax)
      return p;
  407a7a:	48 8b 45 f0          	mov    -0x10(%rbp),%rax
  407a7e:	eb 69                	jmp    407ae9 <list_insert+0xcd>
    } else {
      p = list_head;
  407a80:	48 8b 45 e8          	mov    -0x18(%rbp),%rax
  407a84:	48 89 45 f0          	mov    %rax,-0x10(%rbp)
      while (p->next != NULL && cid > p->next->cid)
  407a88:	eb 0b                	jmp    407a95 <list_insert+0x79>
        p = p->next;
  407a8a:	48 8b 45 f0          	mov    -0x10(%rbp),%rax
  407a8e:	48 8b 00             	mov    (%rax),%rax
  407a91:	48 89 45 f0          	mov    %rax,-0x10(%rbp)
      p = (struct chunk_list *) malloc(sizeof(struct chunk_list));
      p->next = list_head;
      return p;
    } else {
      p = list_head;
      while (p->next != NULL && cid > p->next->cid)
  407a95:	48 8b 45 f0          	mov    -0x10(%rbp),%rax
  407a99:	48 8b 00             	mov    (%rax),%rax
  407a9c:	48 85 c0             	test   %rax,%rax
  407a9f:	74 0f                	je     407ab0 <list_insert+0x94>
  407aa1:	48 8b 45 f0          	mov    -0x10(%rbp),%rax
  407aa5:	48 8b 00             	mov    (%rax),%rax
  407aa8:	8b 40 10             	mov    0x10(%rax),%eax
  407aab:	3b 45 e4             	cmp    -0x1c(%rbp),%eax
  407aae:	72 da                	jb     407a8a <list_insert+0x6e>
        p = p->next;
      pnext = p->next;   
  407ab0:	48 8b 45 f0          	mov    -0x10(%rbp),%rax
  407ab4:	48 8b 00             	mov    (%rax),%rax
  407ab7:	48 89 45 f8          	mov    %rax,-0x8(%rbp)
      p->next = (struct chunk_list *) malloc(sizeof(struct chunk_list));
  407abb:	bf 20 00 00 00       	mov    $0x20,%edi
  407ac0:	e8 8b f2 ff ff       	callq  406d50 <malloc@plt>
  407ac5:	48 89 c2             	mov    %rax,%rdx
  407ac8:	48 8b 45 f0          	mov    -0x10(%rbp),%rax
  407acc:	48 89 10             	mov    %rdx,(%rax)
      p = p->next;
  407acf:	48 8b 45 f0          	mov    -0x10(%rbp),%rax
  407ad3:	48 8b 00             	mov    (%rax),%rax
  407ad6:	48 89 45 f0          	mov    %rax,-0x10(%rbp)
    }
  }

  p->next = pnext;
  407ada:	48 8b 45 f0          	mov    -0x10(%rbp),%rax
  407ade:	48 8b 55 f8          	mov    -0x8(%rbp),%rdx
  407ae2:	48 89 10             	mov    %rdx,(%rax)
  return p;
  407ae5:	48 8b 45 f0          	mov    -0x10(%rbp),%rax
} 
  407ae9:	c9                   	leaveq 
  407aea:	c3                   	retq   

0000000000407aeb <Reassemble>:

/*
 * Reassemble the chunks together, and write it to the file
 */
void * 
Reassemble(void * args) {
  407aeb:	55                   	push   %rbp
  407aec:	48 89 e5             	mov    %rsp,%rbp
  407aef:	48 83 ec 50          	sub    $0x50,%rsp
  407af3:	48 89 7d b8          	mov    %rdi,-0x48(%rbp)
  int chunkcount = 0;
  407af7:	c7 45 cc 00 00 00 00 	movl   $0x0,-0x34(%rbp)

  int fd = -1;
  407afe:	c7 45 d0 ff ff ff ff 	movl   $0xffffffff,-0x30(%rbp)
  struct chunk_list * list_head, * p;
  list_head = NULL;
  407b05:	48 c7 45 d8 00 00 00 	movq   $0x0,-0x28(%rbp)
  407b0c:	00 

  if (args != NULL) {
  407b0d:	48 83 7d b8 00       	cmpq   $0x0,-0x48(%rbp)
  407b12:	74 3d                	je     407b51 <Reassemble+0x66>
    fd = open((char *)args, O_CREAT|O_WRONLY|O_TRUNC, S_IRUSR|S_IWUSR);
  407b14:	48 8b 45 b8          	mov    -0x48(%rbp),%rax
  407b18:	ba 80 01 00 00       	mov    $0x180,%edx
  407b1d:	be 41 02 00 00       	mov    $0x241,%esi
  407b22:	48 89 c7             	mov    %rax,%rdi
  407b25:	b8 00 00 00 00       	mov    $0x0,%eax
  407b2a:	e8 d1 f4 ff ff       	callq  407000 <open@plt>
  407b2f:	89 45 d0             	mov    %eax,-0x30(%rbp)
    if (fd < 0) 
  407b32:	83 7d d0 00          	cmpl   $0x0,-0x30(%rbp)
  407b36:	79 0a                	jns    407b42 <Reassemble+0x57>
      perror("Reassemble open");
  407b38:	bf c5 7c 43 00       	mov    $0x437cc5,%edi
  407b3d:	e8 3e f4 ff ff       	callq  406f80 <perror@plt>
    fchmod(fd, ~(S_ISUID | S_ISGID |S_IXGRP | S_IXUSR | S_IXOTH));
  407b42:	8b 45 d0             	mov    -0x30(%rbp),%eax
  407b45:	be b6 f3 ff ff       	mov    $0xfffff3b6,%esi
  407b4a:	89 c7                	mov    %eax,%edi
  407b4c:	e8 ff f2 ff ff       	callq  406e50 <fchmod@plt>
  }

  while (1) {
    int f = 0;
  407b51:	c7 45 d4 00 00 00 00 	movl   $0x0,-0x2c(%rbp)
    f = 0;
  407b58:	c7 45 d4 00 00 00 00 	movl   $0x0,-0x2c(%rbp)
    send_buf_item * item;
    if (tail_reassemble == head_reassemble) {
  407b5f:	8b 15 3f 11 25 00    	mov    0x25113f(%rip),%edx        # 658ca4 <tail_reassemble>
  407b65:	8b 05 35 11 25 00    	mov    0x251135(%rip),%eax        # 658ca0 <head_reassemble>
  407b6b:	39 c2                	cmp    %eax,%edx
  407b6d:	75 0e                	jne    407b7d <Reassemble+0x92>
      break;     
  407b6f:	90                   	nop
    
    MEM_FREE(item);
  }

  //write the remaining chunks into the file
  p = list_head;
  407b70:	48 8b 45 d8          	mov    -0x28(%rbp),%rax
  407b74:	48 89 45 e0          	mov    %rax,-0x20(%rbp)
  while (p != NULL) {
  407b78:	e9 23 04 00 00       	jmpq   407fa0 <Reassemble+0x4b5>
    f = 0;
    send_buf_item * item;
    if (tail_reassemble == head_reassemble) {
      break;     
    }
    item = buf_reassemble[tail_reassemble];
  407b7d:	8b 05 21 11 25 00    	mov    0x251121(%rip),%eax        # 658ca4 <tail_reassemble>
  407b83:	48 98                	cltq   
  407b85:	48 8b 04 c5 c0 a9 e5 	mov    0xe5a9c0(,%rax,8),%rax
  407b8c:	00 
  407b8d:	48 89 45 e8          	mov    %rax,-0x18(%rbp)
    tail_reassemble ++;
  407b91:	8b 05 0d 11 25 00    	mov    0x25110d(%rip),%eax        # 658ca4 <tail_reassemble>
  407b97:	83 c0 01             	add    $0x1,%eax
  407b9a:	89 05 04 11 25 00    	mov    %eax,0x251104(%rip)        # 658ca4 <tail_reassemble>
    if (tail_reassemble == NUM_BUF_REASSEMBLE) tail_reassemble = 0;
  407ba0:	8b 05 fe 10 25 00    	mov    0x2510fe(%rip),%eax        # 658ca4 <tail_reassemble>
  407ba6:	3d 00 00 10 00       	cmp    $0x100000,%eax
  407bab:	75 0a                	jne    407bb7 <Reassemble+0xcc>
  407bad:	c7 05 ed 10 25 00 00 	movl   $0x0,0x2510ed(%rip)        # 658ca4 <tail_reassemble>
  407bb4:	00 00 00 

    send_body * body = NULL;
  407bb7:	48 c7 45 f0 00 00 00 	movq   $0x0,-0x10(%rbp)
  407bbe:	00 
    send_head * head;
    
    switch (item->type) {
  407bbf:	48 8b 45 e8          	mov    -0x18(%rbp),%rax
  407bc3:	0f b6 00             	movzbl (%rax),%eax
  407bc6:	0f b6 c0             	movzbl %al,%eax
  407bc9:	85 c0                	test   %eax,%eax
  407bcb:	0f 88 3a 03 00 00    	js     407f0b <Reassemble+0x420>
  407bd1:	83 f8 01             	cmp    $0x1,%eax
  407bd4:	7e 0e                	jle    407be4 <Reassemble+0xf9>
  407bd6:	83 f8 03             	cmp    $0x3,%eax
  407bd9:	0f 84 0d 02 00 00    	je     407dec <Reassemble+0x301>
  407bdf:	e9 27 03 00 00       	jmpq   407f0b <Reassemble+0x420>
    case TYPE_FINGERPRINT:
    case TYPE_COMPRESS:
      body = (send_body *)item->str;
  407be4:	48 8b 45 e8          	mov    -0x18(%rbp),%rax
  407be8:	48 8b 40 08          	mov    0x8(%rax),%rax
  407bec:	48 89 45 f0          	mov    %rax,-0x10(%rbp)
      if (fd == -1) {
  407bf0:	83 7d d0 ff          	cmpl   $0xffffffff,-0x30(%rbp)
  407bf4:	0f 85 8c 00 00 00    	jne    407c86 <Reassemble+0x19b>
        //if havn't get the file header, insert current chunk into the queue
        p = list_insert(list_head, body->cid);
  407bfa:	48 8b 45 f0          	mov    -0x10(%rbp),%rax
  407bfe:	8b 50 08             	mov    0x8(%rax),%edx
  407c01:	48 8b 45 d8          	mov    -0x28(%rbp),%rax
  407c05:	89 d6                	mov    %edx,%esi
  407c07:	48 89 c7             	mov    %rax,%rdi
  407c0a:	e8 0d fe ff ff       	callq  407a1c <list_insert>
  407c0f:	48 89 45 e0          	mov    %rax,-0x20(%rbp)
        if (list_head ==NULL || list_head->cid > body->cid) {
  407c13:	48 83 7d d8 00       	cmpq   $0x0,-0x28(%rbp)
  407c18:	74 12                	je     407c2c <Reassemble+0x141>
  407c1a:	48 8b 45 d8          	mov    -0x28(%rbp),%rax
  407c1e:	8b 50 10             	mov    0x10(%rax),%edx
  407c21:	48 8b 45 f0          	mov    -0x10(%rbp),%rax
  407c25:	8b 40 08             	mov    0x8(%rax),%eax
  407c28:	39 c2                	cmp    %eax,%edx
  407c2a:	76 08                	jbe    407c34 <Reassemble+0x149>
          list_head = p;
  407c2c:	48 8b 45 e0          	mov    -0x20(%rbp),%rax
  407c30:	48 89 45 d8          	mov    %rax,-0x28(%rbp)
        }
        p->content = item->content;
  407c34:	48 8b 45 e8          	mov    -0x18(%rbp),%rax
  407c38:	48 8b 50 10          	mov    0x10(%rax),%rdx
  407c3c:	48 8b 45 e0          	mov    -0x20(%rbp),%rax
  407c40:	48 89 50 18          	mov    %rdx,0x18(%rax)
        p->cid = body->cid;
  407c44:	48 8b 45 f0          	mov    -0x10(%rbp),%rax
  407c48:	8b 50 08             	mov    0x8(%rax),%edx
  407c4b:	48 8b 45 e0          	mov    -0x20(%rbp),%rax
  407c4f:	89 50 10             	mov    %edx,0x10(%rax)
        p->len = body->len;
  407c52:	48 8b 45 f0          	mov    -0x10(%rbp),%rax
  407c56:	48 8b 50 10          	mov    0x10(%rax),%rdx
  407c5a:	48 8b 45 e0          	mov    -0x20(%rbp),%rax
  407c5e:	48 89 50 08          	mov    %rdx,0x8(%rax)
        MEM_FREE(body);
  407c62:	48 83 7d f0 00       	cmpq   $0x0,-0x10(%rbp)
  407c67:	0f 84 7a 01 00 00    	je     407de7 <Reassemble+0x2fc>
  407c6d:	48 8b 45 f0          	mov    -0x10(%rbp),%rax
  407c71:	48 89 c7             	mov    %rax,%rdi
  407c74:	e8 27 f1 ff ff       	callq  406da0 <free@plt>
  407c79:	48 c7 45 f0 00 00 00 	movq   $0x0,-0x10(%rbp)
  407c80:	00 
            p->cid = body->cid;
            p->len = body->len;
          }        
          // }
      }
      break;
  407c81:	e9 85 02 00 00       	jmpq   407f0b <Reassemble+0x420>
        p->content = item->content;
        p->cid = body->cid;
        p->len = body->len;
        MEM_FREE(body);
      } else {
          if (body->cid == chunkcount) {
  407c86:	48 8b 45 f0          	mov    -0x10(%rbp),%rax
  407c8a:	8b 50 08             	mov    0x8(%rax),%edx
  407c8d:	8b 45 cc             	mov    -0x34(%rbp),%eax
  407c90:	39 c2                	cmp    %eax,%edx
  407c92:	0f 85 e2 00 00 00    	jne    407d7a <Reassemble+0x28f>
            //if this chunk is in the right order, write it into the file
                          
            if (0 > xwrite(fd, item->content, body->len)) {
  407c98:	48 8b 45 f0          	mov    -0x10(%rbp),%rax
  407c9c:	48 8b 50 10          	mov    0x10(%rax),%rdx
  407ca0:	48 8b 45 e8          	mov    -0x18(%rbp),%rax
  407ca4:	48 8b 48 10          	mov    0x10(%rax),%rcx
  407ca8:	8b 45 d0             	mov    -0x30(%rbp),%eax
  407cab:	48 89 ce             	mov    %rcx,%rsi
  407cae:	89 c7                	mov    %eax,%edi
  407cb0:	e8 7a 5d 00 00       	callq  40da2f <xwrite>
  407cb5:	85 c0                	test   %eax,%eax
  407cb7:	79 32                	jns    407ceb <Reassemble+0x200>
              perror("xwrite");
  407cb9:	bf d5 7c 43 00       	mov    $0x437cd5,%edi
  407cbe:	e8 bd f2 ff ff       	callq  406f80 <perror@plt>
              EXIT_TRACE("xwrite\n");
  407cc3:	48 8b 05 b6 0c 25 00 	mov    0x250cb6(%rip),%rax        # 658980 <stderr@@GLIBC_2.2.5>
  407cca:	ba 0c 7e 43 00       	mov    $0x437e0c,%edx
  407ccf:	be dc 7c 43 00       	mov    $0x437cdc,%esi
  407cd4:	48 89 c7             	mov    %rax,%rdi
  407cd7:	b8 00 00 00 00       	mov    $0x0,%eax
  407cdc:	e8 af f2 ff ff       	callq  406f90 <fprintf@plt>
  407ce1:	bf ff ff ff ff       	mov    $0xffffffff,%edi
  407ce6:	e8 35 f0 ff ff       	callq  406d20 <exit@plt>
            }
            chunkcount ++;
  407ceb:	83 45 cc 01          	addl   $0x1,-0x34(%rbp)
            p = list_head;
  407cef:	48 8b 45 d8          	mov    -0x28(%rbp),%rax
  407cf3:	48 89 45 e0          	mov    %rax,-0x20(%rbp)
            while (p != NULL && p->cid == chunkcount) {
  407cf7:	eb 62                	jmp    407d5b <Reassemble+0x270>
              if (0 > xwrite(fd, p->content, p->len)) {
  407cf9:	48 8b 45 e0          	mov    -0x20(%rbp),%rax
  407cfd:	48 8b 50 08          	mov    0x8(%rax),%rdx
  407d01:	48 8b 45 e0          	mov    -0x20(%rbp),%rax
  407d05:	48 8b 48 18          	mov    0x18(%rax),%rcx
  407d09:	8b 45 d0             	mov    -0x30(%rbp),%eax
  407d0c:	48 89 ce             	mov    %rcx,%rsi
  407d0f:	89 c7                	mov    %eax,%edi
  407d11:	e8 19 5d 00 00       	callq  40da2f <xwrite>
  407d16:	85 c0                	test   %eax,%eax
  407d18:	79 32                	jns    407d4c <Reassemble+0x261>
                perror("xwrite");
  407d1a:	bf d5 7c 43 00       	mov    $0x437cd5,%edi
  407d1f:	e8 5c f2 ff ff       	callq  406f80 <perror@plt>
                EXIT_TRACE("xwrite\n");
  407d24:	48 8b 05 55 0c 25 00 	mov    0x250c55(%rip),%rax        # 658980 <stderr@@GLIBC_2.2.5>
  407d2b:	ba 0c 7e 43 00       	mov    $0x437e0c,%edx
  407d30:	be dc 7c 43 00       	mov    $0x437cdc,%esi
  407d35:	48 89 c7             	mov    %rax,%rdi
  407d38:	b8 00 00 00 00       	mov    $0x0,%eax
  407d3d:	e8 4e f2 ff ff       	callq  406f90 <fprintf@plt>
  407d42:	bf ff ff ff ff       	mov    $0xffffffff,%edi
  407d47:	e8 d4 ef ff ff       	callq  406d20 <exit@plt>
              }
              chunkcount ++;
  407d4c:	83 45 cc 01          	addl   $0x1,-0x34(%rbp)
              p = p->next;
  407d50:	48 8b 45 e0          	mov    -0x20(%rbp),%rax
  407d54:	48 8b 00             	mov    (%rax),%rax
  407d57:	48 89 45 e0          	mov    %rax,-0x20(%rbp)
              perror("xwrite");
              EXIT_TRACE("xwrite\n");
            }
            chunkcount ++;
            p = list_head;
            while (p != NULL && p->cid == chunkcount) {
  407d5b:	48 83 7d e0 00       	cmpq   $0x0,-0x20(%rbp)
  407d60:	74 0e                	je     407d70 <Reassemble+0x285>
  407d62:	48 8b 45 e0          	mov    -0x20(%rbp),%rax
  407d66:	8b 50 10             	mov    0x10(%rax),%edx
  407d69:	8b 45 cc             	mov    -0x34(%rbp),%eax
  407d6c:	39 c2                	cmp    %eax,%edx
  407d6e:	74 89                	je     407cf9 <Reassemble+0x20e>
                EXIT_TRACE("xwrite\n");
              }
              chunkcount ++;
              p = p->next;
            }
            list_head = p;
  407d70:	48 8b 45 e0          	mov    -0x20(%rbp),%rax
  407d74:	48 89 45 d8          	mov    %rax,-0x28(%rbp)
  407d78:	eb 6d                	jmp    407de7 <Reassemble+0x2fc>
          } else {
            //if this chunk is out of order, insert it into the list
            p = list_insert(list_head, body->cid);
  407d7a:	48 8b 45 f0          	mov    -0x10(%rbp),%rax
  407d7e:	8b 50 08             	mov    0x8(%rax),%edx
  407d81:	48 8b 45 d8          	mov    -0x28(%rbp),%rax
  407d85:	89 d6                	mov    %edx,%esi
  407d87:	48 89 c7             	mov    %rax,%rdi
  407d8a:	e8 8d fc ff ff       	callq  407a1c <list_insert>
  407d8f:	48 89 45 e0          	mov    %rax,-0x20(%rbp)
            if (list_head ==NULL || list_head->cid > body->cid) {
  407d93:	48 83 7d d8 00       	cmpq   $0x0,-0x28(%rbp)
  407d98:	74 12                	je     407dac <Reassemble+0x2c1>
  407d9a:	48 8b 45 d8          	mov    -0x28(%rbp),%rax
  407d9e:	8b 50 10             	mov    0x10(%rax),%edx
  407da1:	48 8b 45 f0          	mov    -0x10(%rbp),%rax
  407da5:	8b 40 08             	mov    0x8(%rax),%eax
  407da8:	39 c2                	cmp    %eax,%edx
  407daa:	76 08                	jbe    407db4 <Reassemble+0x2c9>
              list_head = p;
  407dac:	48 8b 45 e0          	mov    -0x20(%rbp),%rax
  407db0:	48 89 45 d8          	mov    %rax,-0x28(%rbp)
            }
            p->content = item->content;
  407db4:	48 8b 45 e8          	mov    -0x18(%rbp),%rax
  407db8:	48 8b 50 10          	mov    0x10(%rax),%rdx
  407dbc:	48 8b 45 e0          	mov    -0x20(%rbp),%rax
  407dc0:	48 89 50 18          	mov    %rdx,0x18(%rax)
            p->cid = body->cid;
  407dc4:	48 8b 45 f0          	mov    -0x10(%rbp),%rax
  407dc8:	8b 50 08             	mov    0x8(%rax),%edx
  407dcb:	48 8b 45 e0          	mov    -0x20(%rbp),%rax
  407dcf:	89 50 10             	mov    %edx,0x10(%rax)
            p->len = body->len;
  407dd2:	48 8b 45 f0          	mov    -0x10(%rbp),%rax
  407dd6:	48 8b 50 10          	mov    0x10(%rax),%rdx
  407dda:	48 8b 45 e0          	mov    -0x20(%rbp),%rax
  407dde:	48 89 50 08          	mov    %rdx,0x8(%rax)
          }        
          // }
      }
      break;
  407de2:	e9 24 01 00 00       	jmpq   407f0b <Reassemble+0x420>
  407de7:	e9 1f 01 00 00       	jmpq   407f0b <Reassemble+0x420>
    case TYPE_HEAD:
      //get file header
      head = (send_head *)item->str;
  407dec:	48 8b 45 e8          	mov    -0x18(%rbp),%rax
  407df0:	48 8b 40 08          	mov    0x8(%rax),%rax
  407df4:	48 89 45 f8          	mov    %rax,-0x8(%rbp)
      if (fd == -1) {
  407df8:	83 7d d0 ff          	cmpl   $0xffffffff,-0x30(%rbp)
  407dfc:	75 2e                	jne    407e2c <Reassemble+0x341>
        fd = open(head->filename, O_CREAT|O_WRONLY|O_TRUNC, S_IRUSR|S_IWUSR);
  407dfe:	48 8b 45 f8          	mov    -0x8(%rbp),%rax
  407e02:	ba 80 01 00 00       	mov    $0x180,%edx
  407e07:	be 41 02 00 00       	mov    $0x241,%esi
  407e0c:	48 89 c7             	mov    %rax,%rdi
  407e0f:	b8 00 00 00 00       	mov    $0x0,%eax
  407e14:	e8 e7 f1 ff ff       	callq  407000 <open@plt>
  407e19:	89 45 d0             	mov    %eax,-0x30(%rbp)
        if (fd < 0)
  407e1c:	83 7d d0 00          	cmpl   $0x0,-0x30(%rbp)
  407e20:	79 0a                	jns    407e2c <Reassemble+0x341>
          perror("head_open");
  407e22:	bf e9 7c 43 00       	mov    $0x437ce9,%edi
  407e27:	e8 54 f1 ff ff       	callq  406f80 <perror@plt>
      }

      MEM_FREE(head);
  407e2c:	48 83 7d f8 00       	cmpq   $0x0,-0x8(%rbp)
  407e31:	74 14                	je     407e47 <Reassemble+0x35c>
  407e33:	48 8b 45 f8          	mov    -0x8(%rbp),%rax
  407e37:	48 89 c7             	mov    %rax,%rdi
  407e3a:	e8 61 ef ff ff       	callq  406da0 <free@plt>
  407e3f:	48 c7 45 f8 00 00 00 	movq   $0x0,-0x8(%rbp)
  407e46:	00 
      chunkcount = 0;
  407e47:	c7 45 cc 00 00 00 00 	movl   $0x0,-0x34(%rbp)

      p = list_head;
  407e4e:	48 8b 45 d8          	mov    -0x28(%rbp),%rax
  407e52:	48 89 45 e0          	mov    %rax,-0x20(%rbp)
      while (p != NULL && p->cid == chunkcount) {
  407e56:	e9 8e 00 00 00       	jmpq   407ee9 <Reassemble+0x3fe>
        if (0 > xwrite(fd, p->content, p->len)) {
  407e5b:	48 8b 45 e0          	mov    -0x20(%rbp),%rax
  407e5f:	48 8b 50 08          	mov    0x8(%rax),%rdx
  407e63:	48 8b 45 e0          	mov    -0x20(%rbp),%rax
  407e67:	48 8b 48 18          	mov    0x18(%rax),%rcx
  407e6b:	8b 45 d0             	mov    -0x30(%rbp),%eax
  407e6e:	48 89 ce             	mov    %rcx,%rsi
  407e71:	89 c7                	mov    %eax,%edi
  407e73:	e8 b7 5b 00 00       	callq  40da2f <xwrite>
  407e78:	85 c0                	test   %eax,%eax
  407e7a:	79 28                	jns    407ea4 <Reassemble+0x3b9>
          EXIT_TRACE("xwrite\n");
  407e7c:	48 8b 05 fd 0a 25 00 	mov    0x250afd(%rip),%rax        # 658980 <stderr@@GLIBC_2.2.5>
  407e83:	ba 0c 7e 43 00       	mov    $0x437e0c,%edx
  407e88:	be dc 7c 43 00       	mov    $0x437cdc,%esi
  407e8d:	48 89 c7             	mov    %rax,%rdi
  407e90:	b8 00 00 00 00       	mov    $0x0,%eax
  407e95:	e8 f6 f0 ff ff       	callq  406f90 <fprintf@plt>
  407e9a:	bf ff ff ff ff       	mov    $0xffffffff,%edi
  407e9f:	e8 7c ee ff ff       	callq  406d20 <exit@plt>
        }
        if (p->content) MEM_FREE(p->content);
  407ea4:	48 8b 45 e0          	mov    -0x20(%rbp),%rax
  407ea8:	48 8b 40 18          	mov    0x18(%rax),%rax
  407eac:	48 85 c0             	test   %rax,%rax
  407eaf:	74 29                	je     407eda <Reassemble+0x3ef>
  407eb1:	48 8b 45 e0          	mov    -0x20(%rbp),%rax
  407eb5:	48 8b 40 18          	mov    0x18(%rax),%rax
  407eb9:	48 85 c0             	test   %rax,%rax
  407ebc:	74 1c                	je     407eda <Reassemble+0x3ef>
  407ebe:	48 8b 45 e0          	mov    -0x20(%rbp),%rax
  407ec2:	48 8b 40 18          	mov    0x18(%rax),%rax
  407ec6:	48 89 c7             	mov    %rax,%rdi
  407ec9:	e8 d2 ee ff ff       	callq  406da0 <free@plt>
  407ece:	48 8b 45 e0          	mov    -0x20(%rbp),%rax
  407ed2:	48 c7 40 18 00 00 00 	movq   $0x0,0x18(%rax)
  407ed9:	00 
        chunkcount ++;
  407eda:	83 45 cc 01          	addl   $0x1,-0x34(%rbp)
        p = p->next;
  407ede:	48 8b 45 e0          	mov    -0x20(%rbp),%rax
  407ee2:	48 8b 00             	mov    (%rax),%rax
  407ee5:	48 89 45 e0          	mov    %rax,-0x20(%rbp)

      MEM_FREE(head);
      chunkcount = 0;

      p = list_head;
      while (p != NULL && p->cid == chunkcount) {
  407ee9:	48 83 7d e0 00       	cmpq   $0x0,-0x20(%rbp)
  407eee:	74 12                	je     407f02 <Reassemble+0x417>
  407ef0:	48 8b 45 e0          	mov    -0x20(%rbp),%rax
  407ef4:	8b 50 10             	mov    0x10(%rax),%edx
  407ef7:	8b 45 cc             	mov    -0x34(%rbp),%eax
  407efa:	39 c2                	cmp    %eax,%edx
  407efc:	0f 84 59 ff ff ff    	je     407e5b <Reassemble+0x370>
        }
        if (p->content) MEM_FREE(p->content);
        chunkcount ++;
        p = p->next;
      }
      list_head = p;
  407f02:	48 8b 45 e0          	mov    -0x20(%rbp),%rax
  407f06:	48 89 45 d8          	mov    %rax,-0x28(%rbp)
      
      break;
  407f0a:	90                   	nop
    }
    
    MEM_FREE(item);
  407f0b:	48 83 7d e8 00       	cmpq   $0x0,-0x18(%rbp)
  407f10:	74 14                	je     407f26 <Reassemble+0x43b>
  407f12:	48 8b 45 e8          	mov    -0x18(%rbp),%rax
  407f16:	48 89 c7             	mov    %rax,%rdi
  407f19:	e8 82 ee ff ff       	callq  406da0 <free@plt>
  407f1e:	48 c7 45 e8 00 00 00 	movq   $0x0,-0x18(%rbp)
  407f25:	00 
  }
  407f26:	e9 26 fc ff ff       	jmpq   407b51 <Reassemble+0x66>

  //write the remaining chunks into the file
  p = list_head;
  while (p != NULL) {
    if (0 > xwrite(fd, p->content, p->len)) {
  407f2b:	48 8b 45 e0          	mov    -0x20(%rbp),%rax
  407f2f:	48 8b 50 08          	mov    0x8(%rax),%rdx
  407f33:	48 8b 45 e0          	mov    -0x20(%rbp),%rax
  407f37:	48 8b 48 18          	mov    0x18(%rax),%rcx
  407f3b:	8b 45 d0             	mov    -0x30(%rbp),%eax
  407f3e:	48 89 ce             	mov    %rcx,%rsi
  407f41:	89 c7                	mov    %eax,%edi
  407f43:	e8 e7 5a 00 00       	callq  40da2f <xwrite>
  407f48:	85 c0                	test   %eax,%eax
  407f4a:	79 28                	jns    407f74 <Reassemble+0x489>
      EXIT_TRACE("xwrite\n");
  407f4c:	48 8b 05 2d 0a 25 00 	mov    0x250a2d(%rip),%rax        # 658980 <stderr@@GLIBC_2.2.5>
  407f53:	ba 0c 7e 43 00       	mov    $0x437e0c,%edx
  407f58:	be dc 7c 43 00       	mov    $0x437cdc,%esi
  407f5d:	48 89 c7             	mov    %rax,%rdi
  407f60:	b8 00 00 00 00       	mov    $0x0,%eax
  407f65:	e8 26 f0 ff ff       	callq  406f90 <fprintf@plt>
  407f6a:	bf ff ff ff ff       	mov    $0xffffffff,%edi
  407f6f:	e8 ac ed ff ff       	callq  406d20 <exit@plt>
    }

    if (p->cid == chunkcount) 
  407f74:	48 8b 45 e0          	mov    -0x20(%rbp),%rax
  407f78:	8b 50 10             	mov    0x10(%rax),%edx
  407f7b:	8b 45 cc             	mov    -0x34(%rbp),%eax
  407f7e:	39 c2                	cmp    %eax,%edx
  407f80:	75 06                	jne    407f88 <Reassemble+0x49d>
      chunkcount ++;
  407f82:	83 45 cc 01          	addl   $0x1,-0x34(%rbp)
  407f86:	eb 0d                	jmp    407f95 <Reassemble+0x4aa>
    else {
      chunkcount = p->cid+1;
  407f88:	48 8b 45 e0          	mov    -0x20(%rbp),%rax
  407f8c:	8b 40 10             	mov    0x10(%rax),%eax
  407f8f:	83 c0 01             	add    $0x1,%eax
  407f92:	89 45 cc             	mov    %eax,-0x34(%rbp)
    }
    p = p->next;    
  407f95:	48 8b 45 e0          	mov    -0x20(%rbp),%rax
  407f99:	48 8b 00             	mov    (%rax),%rax
  407f9c:	48 89 45 e0          	mov    %rax,-0x20(%rbp)
    MEM_FREE(item);
  }

  //write the remaining chunks into the file
  p = list_head;
  while (p != NULL) {
  407fa0:	48 83 7d e0 00       	cmpq   $0x0,-0x20(%rbp)
  407fa5:	75 84                	jne    407f2b <Reassemble+0x440>
      chunkcount = p->cid+1;
    }
    p = p->next;    
  }

  close(fd);
  407fa7:	8b 45 d0             	mov    -0x30(%rbp),%eax
  407faa:	89 c7                	mov    %eax,%edi
  407fac:	e8 ef ec ff ff       	callq  406ca0 <close@plt>
  return NULL;
  407fb1:	b8 00 00 00 00       	mov    $0x0,%eax
}
  407fb6:	c9                   	leaveq 
  407fb7:	c3                   	retq   

0000000000407fb8 <RecvBlock>:
/*
 * Read the input file
 */
void *
RecvBlock(void * args) 
{
  407fb8:	55                   	push   %rbp
  407fb9:	48 89 e5             	mov    %rsp,%rbp
  407fbc:	48 83 ec 50          	sub    $0x50,%rsp
  407fc0:	48 89 7d b8          	mov    %rdi,-0x48(%rbp)
  407fc4:	64 48 8b 04 25 28 00 	mov    %fs:0x28,%rax
  407fcb:	00 00 
  407fcd:	48 89 45 f8          	mov    %rax,-0x8(%rbp)
  407fd1:	31 c0                	xor    %eax,%eax
  config * conf = (config *)args;
  407fd3:	48 8b 45 b8          	mov    -0x48(%rbp),%rax
  407fd7:	48 89 45 d8          	mov    %rax,-0x28(%rbp)
  int fd = 0;
  407fdb:	c7 45 d4 00 00 00 00 	movl   $0x0,-0x2c(%rbp)
  
  int check_count = 0;
  407fe2:	c7 45 d0 00 00 00 00 	movl   $0x0,-0x30(%rbp)

  fd = open(conf->infile, O_RDONLY|O_LARGEFILE);
  407fe9:	48 8b 45 d8          	mov    -0x28(%rbp),%rax
  407fed:	be 00 80 00 00       	mov    $0x8000,%esi
  407ff2:	48 89 c7             	mov    %rax,%rdi
  407ff5:	b8 00 00 00 00       	mov    $0x0,%eax
  407ffa:	e8 01 f0 ff ff       	callq  407000 <open@plt>
  407fff:	89 45 d4             	mov    %eax,-0x2c(%rbp)
  if (fd < 0) {
  408002:	83 7d d4 00          	cmpl   $0x0,-0x2c(%rbp)
  408006:	79 14                	jns    40801c <RecvBlock+0x64>
    perror("infile open");
  408008:	bf f3 7c 43 00       	mov    $0x437cf3,%edi
  40800d:	e8 6e ef ff ff       	callq  406f80 <perror@plt>
    return NULL;
  408012:	b8 00 00 00 00       	mov    $0x0,%eax
  408017:	e9 f6 04 00 00       	jmpq   408512 <RecvBlock+0x55a>
  }

  send_buf_item * item;

  while(1) {  
    item = (send_buf_item*)malloc(sizeof(send_buf_item));
  40801c:	bf 20 00 00 00       	mov    $0x20,%edi
  408021:	e8 2a ed ff ff       	callq  406d50 <malloc@plt>
  408026:	48 89 45 e0          	mov    %rax,-0x20(%rbp)

    if (xread(fd, &item->type, sizeof(item->type)) < 0){
  40802a:	48 8b 4d e0          	mov    -0x20(%rbp),%rcx
  40802e:	8b 45 d4             	mov    -0x2c(%rbp),%eax
  408031:	ba 01 00 00 00       	mov    $0x1,%edx
  408036:	48 89 ce             	mov    %rcx,%rsi
  408039:	89 c7                	mov    %eax,%edi
  40803b:	e8 7c 59 00 00       	callq  40d9bc <xread>
  408040:	85 c0                	test   %eax,%eax
  408042:	79 32                	jns    408076 <RecvBlock+0xbe>
      perror("xread:");
  408044:	bf ff 7c 43 00       	mov    $0x437cff,%edi
  408049:	e8 32 ef ff ff       	callq  406f80 <perror@plt>
      EXIT_TRACE("xread type fails\n");
  40804e:	48 8b 05 2b 09 25 00 	mov    0x25092b(%rip),%rax        # 658980 <stderr@@GLIBC_2.2.5>
  408055:	ba 17 7e 43 00       	mov    $0x437e17,%edx
  40805a:	be 06 7d 43 00       	mov    $0x437d06,%esi
  40805f:	48 89 c7             	mov    %rax,%rdi
  408062:	b8 00 00 00 00       	mov    $0x0,%eax
  408067:	e8 24 ef ff ff       	callq  406f90 <fprintf@plt>
  40806c:	bf ff ff ff ff       	mov    $0xffffffff,%edi
  408071:	e8 aa ec ff ff       	callq  406d20 <exit@plt>
      return NULL;
    }
    send_body * body;
    send_head * head;

    if (item->type == TYPE_FINISH) {
  408076:	48 8b 45 e0          	mov    -0x20(%rbp),%rax
  40807a:	0f b6 00             	movzbl (%rax),%eax
  40807d:	3c 04                	cmp    $0x4,%al
  40807f:	75 1e                	jne    40809f <RecvBlock+0xe7>
      if (head_reassemble == NUM_BUF_REASSEMBLE) head_reassemble = 0;
      break;
    }    
  }

  end_RecvBlock = TRUE;
  408081:	c7 05 21 0c 25 00 01 	movl   $0x1,0x250c21(%rip)        # 658cac <end_RecvBlock>
  408088:	00 00 00 
  close(fd);
  40808b:	8b 45 d4             	mov    -0x2c(%rbp),%eax
  40808e:	89 c7                	mov    %eax,%edi
  408090:	e8 0b ec ff ff       	callq  406ca0 <close@plt>
  return NULL;
  408095:	b8 00 00 00 00       	mov    $0x0,%eax
  40809a:	e9 73 04 00 00       	jmpq   408512 <RecvBlock+0x55a>
    }

    int checkbit;
      
    //get the item
    switch (item->type) {
  40809f:	48 8b 45 e0          	mov    -0x20(%rbp),%rax
  4080a3:	0f b6 00             	movzbl (%rax),%eax
  4080a6:	0f b6 c0             	movzbl %al,%eax
  4080a9:	83 f8 01             	cmp    $0x1,%eax
  4080ac:	0f 84 ca 01 00 00    	je     40827c <RecvBlock+0x2c4>
  4080b2:	83 f8 03             	cmp    $0x3,%eax
  4080b5:	0f 84 59 03 00 00    	je     408414 <RecvBlock+0x45c>
  4080bb:	85 c0                	test   %eax,%eax
  4080bd:	0f 85 4a 04 00 00    	jne    40850d <RecvBlock+0x555>
    case TYPE_FINGERPRINT:
      //if fingerprint, put it into sendcache thread
      body = (send_body *)malloc(sizeof(send_body));
  4080c3:	bf 18 00 00 00       	mov    $0x18,%edi
  4080c8:	e8 83 ec ff ff       	callq  406d50 <malloc@plt>
  4080cd:	48 89 45 e8          	mov    %rax,-0x18(%rbp)
      if (xread(fd, &body->cid, sizeof(body->cid)) < 0){
  4080d1:	48 8b 45 e8          	mov    -0x18(%rbp),%rax
  4080d5:	48 8d 48 08          	lea    0x8(%rax),%rcx
  4080d9:	8b 45 d4             	mov    -0x2c(%rbp),%eax
  4080dc:	ba 04 00 00 00       	mov    $0x4,%edx
  4080e1:	48 89 ce             	mov    %rcx,%rsi
  4080e4:	89 c7                	mov    %eax,%edi
  4080e6:	e8 d1 58 00 00       	callq  40d9bc <xread>
  4080eb:	85 c0                	test   %eax,%eax
  4080ed:	79 28                	jns    408117 <RecvBlock+0x15f>
        EXIT_TRACE("xread body fails\n");
  4080ef:	48 8b 05 8a 08 25 00 	mov    0x25088a(%rip),%rax        # 658980 <stderr@@GLIBC_2.2.5>
  4080f6:	ba 17 7e 43 00       	mov    $0x437e17,%edx
  4080fb:	be 1d 7d 43 00       	mov    $0x437d1d,%esi
  408100:	48 89 c7             	mov    %rax,%rdi
  408103:	b8 00 00 00 00       	mov    $0x0,%eax
  408108:	e8 83 ee ff ff       	callq  406f90 <fprintf@plt>
  40810d:	bf ff ff ff ff       	mov    $0xffffffff,%edi
  408112:	e8 09 ec ff ff       	callq  406d20 <exit@plt>
      }
      if (body->cid == check_count) {
  408117:	48 8b 45 e8          	mov    -0x18(%rbp),%rax
  40811b:	8b 50 08             	mov    0x8(%rax),%edx
  40811e:	8b 45 d0             	mov    -0x30(%rbp),%eax
  408121:	39 c2                	cmp    %eax,%edx
  408123:	75 06                	jne    40812b <RecvBlock+0x173>
        check_count ++;
  408125:	83 45 d0 01          	addl   $0x1,-0x30(%rbp)
  408129:	eb 1b                	jmp    408146 <RecvBlock+0x18e>
      } else {
        printf("error check-count %d, body->cid %d\n", check_count, body->cid);
  40812b:	48 8b 45 e8          	mov    -0x18(%rbp),%rax
  40812f:	8b 50 08             	mov    0x8(%rax),%edx
  408132:	8b 45 d0             	mov    -0x30(%rbp),%eax
  408135:	89 c6                	mov    %eax,%esi
  408137:	bf 38 7d 43 00       	mov    $0x437d38,%edi
  40813c:	b8 00 00 00 00       	mov    $0x0,%eax
  408141:	e8 2a eb ff ff       	callq  406c70 <printf@plt>
      }
      if (xread(fd, &body->len, sizeof(body->len)) < 0){
  408146:	48 8b 45 e8          	mov    -0x18(%rbp),%rax
  40814a:	48 8d 48 10          	lea    0x10(%rax),%rcx
  40814e:	8b 45 d4             	mov    -0x2c(%rbp),%eax
  408151:	ba 08 00 00 00       	mov    $0x8,%edx
  408156:	48 89 ce             	mov    %rcx,%rsi
  408159:	89 c7                	mov    %eax,%edi
  40815b:	e8 5c 58 00 00       	callq  40d9bc <xread>
  408160:	85 c0                	test   %eax,%eax
  408162:	79 28                	jns    40818c <RecvBlock+0x1d4>
        EXIT_TRACE("xread body fails\n");
  408164:	48 8b 05 15 08 25 00 	mov    0x250815(%rip),%rax        # 658980 <stderr@@GLIBC_2.2.5>
  40816b:	ba 17 7e 43 00       	mov    $0x437e17,%edx
  408170:	be 1d 7d 43 00       	mov    $0x437d1d,%esi
  408175:	48 89 c7             	mov    %rax,%rdi
  408178:	b8 00 00 00 00       	mov    $0x0,%eax
  40817d:	e8 0e ee ff ff       	callq  406f90 <fprintf@plt>
  408182:	bf ff ff ff ff       	mov    $0xffffffff,%edi
  408187:	e8 94 eb ff ff       	callq  406d20 <exit@plt>
      }
      item->str = (u_char *)body;
  40818c:	48 8b 45 e0          	mov    -0x20(%rbp),%rax
  408190:	48 8b 55 e8          	mov    -0x18(%rbp),%rdx
  408194:	48 89 50 08          	mov    %rdx,0x8(%rax)
      if (body->len > 0) {        
  408198:	48 8b 45 e8          	mov    -0x18(%rbp),%rax
  40819c:	48 8b 40 10          	mov    0x10(%rax),%rax
  4081a0:	48 85 c0             	test   %rax,%rax
  4081a3:	0f 84 ce 00 00 00    	je     408277 <RecvBlock+0x2bf>

        item->content = (u_char *)malloc(body->len);
  4081a9:	48 8b 45 e8          	mov    -0x18(%rbp),%rax
  4081ad:	48 8b 40 10          	mov    0x10(%rax),%rax
  4081b1:	48 89 c7             	mov    %rax,%rdi
  4081b4:	e8 97 eb ff ff       	callq  406d50 <malloc@plt>
  4081b9:	48 89 c2             	mov    %rax,%rdx
  4081bc:	48 8b 45 e0          	mov    -0x20(%rbp),%rax
  4081c0:	48 89 50 10          	mov    %rdx,0x10(%rax)
        if (item->content == NULL) {
  4081c4:	48 8b 45 e0          	mov    -0x20(%rbp),%rax
  4081c8:	48 8b 40 10          	mov    0x10(%rax),%rax
  4081cc:	48 85 c0             	test   %rax,%rax
  4081cf:	75 14                	jne    4081e5 <RecvBlock+0x22d>
          printf ("Error: Content is NULL\n");
  4081d1:	bf 5c 7d 43 00       	mov    $0x437d5c,%edi
  4081d6:	e8 f5 ea ff ff       	callq  406cd0 <puts@plt>
          perror("malloc");
  4081db:	bf 73 7d 43 00       	mov    $0x437d73,%edi
  4081e0:	e8 9b ed ff ff       	callq  406f80 <perror@plt>
        }
      
        if (xread(fd, item->content, body->len) < 0){
  4081e5:	48 8b 45 e8          	mov    -0x18(%rbp),%rax
  4081e9:	48 8b 50 10          	mov    0x10(%rax),%rdx
  4081ed:	48 8b 45 e0          	mov    -0x20(%rbp),%rax
  4081f1:	48 8b 48 10          	mov    0x10(%rax),%rcx
  4081f5:	8b 45 d4             	mov    -0x2c(%rbp),%eax
  4081f8:	48 89 ce             	mov    %rcx,%rsi
  4081fb:	89 c7                	mov    %eax,%edi
  4081fd:	e8 ba 57 00 00       	callq  40d9bc <xread>
  408202:	85 c0                	test   %eax,%eax
  408204:	79 32                	jns    408238 <RecvBlock+0x280>
          perror("xread:");
  408206:	bf ff 7c 43 00       	mov    $0x437cff,%edi
  40820b:	e8 70 ed ff ff       	callq  406f80 <perror@plt>
          EXIT_TRACE("fp xread content fails\n");
  408210:	48 8b 05 69 07 25 00 	mov    0x250769(%rip),%rax        # 658980 <stderr@@GLIBC_2.2.5>
  408217:	ba 17 7e 43 00       	mov    $0x437e17,%edx
  40821c:	be 7a 7d 43 00       	mov    $0x437d7a,%esi
  408221:	48 89 c7             	mov    %rax,%rdi
  408224:	b8 00 00 00 00       	mov    $0x0,%eax
  408229:	e8 62 ed ff ff       	callq  406f90 <fprintf@plt>
  40822e:	bf ff ff ff ff       	mov    $0xffffffff,%edi
  408233:	e8 e8 ea ff ff       	callq  406d20 <exit@plt>
        }    
        //send to checkcache
        buf_checkcache[head_checkcache] = item;
  408238:	8b 05 5a 0a 25 00    	mov    0x250a5a(%rip),%eax        # 658c98 <head_checkcache>
  40823e:	48 98                	cltq   
  408240:	48 8b 55 e0          	mov    -0x20(%rbp),%rdx
  408244:	48 89 14 c5 c0 a9 65 	mov    %rdx,0x65a9c0(,%rax,8)
  40824b:	00 
        head_checkcache ++;
  40824c:	8b 05 46 0a 25 00    	mov    0x250a46(%rip),%eax        # 658c98 <head_checkcache>
  408252:	83 c0 01             	add    $0x1,%eax
  408255:	89 05 3d 0a 25 00    	mov    %eax,0x250a3d(%rip)        # 658c98 <head_checkcache>
        if (head_checkcache == NUM_BUF_CHECKCACHE) head_checkcache = 0;
  40825b:	8b 05 37 0a 25 00    	mov    0x250a37(%rip),%eax        # 658c98 <head_checkcache>
  408261:	3d 00 00 10 00       	cmp    $0x100000,%eax
  408266:	75 0f                	jne    408277 <RecvBlock+0x2bf>
  408268:	c7 05 26 0a 25 00 00 	movl   $0x0,0x250a26(%rip)        # 658c98 <head_checkcache>
  40826f:	00 00 00 
      }
      break;
  408272:	e9 96 02 00 00       	jmpq   40850d <RecvBlock+0x555>
  408277:	e9 91 02 00 00       	jmpq   40850d <RecvBlock+0x555>
    case TYPE_COMPRESS:
      //if compressed data, send it to decompress thread
      body = (send_body *)malloc(sizeof(send_body));
  40827c:	bf 18 00 00 00       	mov    $0x18,%edi
  408281:	e8 ca ea ff ff       	callq  406d50 <malloc@plt>
  408286:	48 89 45 e8          	mov    %rax,-0x18(%rbp)
      if (xread(fd, &body->cid, sizeof(body->cid)) < 0){
  40828a:	48 8b 45 e8          	mov    -0x18(%rbp),%rax
  40828e:	48 8d 48 08          	lea    0x8(%rax),%rcx
  408292:	8b 45 d4             	mov    -0x2c(%rbp),%eax
  408295:	ba 04 00 00 00       	mov    $0x4,%edx
  40829a:	48 89 ce             	mov    %rcx,%rsi
  40829d:	89 c7                	mov    %eax,%edi
  40829f:	e8 18 57 00 00       	callq  40d9bc <xread>
  4082a4:	85 c0                	test   %eax,%eax
  4082a6:	79 28                	jns    4082d0 <RecvBlock+0x318>
        EXIT_TRACE("xread body fails\n");
  4082a8:	48 8b 05 d1 06 25 00 	mov    0x2506d1(%rip),%rax        # 658980 <stderr@@GLIBC_2.2.5>
  4082af:	ba 17 7e 43 00       	mov    $0x437e17,%edx
  4082b4:	be 1d 7d 43 00       	mov    $0x437d1d,%esi
  4082b9:	48 89 c7             	mov    %rax,%rdi
  4082bc:	b8 00 00 00 00       	mov    $0x0,%eax
  4082c1:	e8 ca ec ff ff       	callq  406f90 <fprintf@plt>
  4082c6:	bf ff ff ff ff       	mov    $0xffffffff,%edi
  4082cb:	e8 50 ea ff ff       	callq  406d20 <exit@plt>
      }
      if (body->cid == check_count) {
  4082d0:	48 8b 45 e8          	mov    -0x18(%rbp),%rax
  4082d4:	8b 50 08             	mov    0x8(%rax),%edx
  4082d7:	8b 45 d0             	mov    -0x30(%rbp),%eax
  4082da:	39 c2                	cmp    %eax,%edx
  4082dc:	75 06                	jne    4082e4 <RecvBlock+0x32c>
        check_count ++;
  4082de:	83 45 d0 01          	addl   $0x1,-0x30(%rbp)
  4082e2:	eb 1b                	jmp    4082ff <RecvBlock+0x347>
      } else {
        printf("error check-count %d, body->cid %d\n", check_count, body->cid);
  4082e4:	48 8b 45 e8          	mov    -0x18(%rbp),%rax
  4082e8:	8b 50 08             	mov    0x8(%rax),%edx
  4082eb:	8b 45 d0             	mov    -0x30(%rbp),%eax
  4082ee:	89 c6                	mov    %eax,%esi
  4082f0:	bf 38 7d 43 00       	mov    $0x437d38,%edi
  4082f5:	b8 00 00 00 00       	mov    $0x0,%eax
  4082fa:	e8 71 e9 ff ff       	callq  406c70 <printf@plt>
      }
      if (xread(fd, &body->len, sizeof(body->len)) < 0){
  4082ff:	48 8b 45 e8          	mov    -0x18(%rbp),%rax
  408303:	48 8d 48 10          	lea    0x10(%rax),%rcx
  408307:	8b 45 d4             	mov    -0x2c(%rbp),%eax
  40830a:	ba 08 00 00 00       	mov    $0x8,%edx
  40830f:	48 89 ce             	mov    %rcx,%rsi
  408312:	89 c7                	mov    %eax,%edi
  408314:	e8 a3 56 00 00       	callq  40d9bc <xread>
  408319:	85 c0                	test   %eax,%eax
  40831b:	79 28                	jns    408345 <RecvBlock+0x38d>
        EXIT_TRACE("xread body fails\n");
  40831d:	48 8b 05 5c 06 25 00 	mov    0x25065c(%rip),%rax        # 658980 <stderr@@GLIBC_2.2.5>
  408324:	ba 17 7e 43 00       	mov    $0x437e17,%edx
  408329:	be 1d 7d 43 00       	mov    $0x437d1d,%esi
  40832e:	48 89 c7             	mov    %rax,%rdi
  408331:	b8 00 00 00 00       	mov    $0x0,%eax
  408336:	e8 55 ec ff ff       	callq  406f90 <fprintf@plt>
  40833b:	bf ff ff ff ff       	mov    $0xffffffff,%edi
  408340:	e8 db e9 ff ff       	callq  406d20 <exit@plt>
      }
      item->str = (u_char *)body;
  408345:	48 8b 45 e0          	mov    -0x20(%rbp),%rax
  408349:	48 8b 55 e8          	mov    -0x18(%rbp),%rdx
  40834d:	48 89 50 08          	mov    %rdx,0x8(%rax)
      if (body->len > 0) {
  408351:	48 8b 45 e8          	mov    -0x18(%rbp),%rax
  408355:	48 8b 40 10          	mov    0x10(%rax),%rax
  408359:	48 85 c0             	test   %rax,%rax
  40835c:	0f 84 ad 00 00 00    	je     40840f <RecvBlock+0x457>
        item->content = (u_char *)malloc(body->len*sizeof(u_char));
  408362:	48 8b 45 e8          	mov    -0x18(%rbp),%rax
  408366:	48 8b 40 10          	mov    0x10(%rax),%rax
  40836a:	48 89 c7             	mov    %rax,%rdi
  40836d:	e8 de e9 ff ff       	callq  406d50 <malloc@plt>
  408372:	48 89 c2             	mov    %rax,%rdx
  408375:	48 8b 45 e0          	mov    -0x20(%rbp),%rax
  408379:	48 89 50 10          	mov    %rdx,0x10(%rax)
        if (xread(fd, item->content, body->len) < 0){
  40837d:	48 8b 45 e8          	mov    -0x18(%rbp),%rax
  408381:	48 8b 50 10          	mov    0x10(%rax),%rdx
  408385:	48 8b 45 e0          	mov    -0x20(%rbp),%rax
  408389:	48 8b 48 10          	mov    0x10(%rax),%rcx
  40838d:	8b 45 d4             	mov    -0x2c(%rbp),%eax
  408390:	48 89 ce             	mov    %rcx,%rsi
  408393:	89 c7                	mov    %eax,%edi
  408395:	e8 22 56 00 00       	callq  40d9bc <xread>
  40839a:	85 c0                	test   %eax,%eax
  40839c:	79 32                	jns    4083d0 <RecvBlock+0x418>
          perror("xread");
  40839e:	bf 97 7d 43 00       	mov    $0x437d97,%edi
  4083a3:	e8 d8 eb ff ff       	callq  406f80 <perror@plt>
          EXIT_TRACE("compress: xread content fails\n");
  4083a8:	48 8b 05 d1 05 25 00 	mov    0x2505d1(%rip),%rax        # 658980 <stderr@@GLIBC_2.2.5>
  4083af:	ba 17 7e 43 00       	mov    $0x437e17,%edx
  4083b4:	be a0 7d 43 00       	mov    $0x437da0,%esi
  4083b9:	48 89 c7             	mov    %rax,%rdi
  4083bc:	b8 00 00 00 00       	mov    $0x0,%eax
  4083c1:	e8 ca eb ff ff       	callq  406f90 <fprintf@plt>
  4083c6:	bf ff ff ff ff       	mov    $0xffffffff,%edi
  4083cb:	e8 50 e9 ff ff       	callq  406d20 <exit@plt>
        }
        //send to decompress
        buf_decompress[head_decompress] = item;
  4083d0:	8b 05 ba 08 25 00    	mov    0x2508ba(%rip),%eax        # 658c90 <head_decompress>
  4083d6:	48 98                	cltq   
  4083d8:	48 8b 55 e0          	mov    -0x20(%rbp),%rdx
  4083dc:	48 89 14 c5 00 aa 65 	mov    %rdx,0x165aa00(,%rax,8)
  4083e3:	01 
        head_decompress ++;
  4083e4:	8b 05 a6 08 25 00    	mov    0x2508a6(%rip),%eax        # 658c90 <head_decompress>
  4083ea:	83 c0 01             	add    $0x1,%eax
  4083ed:	89 05 9d 08 25 00    	mov    %eax,0x25089d(%rip)        # 658c90 <head_decompress>
        if (head_decompress == NUM_BUF_DECOMPRESS) head_decompress = 0;
  4083f3:	8b 05 97 08 25 00    	mov    0x250897(%rip),%eax        # 658c90 <head_decompress>
  4083f9:	3d 00 00 10 00       	cmp    $0x100000,%eax
  4083fe:	75 0f                	jne    40840f <RecvBlock+0x457>
  408400:	c7 05 86 08 25 00 00 	movl   $0x0,0x250886(%rip)        # 658c90 <head_decompress>
  408407:	00 00 00 
      }
      break;
  40840a:	e9 fe 00 00 00       	jmpq   40850d <RecvBlock+0x555>
  40840f:	e9 f9 00 00 00       	jmpq   40850d <RecvBlock+0x555>
    case TYPE_HEAD:
      //if file header, initialize
      if (xread(fd, &checkbit, sizeof(int)) < 0){
  408414:	48 8d 4d cc          	lea    -0x34(%rbp),%rcx
  408418:	8b 45 d4             	mov    -0x2c(%rbp),%eax
  40841b:	ba 04 00 00 00       	mov    $0x4,%edx
  408420:	48 89 ce             	mov    %rcx,%rsi
  408423:	89 c7                	mov    %eax,%edi
  408425:	e8 92 55 00 00       	callq  40d9bc <xread>
  40842a:	85 c0                	test   %eax,%eax
  40842c:	79 28                	jns    408456 <RecvBlock+0x49e>
        EXIT_TRACE("xwrite head fails\n");
  40842e:	48 8b 05 4b 05 25 00 	mov    0x25054b(%rip),%rax        # 658980 <stderr@@GLIBC_2.2.5>
  408435:	ba 17 7e 43 00       	mov    $0x437e17,%edx
  40843a:	be c4 7d 43 00       	mov    $0x437dc4,%esi
  40843f:	48 89 c7             	mov    %rax,%rdi
  408442:	b8 00 00 00 00       	mov    $0x0,%eax
  408447:	e8 44 eb ff ff       	callq  406f90 <fprintf@plt>
  40844c:	bf ff ff ff ff       	mov    $0xffffffff,%edi
  408451:	e8 ca e8 ff ff       	callq  406d20 <exit@plt>
      }
      if (checkbit != CHECKBIT) {
  408456:	8b 45 cc             	mov    -0x34(%rbp),%eax
  408459:	3d 40 e2 01 00       	cmp    $0x1e240,%eax
  40845e:	74 14                	je     408474 <RecvBlock+0x4bc>
        printf("format error!\n");
  408460:	bf dc 7d 43 00       	mov    $0x437ddc,%edi
  408465:	e8 66 e8 ff ff       	callq  406cd0 <puts@plt>
        exit(1);
  40846a:	bf 01 00 00 00       	mov    $0x1,%edi
  40846f:	e8 ac e8 ff ff       	callq  406d20 <exit@plt>
      }
      head = (send_head *)malloc(sizeof(send_head));
  408474:	bf 68 00 00 00       	mov    $0x68,%edi
  408479:	e8 d2 e8 ff ff       	callq  406d50 <malloc@plt>
  40847e:	48 89 45 f0          	mov    %rax,-0x10(%rbp)
      if (xread(fd, head, sizeof(send_head)) < 0){
  408482:	48 8b 4d f0          	mov    -0x10(%rbp),%rcx
  408486:	8b 45 d4             	mov    -0x2c(%rbp),%eax
  408489:	ba 68 00 00 00       	mov    $0x68,%edx
  40848e:	48 89 ce             	mov    %rcx,%rsi
  408491:	89 c7                	mov    %eax,%edi
  408493:	e8 24 55 00 00       	callq  40d9bc <xread>
  408498:	85 c0                	test   %eax,%eax
  40849a:	79 28                	jns    4084c4 <RecvBlock+0x50c>
        EXIT_TRACE("xread head fails\n");
  40849c:	48 8b 05 dd 04 25 00 	mov    0x2504dd(%rip),%rax        # 658980 <stderr@@GLIBC_2.2.5>
  4084a3:	ba 17 7e 43 00       	mov    $0x437e17,%edx
  4084a8:	be ea 7d 43 00       	mov    $0x437dea,%esi
  4084ad:	48 89 c7             	mov    %rax,%rdi
  4084b0:	b8 00 00 00 00       	mov    $0x0,%eax
  4084b5:	e8 d6 ea ff ff       	callq  406f90 <fprintf@plt>
  4084ba:	bf ff ff ff ff       	mov    $0xffffffff,%edi
  4084bf:	e8 5c e8 ff ff       	callq  406d20 <exit@plt>
      }
      item->str = (u_char *)head;
  4084c4:	48 8b 45 e0          	mov    -0x20(%rbp),%rax
  4084c8:	48 8b 55 f0          	mov    -0x10(%rbp),%rdx
  4084cc:	48 89 50 08          	mov    %rdx,0x8(%rax)
      buf_reassemble[head_reassemble] = item;
  4084d0:	8b 05 ca 07 25 00    	mov    0x2507ca(%rip),%eax        # 658ca0 <head_reassemble>
  4084d6:	48 98                	cltq   
  4084d8:	48 8b 55 e0          	mov    -0x20(%rbp),%rdx
  4084dc:	48 89 14 c5 c0 a9 e5 	mov    %rdx,0xe5a9c0(,%rax,8)
  4084e3:	00 
      head_reassemble ++;
  4084e4:	8b 05 b6 07 25 00    	mov    0x2507b6(%rip),%eax        # 658ca0 <head_reassemble>
  4084ea:	83 c0 01             	add    $0x1,%eax
  4084ed:	89 05 ad 07 25 00    	mov    %eax,0x2507ad(%rip)        # 658ca0 <head_reassemble>
      if (head_reassemble == NUM_BUF_REASSEMBLE) head_reassemble = 0;
  4084f3:	8b 05 a7 07 25 00    	mov    0x2507a7(%rip),%eax        # 658ca0 <head_reassemble>
  4084f9:	3d 00 00 10 00       	cmp    $0x100000,%eax
  4084fe:	75 0c                	jne    40850c <RecvBlock+0x554>
  408500:	c7 05 96 07 25 00 00 	movl   $0x0,0x250796(%rip)        # 658ca0 <head_reassemble>
  408507:	00 00 00 
      break;
  40850a:	eb 00                	jmp    40850c <RecvBlock+0x554>
  40850c:	90                   	nop
    }    
  }
  40850d:	e9 0a fb ff ff       	jmpq   40801c <RecvBlock+0x64>

  end_RecvBlock = TRUE;
  close(fd);
  return NULL;
}
  408512:	48 8b 4d f8          	mov    -0x8(%rbp),%rcx
  408516:	64 48 33 0c 25 28 00 	xor    %fs:0x28,%rcx
  40851d:	00 00 
  40851f:	74 05                	je     408526 <RecvBlock+0x56e>
  408521:	e8 9a e9 ff ff       	callq  406ec0 <__stack_chk_fail@plt>
  408526:	c9                   	leaveq 
  408527:	c3                   	retq   

0000000000408528 <Decode>:

void 
Decode(config * conf){
  408528:	55                   	push   %rbp
  408529:	48 89 e5             	mov    %rsp,%rbp
  40852c:	48 83 ec 10          	sub    $0x10,%rsp
  408530:	48 89 7d f8          	mov    %rdi,-0x8(%rbp)
#ifdef ENABLE_PARSEC_HOOKS
    __parsec_roi_begin();
#endif
  RecvBlock(conf);
  408534:	48 8b 45 f8          	mov    -0x8(%rbp),%rax
  408538:	48 89 c7             	mov    %rax,%rdi
  40853b:	e8 78 fa ff ff       	callq  407fb8 <RecvBlock>
  Decompress(NULL);
  408540:	bf 00 00 00 00       	mov    $0x0,%edi
  408545:	e8 f4 f1 ff ff       	callq  40773e <Decompress>
  CheckCache(NULL);
  40854a:	bf 00 00 00 00       	mov    $0x0,%edi
  40854f:	e8 aa f0 ff ff       	callq  4075fe <CheckCache>
  if (strcmp(conf->outfile, "") == 0)
  408554:	48 8b 45 f8          	mov    -0x8(%rbp),%rax
  408558:	48 83 c0 64          	add    $0x64,%rax
  40855c:	0f b6 00             	movzbl (%rax),%eax
  40855f:	84 c0                	test   %al,%al
  408561:	75 0c                	jne    40856f <Decode+0x47>
    Reassemble(NULL);
  408563:	bf 00 00 00 00       	mov    $0x0,%edi
  408568:	e8 7e f5 ff ff       	callq  407aeb <Reassemble>
  40856d:	eb 10                	jmp    40857f <Decode+0x57>
  else Reassemble(conf->outfile);
  40856f:	48 8b 45 f8          	mov    -0x8(%rbp),%rax
  408573:	48 83 c0 64          	add    $0x64,%rax
  408577:	48 89 c7             	mov    %rax,%rdi
  40857a:	e8 6c f5 ff ff       	callq  407aeb <Reassemble>
#ifdef ENABLE_PARSEC_HOOKS
    __parsec_roi_end();
#endif
}
  40857f:	c9                   	leaveq 
  408580:	c3                   	retq   

0000000000408581 <keys_equal_fn>:
#endif

config * conf;

static int
keys_equal_fn ( void *key1, void *key2 ){
  408581:	55                   	push   %rbp
  408582:	48 89 e5             	mov    %rsp,%rbp
  408585:	48 83 ec 10          	sub    $0x10,%rsp
  408589:	48 89 7d f8          	mov    %rdi,-0x8(%rbp)
  40858d:	48 89 75 f0          	mov    %rsi,-0x10(%rbp)
  return (memcmp(((CacheKey*)key1)->sha1name, ((CacheKey*)key2)->sha1name, SHA1_LEN) == 0);
  408591:	48 8b 4d f0          	mov    -0x10(%rbp),%rcx
  408595:	48 8b 45 f8          	mov    -0x8(%rbp),%rax
  408599:	ba 14 00 00 00       	mov    $0x14,%edx
  40859e:	48 89 ce             	mov    %rcx,%rsi
  4085a1:	48 89 c7             	mov    %rax,%rdi
  4085a4:	e8 57 e9 ff ff       	callq  406f00 <memcmp@plt>
  4085a9:	85 c0                	test   %eax,%eax
  4085ab:	0f 94 c0             	sete   %al
  4085ae:	0f b6 c0             	movzbl %al,%eax
}
  4085b1:	c9                   	leaveq 
  4085b2:	c3                   	retq   

00000000004085b3 <usage>:


/*--------------------------------------------------------------------------*/
static void
usage(char* prog)
{
  4085b3:	55                   	push   %rbp
  4085b4:	48 89 e5             	mov    %rsp,%rbp
  4085b7:	48 83 ec 10          	sub    $0x10,%rsp
  4085bb:	48 89 7d f8          	mov    %rdi,-0x8(%rbp)
  printf("usage: %s [-cusfh] [-w gzip/bzip2/none] [-i file/hostname] [-o file/hostname] [-b block_size_in_KB] [-t number_of_threads]\n",prog);
  4085bf:	48 8b 45 f8          	mov    -0x8(%rbp),%rax
  4085c3:	48 89 c6             	mov    %rax,%rsi
  4085c6:	bf 28 7e 43 00       	mov    $0x437e28,%edi
  4085cb:	b8 00 00 00 00       	mov    $0x0,%eax
  4085d0:	e8 9b e6 ff ff       	callq  406c70 <printf@plt>
  printf("-c \t\t\tcompress\n");
  4085d5:	bf a4 7e 43 00       	mov    $0x437ea4,%edi
  4085da:	e8 f1 e6 ff ff       	callq  406cd0 <puts@plt>
  printf("-u \t\t\tuncompress\n");
  4085df:	bf b3 7e 43 00       	mov    $0x437eb3,%edi
  4085e4:	e8 e7 e6 ff ff       	callq  406cd0 <puts@plt>
  printf("-s \t\t\tsend output to the receiver\n");
  4085e9:	bf c8 7e 43 00       	mov    $0x437ec8,%edi
  4085ee:	e8 dd e6 ff ff       	callq  406cd0 <puts@plt>
  printf("-f \t\t\tput output into a file\n");
  4085f3:	bf ea 7e 43 00       	mov    $0x437eea,%edi
  4085f8:	e8 d3 e6 ff ff       	callq  406cd0 <puts@plt>
  printf("-w \t\t\tcompress/uncompress technique: gzip/bzip2/none\n");
  4085fd:	bf 08 7f 43 00       	mov    $0x437f08,%edi
  408602:	e8 c9 e6 ff ff       	callq  406cd0 <puts@plt>
  printf("-i file\t\t\tthe input file/src host\n");
  408607:	bf 40 7f 43 00       	mov    $0x437f40,%edi
  40860c:	e8 bf e6 ff ff       	callq  406cd0 <puts@plt>
  printf("-o file\t\t\tthe output file/dst host\n");
  408611:	bf 68 7f 43 00       	mov    $0x437f68,%edi
  408616:	e8 b5 e6 ff ff       	callq  406cd0 <puts@plt>
  printf("-b block_size_in_KB\tspecify the block size in KB, default=32KB\n");
  40861b:	bf 90 7f 43 00       	mov    $0x437f90,%edi
  408620:	e8 ab e6 ff ff       	callq  406cd0 <puts@plt>
  printf("-t number of threads per stage \n");
  408625:	bf d0 7f 43 00       	mov    $0x437fd0,%edi
  40862a:	e8 a1 e6 ff ff       	callq  406cd0 <puts@plt>
  printf("-h \t\t\thelp\n");
  40862f:	bf f0 7f 43 00       	mov    $0x437ff0,%edi
  408634:	e8 97 e6 ff ff       	callq  406cd0 <puts@plt>
}
  408639:	c9                   	leaveq 
  40863a:	c3                   	retq   

000000000040863b <main>:
/*--------------------------------------------------------------------------*/
int 
main(int argc, char** argv)
{
  40863b:	55                   	push   %rbp
  40863c:	48 89 e5             	mov    %rsp,%rbp
  40863f:	53                   	push   %rbx
  408640:	48 83 ec 28          	sub    $0x28,%rsp
  408644:	89 7d dc             	mov    %edi,-0x24(%rbp)
  408647:	48 89 75 d0          	mov    %rsi,-0x30(%rbp)
#ifdef PARSEC_VERSION
#define __PARSEC_STRING(x) #x
#define __PARSEC_XSTRING(x) __PARSEC_STRING(x)
  printf("PARSEC Benchmark Suite Version "__PARSEC_XSTRING(PARSEC_VERSION)"\n");
#else
  printf("PARSEC Benchmark Suite\n");
  40864b:	bf fb 7f 43 00       	mov    $0x437ffb,%edi
  408650:	e8 7b e6 ff ff       	callq  406cd0 <puts@plt>
#endif //PARSEC_VERSION
#ifdef ENABLE_PARSEC_HOOKS
        __parsec_bench_begin(__parsec_dedup);
#endif

  int32 compress = TRUE;
  408655:	c7 45 e8 01 00 00 00 	movl   $0x1,-0x18(%rbp)
  
  conf = (config *) malloc(sizeof(config));
  40865c:	bf d8 00 00 00       	mov    $0xd8,%edi
  408661:	e8 ea e6 ff ff       	callq  406d50 <malloc@plt>
  408666:	48 89 05 93 23 a5 01 	mov    %rax,0x1a52393(%rip)        # 1e5aa00 <conf>
  conf->b_size = 32 * 1024;
  40866d:	48 8b 05 8c 23 a5 01 	mov    0x1a5238c(%rip),%rax        # 1e5aa00 <conf>
  408674:	c7 80 d4 00 00 00 00 	movl   $0x8000,0xd4(%rax)
  40867b:	80 00 00 
  compress_way = COMPRESS_GZIP;
  40867e:	c7 05 40 23 25 01 00 	movl   $0x0,0x1252340(%rip)        # 165a9c8 <compress_way>
  408685:	00 00 00 
  strcpy(conf->outfile, "");
  408688:	48 8b 05 71 23 a5 01 	mov    0x1a52371(%rip),%rax        # 1e5aa00 <conf>
  40868f:	48 83 c0 64          	add    $0x64,%rax
  408693:	c6 00 00             	movb   $0x0,(%rax)
  conf->preloading = 0;
  408696:	48 8b 05 63 23 a5 01 	mov    0x1a52363(%rip),%rax        # 1e5aa00 <conf>
  40869d:	c7 80 cc 00 00 00 00 	movl   $0x0,0xcc(%rax)
  4086a4:	00 00 00 
  conf->nthreads = 1;
  4086a7:	48 8b 05 52 23 a5 01 	mov    0x1a52352(%rip),%rax        # 1e5aa00 <conf>
  4086ae:	c7 80 d0 00 00 00 01 	movl   $0x1,0xd0(%rax)
  4086b5:	00 00 00 

  //parse the args
  int ch;
  opterr = 0;
  4086b8:	c7 05 ae 02 25 00 00 	movl   $0x0,0x2502ae(%rip)        # 658970 <opterr@@GLIBC_2.2.5>
  4086bf:	00 00 00 
  optind = 1;
  4086c2:	c7 05 94 02 25 00 01 	movl   $0x1,0x250294(%rip)        # 658960 <optind@@GLIBC_2.2.5>
  4086c9:	00 00 00 
  while (-1 != (ch = getopt(argc, argv, "csufpo:i:b:w:t:h"))) {
  4086cc:	e9 e5 01 00 00       	jmpq   4088b6 <main+0x27b>
    switch (ch) {
  4086d1:	8b 45 ec             	mov    -0x14(%rbp),%eax
  4086d4:	83 e8 3f             	sub    $0x3f,%eax
  4086d7:	83 f8 38             	cmp    $0x38,%eax
  4086da:	0f 87 d6 01 00 00    	ja     4088b6 <main+0x27b>
  4086e0:	89 c0                	mov    %eax,%eax
  4086e2:	48 8b 04 c5 60 80 43 	mov    0x438060(,%rax,8),%rax
  4086e9:	00 
  4086ea:	ff e0                	jmpq   *%rax
    case 'c':
      compress = TRUE;
  4086ec:	c7 45 e8 01 00 00 00 	movl   $0x1,-0x18(%rbp)
      strcpy(conf->infile, "test.txt");
  4086f3:	48 8b 05 06 23 a5 01 	mov    0x1a52306(%rip),%rax        # 1e5aa00 <conf>
  4086fa:	48 b9 74 65 73 74 2e 	movabs $0x7478742e74736574,%rcx
  408701:	74 78 74 
  408704:	48 89 08             	mov    %rcx,(%rax)
  408707:	c6 40 08 00          	movb   $0x0,0x8(%rax)
      strcpy(conf->outfile, "out.cz");
  40870b:	48 8b 05 ee 22 a5 01 	mov    0x1a522ee(%rip),%rax        # 1e5aa00 <conf>
  408712:	48 83 c0 64          	add    $0x64,%rax
  408716:	c7 00 6f 75 74 2e    	movl   $0x2e74756f,(%rax)
  40871c:	66 c7 40 04 63 7a    	movw   $0x7a63,0x4(%rax)
  408722:	c6 40 06 00          	movb   $0x0,0x6(%rax)
      break;
  408726:	e9 8b 01 00 00       	jmpq   4088b6 <main+0x27b>
    case 'u':
      compress = FALSE;
  40872b:	c7 45 e8 00 00 00 00 	movl   $0x0,-0x18(%rbp)
      strcpy(conf->infile, "out.cz");
  408732:	48 8b 05 c7 22 a5 01 	mov    0x1a522c7(%rip),%rax        # 1e5aa00 <conf>
  408739:	c7 00 6f 75 74 2e    	movl   $0x2e74756f,(%rax)
  40873f:	66 c7 40 04 63 7a    	movw   $0x7a63,0x4(%rax)
  408745:	c6 40 06 00          	movb   $0x0,0x6(%rax)
      strcpy(conf->outfile, "new.txt");
  408749:	48 8b 05 b0 22 a5 01 	mov    0x1a522b0(%rip),%rax        # 1e5aa00 <conf>
  408750:	48 83 c0 64          	add    $0x64,%rax
  408754:	48 b9 6e 65 77 2e 74 	movabs $0x7478742e77656e,%rcx
  40875b:	78 74 00 
  40875e:	48 89 08             	mov    %rcx,(%rax)
      break;
  408761:	e9 50 01 00 00       	jmpq   4088b6 <main+0x27b>
    case 'f': 
      conf->method = METHOD_FILE;
  408766:	48 8b 05 93 22 a5 01 	mov    0x1a52293(%rip),%rax        # 1e5aa00 <conf>
  40876d:	c7 80 c8 00 00 00 01 	movl   $0x1,0xc8(%rax)
  408774:	00 00 00 
      break;
  408777:	e9 3a 01 00 00       	jmpq   4088b6 <main+0x27b>
    case 'w':
      if (strcmp(optarg, "gzip") == 0)
  40877c:	48 8b 05 f5 01 25 00 	mov    0x2501f5(%rip),%rax        # 658978 <optarg@@GLIBC_2.2.5>
  408783:	be 12 80 43 00       	mov    $0x438012,%esi
  408788:	48 89 c7             	mov    %rax,%rdi
  40878b:	e8 40 e7 ff ff       	callq  406ed0 <strcmp@plt>
  408790:	85 c0                	test   %eax,%eax
  408792:	75 0c                	jne    4087a0 <main+0x165>
        compress_way = COMPRESS_GZIP;
  408794:	c7 05 2a 22 25 01 00 	movl   $0x0,0x125222a(%rip)        # 165a9c8 <compress_way>
  40879b:	00 00 00 
  40879e:	eb 2e                	jmp    4087ce <main+0x193>
      else if (strcmp(optarg, "bzip2") == 0) 
  4087a0:	48 8b 05 d1 01 25 00 	mov    0x2501d1(%rip),%rax        # 658978 <optarg@@GLIBC_2.2.5>
  4087a7:	be 17 80 43 00       	mov    $0x438017,%esi
  4087ac:	48 89 c7             	mov    %rax,%rdi
  4087af:	e8 1c e7 ff ff       	callq  406ed0 <strcmp@plt>
  4087b4:	85 c0                	test   %eax,%eax
  4087b6:	75 0c                	jne    4087c4 <main+0x189>
        compress_way = COMPRESS_BZIP2;
  4087b8:	c7 05 06 22 25 01 01 	movl   $0x1,0x1252206(%rip)        # 165a9c8 <compress_way>
  4087bf:	00 00 00 
  4087c2:	eb 0a                	jmp    4087ce <main+0x193>
      else compress_way = COMPRESS_NONE;
  4087c4:	c7 05 fa 21 25 01 02 	movl   $0x2,0x12521fa(%rip)        # 165a9c8 <compress_way>
  4087cb:	00 00 00 
      break;
  4087ce:	e9 e3 00 00 00       	jmpq   4088b6 <main+0x27b>
    case 'o':
      strcpy(conf->outfile, optarg);
  4087d3:	48 8b 05 9e 01 25 00 	mov    0x25019e(%rip),%rax        # 658978 <optarg@@GLIBC_2.2.5>
  4087da:	48 8b 15 1f 22 a5 01 	mov    0x1a5221f(%rip),%rdx        # 1e5aa00 <conf>
  4087e1:	48 83 c2 64          	add    $0x64,%rdx
  4087e5:	48 89 c6             	mov    %rax,%rsi
  4087e8:	48 89 d7             	mov    %rdx,%rdi
  4087eb:	e8 00 e7 ff ff       	callq  406ef0 <strcpy@plt>
      break;
  4087f0:	e9 c1 00 00 00       	jmpq   4088b6 <main+0x27b>
    case 'i':
      strcpy(conf->infile, optarg);
  4087f5:	48 8b 05 7c 01 25 00 	mov    0x25017c(%rip),%rax        # 658978 <optarg@@GLIBC_2.2.5>
  4087fc:	48 8b 15 fd 21 a5 01 	mov    0x1a521fd(%rip),%rdx        # 1e5aa00 <conf>
  408803:	48 89 c6             	mov    %rax,%rsi
  408806:	48 89 d7             	mov    %rdx,%rdi
  408809:	e8 e2 e6 ff ff       	callq  406ef0 <strcpy@plt>
      break;
  40880e:	e9 a3 00 00 00       	jmpq   4088b6 <main+0x27b>
    case 'h':
      usage(argv[0]);
  408813:	48 8b 45 d0          	mov    -0x30(%rbp),%rax
  408817:	48 8b 00             	mov    (%rax),%rax
  40881a:	48 89 c7             	mov    %rax,%rdi
  40881d:	e8 91 fd ff ff       	callq  4085b3 <usage>
      return -1;
  408822:	b8 ff ff ff ff       	mov    $0xffffffff,%eax
  408827:	e9 13 01 00 00       	jmpq   40893f <main+0x304>
    case 'b':
      conf->b_size = atoi(optarg) * 1024;
  40882c:	48 8b 1d cd 21 a5 01 	mov    0x1a521cd(%rip),%rbx        # 1e5aa00 <conf>
  408833:	48 8b 05 3e 01 25 00 	mov    0x25013e(%rip),%rax        # 658978 <optarg@@GLIBC_2.2.5>
  40883a:	48 89 c7             	mov    %rax,%rdi
  40883d:	e8 fe e5 ff ff       	callq  406e40 <atoi@plt>
  408842:	c1 e0 0a             	shl    $0xa,%eax
  408845:	89 83 d4 00 00 00    	mov    %eax,0xd4(%rbx)
      break;
  40884b:	eb 69                	jmp    4088b6 <main+0x27b>
    case 'p':
      conf->preloading = 1;
  40884d:	48 8b 05 ac 21 a5 01 	mov    0x1a521ac(%rip),%rax        # 1e5aa00 <conf>
  408854:	c7 80 cc 00 00 00 01 	movl   $0x1,0xcc(%rax)
  40885b:	00 00 00 
      break;
  40885e:	eb 56                	jmp    4088b6 <main+0x27b>
    case 't':
      conf->nthreads = atoi(optarg);
  408860:	48 8b 1d 99 21 a5 01 	mov    0x1a52199(%rip),%rbx        # 1e5aa00 <conf>
  408867:	48 8b 05 0a 01 25 00 	mov    0x25010a(%rip),%rax        # 658978 <optarg@@GLIBC_2.2.5>
  40886e:	48 89 c7             	mov    %rax,%rdi
  408871:	e8 ca e5 ff ff       	callq  406e40 <atoi@plt>
  408876:	89 83 d0 00 00 00    	mov    %eax,0xd0(%rbx)
      break;
  40887c:	eb 38                	jmp    4088b6 <main+0x27b>
    case '?':
      fprintf(stdout, "Unknown option `-%c'.\n", optopt);
  40887e:	8b 15 bc 00 25 00    	mov    0x2500bc(%rip),%edx        # 658940 <optopt@@GLIBC_2.2.5>
  408884:	48 8b 05 05 01 25 00 	mov    0x250105(%rip),%rax        # 658990 <stdout@@GLIBC_2.2.5>
  40888b:	be 1d 80 43 00       	mov    $0x43801d,%esi
  408890:	48 89 c7             	mov    %rax,%rdi
  408893:	b8 00 00 00 00       	mov    $0x0,%eax
  408898:	e8 f3 e6 ff ff       	callq  406f90 <fprintf@plt>
      usage(argv[0]);
  40889d:	48 8b 45 d0          	mov    -0x30(%rbp),%rax
  4088a1:	48 8b 00             	mov    (%rax),%rax
  4088a4:	48 89 c7             	mov    %rax,%rdi
  4088a7:	e8 07 fd ff ff       	callq  4085b3 <usage>
      return -1;
  4088ac:	b8 ff ff ff ff       	mov    $0xffffffff,%eax
  4088b1:	e9 89 00 00 00       	jmpq   40893f <main+0x304>

  //parse the args
  int ch;
  opterr = 0;
  optind = 1;
  while (-1 != (ch = getopt(argc, argv, "csufpo:i:b:w:t:h"))) {
  4088b6:	48 8b 4d d0          	mov    -0x30(%rbp),%rcx
  4088ba:	8b 45 dc             	mov    -0x24(%rbp),%eax
  4088bd:	ba 34 80 43 00       	mov    $0x438034,%edx
  4088c2:	48 89 ce             	mov    %rcx,%rsi
  4088c5:	89 c7                	mov    %eax,%edi
  4088c7:	e8 64 e4 ff ff       	callq  406d30 <getopt@plt>
  4088cc:	89 45 ec             	mov    %eax,-0x14(%rbp)
  4088cf:	83 7d ec ff          	cmpl   $0xffffffff,-0x14(%rbp)
  4088d3:	0f 85 f8 fd ff ff    	jne    4086d1 <main+0x96>
 if (conf->nthreads != 1){
    printf("Number of threads must be 1 (serial version)\n");
    exit(1);
  }
#endif
  cache = create_hashtable(65536, hash_from_key_fn, keys_equal_fn);
  4088d9:	ba 81 85 40 00       	mov    $0x408581,%edx
  4088de:	be c3 da 40 00       	mov    $0x40dac3,%esi
  4088e3:	bf 00 00 01 00       	mov    $0x10000,%edi
  4088e8:	e8 4d 3f 00 00       	callq  40c83a <create_hashtable>
  4088ed:	48 89 05 cc 20 25 01 	mov    %rax,0x12520cc(%rip)        # 165a9c0 <cache>
  if(cache == NULL) {
  4088f4:	48 8b 05 c5 20 25 01 	mov    0x12520c5(%rip),%rax        # 165a9c0 <cache>
  4088fb:	48 85 c0             	test   %rax,%rax
  4088fe:	75 14                	jne    408914 <main+0x2d9>
    printf("ERROR: Out of memory\n");
  408900:	bf 45 80 43 00       	mov    $0x438045,%edi
  408905:	e8 c6 e3 ff ff       	callq  406cd0 <puts@plt>
    exit(1);
  40890a:	bf 01 00 00 00       	mov    $0x1,%edi
  40890f:	e8 0c e4 ff ff       	callq  406d20 <exit@plt>
  }

  if (compress) {
  408914:	83 7d e8 00          	cmpl   $0x0,-0x18(%rbp)
  408918:	74 11                	je     40892b <main+0x2f0>
    Encode(conf);
  40891a:	48 8b 05 df 20 a5 01 	mov    0x1a520df(%rip),%rax        # 1e5aa00 <conf>
  408921:	48 89 c7             	mov    %rax,%rdi
  408924:	e8 40 32 00 00       	callq  40bb69 <Encode>
  408929:	eb 0f                	jmp    40893a <main+0x2ff>
  } else {
    Decode(conf);
  40892b:	48 8b 05 ce 20 a5 01 	mov    0x1a520ce(%rip),%rax        # 1e5aa00 <conf>
  408932:	48 89 c7             	mov    %rax,%rdi
  408935:	e8 ee fb ff ff       	callq  408528 <Decode>

#ifdef ENABLE_PARSEC_HOOKS
  __parsec_bench_end();
#endif

  return 0;
  40893a:	b8 00 00 00 00       	mov    $0x0,%eax
}
  40893f:	48 83 c4 28          	add    $0x28,%rsp
  408943:	5b                   	pop    %rbx
  408944:	5d                   	pop    %rbp
  408945:	c3                   	retq   

0000000000408946 <write_file>:
  int fd;
  //configuration, last pipeline stage only
  config * conf;
};

static int write_file(int fd, u_char type, int seq_count, u_long len, u_char * content) {
  408946:	55                   	push   %rbp
  408947:	48 89 e5             	mov    %rsp,%rbp
  40894a:	48 83 ec 20          	sub    $0x20,%rsp
  40894e:	89 7d fc             	mov    %edi,-0x4(%rbp)
  408951:	89 f0                	mov    %esi,%eax
  408953:	89 55 f4             	mov    %edx,-0xc(%rbp)
  408956:	48 89 4d e8          	mov    %rcx,-0x18(%rbp)
  40895a:	4c 89 45 e0          	mov    %r8,-0x20(%rbp)
  40895e:	88 45 f8             	mov    %al,-0x8(%rbp)
  if (xwrite(fd, &type, sizeof(type)) < 0){
  408961:	48 8d 4d f8          	lea    -0x8(%rbp),%rcx
  408965:	8b 45 fc             	mov    -0x4(%rbp),%eax
  408968:	ba 01 00 00 00       	mov    $0x1,%edx
  40896d:	48 89 ce             	mov    %rcx,%rsi
  408970:	89 c7                	mov    %eax,%edi
  408972:	e8 b8 50 00 00       	callq  40da2f <xwrite>
  408977:	85 c0                	test   %eax,%eax
  408979:	79 32                	jns    4089ad <write_file+0x67>
    perror("xwrite:");
  40897b:	bf 30 82 43 00       	mov    $0x438230,%edi
  408980:	e8 fb e5 ff ff       	callq  406f80 <perror@plt>
    EXIT_TRACE("xwrite type fails\n");
  408985:	48 8b 05 f4 ff 24 00 	mov    0x24fff4(%rip),%rax        # 658980 <stderr@@GLIBC_2.2.5>
  40898c:	ba a5 84 43 00       	mov    $0x4384a5,%edx
  408991:	be 38 82 43 00       	mov    $0x438238,%esi
  408996:	48 89 c7             	mov    %rax,%rdi
  408999:	b8 00 00 00 00       	mov    $0x0,%eax
  40899e:	e8 ed e5 ff ff       	callq  406f90 <fprintf@plt>
  4089a3:	bf ff ff ff ff       	mov    $0xffffffff,%edi
  4089a8:	e8 73 e3 ff ff       	callq  406d20 <exit@plt>
    return -1;
  }
  if (xwrite(fd, &seq_count, sizeof(seq_count)) < 0){
  4089ad:	48 8d 4d f4          	lea    -0xc(%rbp),%rcx
  4089b1:	8b 45 fc             	mov    -0x4(%rbp),%eax
  4089b4:	ba 04 00 00 00       	mov    $0x4,%edx
  4089b9:	48 89 ce             	mov    %rcx,%rsi
  4089bc:	89 c7                	mov    %eax,%edi
  4089be:	e8 6c 50 00 00       	callq  40da2f <xwrite>
  4089c3:	85 c0                	test   %eax,%eax
  4089c5:	79 28                	jns    4089ef <write_file+0xa9>
    EXIT_TRACE("xwrite content fails\n");
  4089c7:	48 8b 05 b2 ff 24 00 	mov    0x24ffb2(%rip),%rax        # 658980 <stderr@@GLIBC_2.2.5>
  4089ce:	ba a5 84 43 00       	mov    $0x4384a5,%edx
  4089d3:	be 50 82 43 00       	mov    $0x438250,%esi
  4089d8:	48 89 c7             	mov    %rax,%rdi
  4089db:	b8 00 00 00 00       	mov    $0x0,%eax
  4089e0:	e8 ab e5 ff ff       	callq  406f90 <fprintf@plt>
  4089e5:	bf ff ff ff ff       	mov    $0xffffffff,%edi
  4089ea:	e8 31 e3 ff ff       	callq  406d20 <exit@plt>
  }
  if (xwrite(fd, &len, sizeof(len)) < 0){
  4089ef:	48 8d 4d e8          	lea    -0x18(%rbp),%rcx
  4089f3:	8b 45 fc             	mov    -0x4(%rbp),%eax
  4089f6:	ba 08 00 00 00       	mov    $0x8,%edx
  4089fb:	48 89 ce             	mov    %rcx,%rsi
  4089fe:	89 c7                	mov    %eax,%edi
  408a00:	e8 2a 50 00 00       	callq  40da2f <xwrite>
  408a05:	85 c0                	test   %eax,%eax
  408a07:	79 28                	jns    408a31 <write_file+0xeb>
    EXIT_TRACE("xwrite content fails\n");
  408a09:	48 8b 05 70 ff 24 00 	mov    0x24ff70(%rip),%rax        # 658980 <stderr@@GLIBC_2.2.5>
  408a10:	ba a5 84 43 00       	mov    $0x4384a5,%edx
  408a15:	be 50 82 43 00       	mov    $0x438250,%esi
  408a1a:	48 89 c7             	mov    %rax,%rdi
  408a1d:	b8 00 00 00 00       	mov    $0x0,%eax
  408a22:	e8 69 e5 ff ff       	callq  406f90 <fprintf@plt>
  408a27:	bf ff ff ff ff       	mov    $0xffffffff,%edi
  408a2c:	e8 ef e2 ff ff       	callq  406d20 <exit@plt>
  }
  if (xwrite(fd, content, len) < 0){
  408a31:	48 8b 55 e8          	mov    -0x18(%rbp),%rdx
  408a35:	48 8b 4d e0          	mov    -0x20(%rbp),%rcx
  408a39:	8b 45 fc             	mov    -0x4(%rbp),%eax
  408a3c:	48 89 ce             	mov    %rcx,%rsi
  408a3f:	89 c7                	mov    %eax,%edi
  408a41:	e8 e9 4f 00 00       	callq  40da2f <xwrite>
  408a46:	85 c0                	test   %eax,%eax
  408a48:	79 28                	jns    408a72 <write_file+0x12c>
    EXIT_TRACE("xwrite content fails\n");
  408a4a:	48 8b 05 2f ff 24 00 	mov    0x24ff2f(%rip),%rax        # 658980 <stderr@@GLIBC_2.2.5>
  408a51:	ba a5 84 43 00       	mov    $0x4384a5,%edx
  408a56:	be 50 82 43 00       	mov    $0x438250,%esi
  408a5b:	48 89 c7             	mov    %rax,%rdi
  408a5e:	b8 00 00 00 00       	mov    $0x0,%eax
  408a63:	e8 28 e5 ff ff       	callq  406f90 <fprintf@plt>
  408a68:	bf ff ff ff ff       	mov    $0xffffffff,%edi
  408a6d:	e8 ae e2 ff ff       	callq  406d20 <exit@plt>
  }
  return 0;
  408a72:	b8 00 00 00 00       	mov    $0x0,%eax
}
  408a77:	c9                   	leaveq 
  408a78:	c3                   	retq   

0000000000408a79 <sub_Compress>:

int rf_win;
int rf_win_dataprocess;

void sub_Compress(send_buf_item * item) {
  408a79:	55                   	push   %rbp
  408a7a:	48 89 e5             	mov    %rsp,%rbp
  408a7d:	48 83 ec 60          	sub    $0x60,%rsp
  408a81:	48 89 7d a8          	mov    %rdi,-0x58(%rbp)
  408a85:	64 48 8b 04 25 28 00 	mov    %fs:0x28,%rax
  408a8c:	00 00 
  408a8e:	48 89 45 f8          	mov    %rax,-0x8(%rbp)
  408a92:	31 c0                	xor    %eax,%eax
    send_body * body = (send_body*)item->str;
  408a94:	48 8b 45 a8          	mov    -0x58(%rbp),%rax
  408a98:	48 8b 40 08          	mov    0x8(%rax),%rax
  408a9c:	48 89 45 c0          	mov    %rax,-0x40(%rbp)
    u_long len;
    byte * pstr = NULL;
  408aa0:	48 c7 45 c8 00 00 00 	movq   $0x0,-0x38(%rbp)
  408aa7:	00 

    //compress the item
    if (compress_way == COMPRESS_GZIP) {
  408aa8:	8b 05 1a 1f 25 01    	mov    0x1251f1a(%rip),%eax        # 165a9c8 <compress_way>
  408aae:	85 c0                	test   %eax,%eax
  408ab0:	0f 85 6f 02 00 00    	jne    408d25 <sub_Compress+0x2ac>
      unsigned long len_32;
      len = body->len + (body->len >> 12) + (body->len >> 14) + 11;
  408ab6:	48 8b 45 c0          	mov    -0x40(%rbp),%rax
  408aba:	48 8b 50 10          	mov    0x10(%rax),%rdx
  408abe:	48 8b 45 c0          	mov    -0x40(%rbp),%rax
  408ac2:	48 8b 40 10          	mov    0x10(%rax),%rax
  408ac6:	48 c1 e8 0c          	shr    $0xc,%rax
  408aca:	48 01 c2             	add    %rax,%rdx
  408acd:	48 8b 45 c0          	mov    -0x40(%rbp),%rax
  408ad1:	48 8b 40 10          	mov    0x10(%rax),%rax
  408ad5:	48 c1 e8 0e          	shr    $0xe,%rax
  408ad9:	48 01 d0             	add    %rdx,%rax
  408adc:	48 83 c0 0b          	add    $0xb,%rax
  408ae0:	48 89 45 d0          	mov    %rax,-0x30(%rbp)
      if(len >> 32) {
  408ae4:	48 8b 45 d0          	mov    -0x30(%rbp),%rax
  408ae8:	48 c1 e8 20          	shr    $0x20,%rax
  408aec:	48 85 c0             	test   %rax,%rax
  408aef:	74 32                	je     408b23 <sub_Compress+0xaa>
        perror("compress");
  408af1:	bf 6b 82 43 00       	mov    $0x43826b,%edi
  408af6:	e8 85 e4 ff ff       	callq  406f80 <perror@plt>
        EXIT_TRACE("compress() failed\n");
  408afb:	48 8b 05 7e fe 24 00 	mov    0x24fe7e(%rip),%rax        # 658980 <stderr@@GLIBC_2.2.5>
  408b02:	ba b0 84 43 00       	mov    $0x4384b0,%edx
  408b07:	be 74 82 43 00       	mov    $0x438274,%esi
  408b0c:	48 89 c7             	mov    %rax,%rdi
  408b0f:	b8 00 00 00 00       	mov    $0x0,%eax
  408b14:	e8 77 e4 ff ff       	callq  406f90 <fprintf@plt>
  408b19:	bf ff ff ff ff       	mov    $0xffffffff,%edi
  408b1e:	e8 fd e1 ff ff       	callq  406d20 <exit@plt>
      }
      len_32 = len & 0xFFFFFFFF;
  408b23:	48 8b 45 d0          	mov    -0x30(%rbp),%rax
  408b27:	89 c0                	mov    %eax,%eax
  408b29:	48 89 45 b8          	mov    %rax,-0x48(%rbp)
      pstr = (byte *)malloc(len);
  408b2d:	48 8b 45 d0          	mov    -0x30(%rbp),%rax
  408b31:	48 89 c7             	mov    %rax,%rdi
  408b34:	e8 17 e2 ff ff       	callq  406d50 <malloc@plt>
  408b39:	48 89 45 c8          	mov    %rax,-0x38(%rbp)
      if(pstr == NULL) {
  408b3d:	48 83 7d c8 00       	cmpq   $0x0,-0x38(%rbp)
  408b42:	75 28                	jne    408b6c <sub_Compress+0xf3>
        EXIT_TRACE("Memory allocation failed.\n");
  408b44:	48 8b 05 35 fe 24 00 	mov    0x24fe35(%rip),%rax        # 658980 <stderr@@GLIBC_2.2.5>
  408b4b:	ba b0 84 43 00       	mov    $0x4384b0,%edx
  408b50:	be 90 82 43 00       	mov    $0x438290,%esi
  408b55:	48 89 c7             	mov    %rax,%rdi
  408b58:	b8 00 00 00 00       	mov    $0x0,%eax
  408b5d:	e8 2e e4 ff ff       	callq  406f90 <fprintf@plt>
  408b62:	bf ff ff ff ff       	mov    $0xffffffff,%edi
  408b67:	e8 b4 e1 ff ff       	callq  406d20 <exit@plt>
      }
      /* compress the block */
      if (compress(pstr, &len_32, item->content, body->len) != Z_OK) {
  408b6c:	48 8b 45 c0          	mov    -0x40(%rbp),%rax
  408b70:	48 8b 48 10          	mov    0x10(%rax),%rcx
  408b74:	48 8b 45 a8          	mov    -0x58(%rbp),%rax
  408b78:	48 8b 50 10          	mov    0x10(%rax),%rdx
  408b7c:	48 8d 75 b8          	lea    -0x48(%rbp),%rsi
  408b80:	48 8b 45 c8          	mov    -0x38(%rbp),%rax
  408b84:	48 89 c7             	mov    %rax,%rdi
  408b87:	e8 44 53 00 00       	callq  40ded0 <compress>
  408b8c:	85 c0                	test   %eax,%eax
  408b8e:	74 32                	je     408bc2 <sub_Compress+0x149>
        perror("compress");
  408b90:	bf 6b 82 43 00       	mov    $0x43826b,%edi
  408b95:	e8 e6 e3 ff ff       	callq  406f80 <perror@plt>
        EXIT_TRACE("compress() failed\n");
  408b9a:	48 8b 05 df fd 24 00 	mov    0x24fddf(%rip),%rax        # 658980 <stderr@@GLIBC_2.2.5>
  408ba1:	ba b0 84 43 00       	mov    $0x4384b0,%edx
  408ba6:	be 74 82 43 00       	mov    $0x438274,%esi
  408bab:	48 89 c7             	mov    %rax,%rdi
  408bae:	b8 00 00 00 00       	mov    $0x0,%eax
  408bb3:	e8 d8 e3 ff ff       	callq  406f90 <fprintf@plt>
  408bb8:	bf ff ff ff ff       	mov    $0xffffffff,%edi
  408bbd:	e8 5e e1 ff ff       	callq  406d20 <exit@plt>
        }
      len = len_32;
  408bc2:	48 8b 45 b8          	mov    -0x48(%rbp),%rax
  408bc6:	48 89 45 d0          	mov    %rax,-0x30(%rbp)

      u_char * key = (u_char *)malloc(SHA1_LEN);
  408bca:	bf 14 00 00 00       	mov    $0x14,%edi
  408bcf:	e8 7c e1 ff ff       	callq  406d50 <malloc@plt>
  408bd4:	48 89 45 d8          	mov    %rax,-0x28(%rbp)
      if(key == NULL) {
  408bd8:	48 83 7d d8 00       	cmpq   $0x0,-0x28(%rbp)
  408bdd:	75 28                	jne    408c07 <sub_Compress+0x18e>
        EXIT_TRACE("Memory allocation failed.\n");
  408bdf:	48 8b 05 9a fd 24 00 	mov    0x24fd9a(%rip),%rax        # 658980 <stderr@@GLIBC_2.2.5>
  408be6:	ba b0 84 43 00       	mov    $0x4384b0,%edx
  408beb:	be 90 82 43 00       	mov    $0x438290,%esi
  408bf0:	48 89 c7             	mov    %rax,%rdi
  408bf3:	b8 00 00 00 00       	mov    $0x0,%eax
  408bf8:	e8 93 e3 ff ff       	callq  406f90 <fprintf@plt>
  408bfd:	bf ff ff ff ff       	mov    $0xffffffff,%edi
  408c02:	e8 19 e1 ff ff       	callq  406d20 <exit@plt>
      }
	  //fprintf(stderr, "process %d : allocated key %p\n", getpid(), key);
      memcpy(key, item->sha1, sizeof(u_char)*SHA1_LEN);
  408c07:	48 8b 45 a8          	mov    -0x58(%rbp),%rax
  408c0b:	48 8b 48 18          	mov    0x18(%rax),%rcx
  408c0f:	48 8b 45 d8          	mov    -0x28(%rbp),%rax
  408c13:	ba 14 00 00 00       	mov    $0x14,%edx
  408c18:	48 89 ce             	mov    %rcx,%rsi
  408c1b:	48 89 c7             	mov    %rax,%rdi
  408c1e:	e8 cd e3 ff ff       	callq  406ff0 <memcpy@plt>
      //Calc_SHA1Sig(item->content, body->len, key);
      struct hash_entry * entry;
      /* search the cache */
#ifdef PARALLEL
      pthread_mutex_t *ht_lock = hashtable_getlock(cache, (void *)key);
  408c23:	48 8b 05 96 1d 25 01 	mov    0x1251d96(%rip),%rax        # 165a9c0 <cache>
  408c2a:	48 8b 55 d8          	mov    -0x28(%rbp),%rdx
  408c2e:	48 89 d6             	mov    %rdx,%rsi
  408c31:	48 89 c7             	mov    %rax,%rdi
  408c34:	e8 ef 3d 00 00       	callq  40ca28 <hashtable_getlock>
  408c39:	48 89 45 e0          	mov    %rax,-0x20(%rbp)
      pthread_mutex_lock(ht_lock);
  408c3d:	48 8b 45 e0          	mov    -0x20(%rbp),%rax
  408c41:	48 89 c7             	mov    %rax,%rdi
  408c44:	e8 37 e1 ff ff       	callq  406d80 <pthread_mutex_lock@plt>
#endif
      if ((entry = hashtable_search(cache, (void *)key)) == NULL) {
  408c49:	48 8b 05 70 1d 25 01 	mov    0x1251d70(%rip),%rax        # 165a9c0 <cache>
  408c50:	48 8b 55 d8          	mov    -0x28(%rbp),%rdx
  408c54:	48 89 d6             	mov    %rdx,%rsi
  408c57:	48 89 c7             	mov    %rax,%rdi
  408c5a:	e8 de 3e 00 00       	callq  40cb3d <hashtable_search>
  408c5f:	48 89 45 e8          	mov    %rax,-0x18(%rbp)
  408c63:	48 83 7d e8 00       	cmpq   $0x0,-0x18(%rbp)
  408c68:	75 14                	jne    408c7e <sub_Compress+0x205>
        //if cannot find the entry, error
        printf("Error: Compress hash error\n");
  408c6a:	bf b0 82 43 00       	mov    $0x4382b0,%edi
  408c6f:	e8 5c e0 ff ff       	callq  406cd0 <puts@plt>
        exit(1);
  408c74:	bf 01 00 00 00       	mov    $0x1,%edi
  408c79:	e8 a2 e0 ff ff       	callq  406d20 <exit@plt>
      } else {
        //if cache hit, put the compressed data in the hash
        //There is a memory leak here. 
        //free(item->sha1);
        item->sha1 = NULL;
  408c7e:	48 8b 45 a8          	mov    -0x58(%rbp),%rax
  408c82:	48 c7 40 18 00 00 00 	movq   $0x0,0x18(%rax)
  408c89:	00 
        struct pContent * value = ((struct pContent *)entry->v);
  408c8a:	48 8b 45 e8          	mov    -0x18(%rbp),%rax
  408c8e:	48 8b 40 08          	mov    0x8(%rax),%rax
  408c92:	48 89 45 f0          	mov    %rax,-0x10(%rbp)
        value->len = len;
  408c96:	48 8b 45 f0          	mov    -0x10(%rbp),%rax
  408c9a:	48 8b 55 d0          	mov    -0x30(%rbp),%rdx
  408c9e:	48 89 10             	mov    %rdx,(%rax)
        value->content = pstr;
  408ca1:	48 8b 45 f0          	mov    -0x10(%rbp),%rax
  408ca5:	48 8b 55 c8          	mov    -0x38(%rbp),%rdx
  408ca9:	48 89 50 08          	mov    %rdx,0x8(%rax)
        value->tag = TAG_DATAREADY;
  408cad:	48 8b 45 f0          	mov    -0x10(%rbp),%rax
  408cb1:	c6 40 14 01          	movb   $0x1,0x14(%rax)

        hashtable_change(entry, (void *)value);
  408cb5:	48 8b 55 f0          	mov    -0x10(%rbp),%rdx
  408cb9:	48 8b 45 e8          	mov    -0x18(%rbp),%rax
  408cbd:	48 89 d6             	mov    %rdx,%rsi
  408cc0:	48 89 c7             	mov    %rax,%rdi
  408cc3:	e8 16 3f 00 00       	callq  40cbde <hashtable_change>
#ifdef PARALLEL
        pthread_cond_signal(&value->empty);
  408cc8:	48 8b 45 f0          	mov    -0x10(%rbp),%rax
  408ccc:	48 83 c0 18          	add    $0x18,%rax
  408cd0:	48 89 c7             	mov    %rax,%rdi
  408cd3:	e8 18 e0 ff ff       	callq  406cf0 <pthread_cond_signal@plt>
#endif
      }

#ifdef PARALLEL
    pthread_mutex_unlock(ht_lock);
  408cd8:	48 8b 45 e0          	mov    -0x20(%rbp),%rax
  408cdc:	48 89 c7             	mov    %rax,%rdi
  408cdf:	e8 5c e2 ff ff       	callq  406f40 <pthread_mutex_unlock@plt>
#endif

      body->len = SHA1_LEN;
  408ce4:	48 8b 45 c0          	mov    -0x40(%rbp),%rax
  408ce8:	48 c7 40 10 14 00 00 	movq   $0x14,0x10(%rax)
  408cef:	00 
      MEM_FREE(item->content);
  408cf0:	48 8b 45 a8          	mov    -0x58(%rbp),%rax
  408cf4:	48 8b 40 10          	mov    0x10(%rax),%rax
  408cf8:	48 85 c0             	test   %rax,%rax
  408cfb:	74 1c                	je     408d19 <sub_Compress+0x2a0>
  408cfd:	48 8b 45 a8          	mov    -0x58(%rbp),%rax
  408d01:	48 8b 40 10          	mov    0x10(%rax),%rax
  408d05:	48 89 c7             	mov    %rax,%rdi
  408d08:	e8 93 e0 ff ff       	callq  406da0 <free@plt>
  408d0d:	48 8b 45 a8          	mov    -0x58(%rbp),%rax
  408d11:	48 c7 40 10 00 00 00 	movq   $0x0,0x10(%rax)
  408d18:	00 
      item->content = key;    
  408d19:	48 8b 45 a8          	mov    -0x58(%rbp),%rax
  408d1d:	48 8b 55 d8          	mov    -0x28(%rbp),%rdx
  408d21:	48 89 50 10          	mov    %rdx,0x10(%rax)
    }
    
   return;
  408d25:	90                   	nop
}
  408d26:	48 8b 45 f8          	mov    -0x8(%rbp),%rax
  408d2a:	64 48 33 04 25 28 00 	xor    %fs:0x28,%rax
  408d31:	00 00 
  408d33:	74 05                	je     408d3a <sub_Compress+0x2c1>
  408d35:	e8 86 e1 ff ff       	callq  406ec0 <__stack_chk_fail@plt>
  408d3a:	c9                   	leaveq 
  408d3b:	c3                   	retq   

0000000000408d3c <Compress>:

/*
 * Compress the chunks
 */
void *Compress(void * targs) {
  408d3c:	55                   	push   %rbp
  408d3d:	48 89 e5             	mov    %rsp,%rbp
  408d40:	48 81 ec f0 00 00 00 	sub    $0xf0,%rsp
  408d47:	48 89 bd 18 ff ff ff 	mov    %rdi,-0xe8(%rbp)
  408d4e:	64 48 8b 04 25 28 00 	mov    %fs:0x28,%rax
  408d55:	00 00 
  408d57:	48 89 45 f8          	mov    %rax,-0x8(%rbp)
  408d5b:	31 c0                	xor    %eax,%eax
  struct thread_args *args = (struct thread_args *)targs;
  408d5d:	48 8b 85 18 ff ff ff 	mov    -0xe8(%rbp),%rax
  408d64:	48 89 85 38 ff ff ff 	mov    %rax,-0xc8(%rbp)
  const int qid = args->tid / MAX_THREADS_PER_QUEUE;
  408d6b:	48 8b 85 38 ff ff ff 	mov    -0xc8(%rbp),%rax
  408d72:	8b 00                	mov    (%rax),%eax
  408d74:	8d 50 03             	lea    0x3(%rax),%edx
  408d77:	85 c0                	test   %eax,%eax
  408d79:	0f 48 c2             	cmovs  %edx,%eax
  408d7c:	c1 f8 02             	sar    $0x2,%eax
  408d7f:	89 85 30 ff ff ff    	mov    %eax,-0xd0(%rbp)
  send_buf_item * item;
  send_buf_item ** fetchbuf;

  fprintf(stderr, "%d : Compress\n", getpid()); 
  408d85:	e8 e6 df ff ff       	callq  406d70 <getpid@plt>
  408d8a:	89 c2                	mov    %eax,%edx
  408d8c:	48 8b 05 ed fb 24 00 	mov    0x24fbed(%rip),%rax        # 658980 <stderr@@GLIBC_2.2.5>
  408d93:	be cb 82 43 00       	mov    $0x4382cb,%esi
  408d98:	48 89 c7             	mov    %rax,%rdi
  408d9b:	b8 00 00 00 00       	mov    $0x0,%eax
  408da0:	e8 eb e1 ff ff       	callq  406f90 <fprintf@plt>
  fetchbuf = (send_buf_item **)malloc(sizeof(send_buf_item *)*ITEM_PER_FETCH);
  408da5:	bf a0 00 00 00       	mov    $0xa0,%edi
  408daa:	e8 a1 df ff ff       	callq  406d50 <malloc@plt>
  408daf:	48 89 85 40 ff ff ff 	mov    %rax,-0xc0(%rbp)
  if(fetchbuf == NULL) {
  408db6:	48 83 bd 40 ff ff ff 	cmpq   $0x0,-0xc0(%rbp)
  408dbd:	00 
  408dbe:	75 28                	jne    408de8 <Compress+0xac>
    EXIT_TRACE("Memory allocation failed.\n");
  408dc0:	48 8b 05 b9 fb 24 00 	mov    0x24fbb9(%rip),%rax        # 658980 <stderr@@GLIBC_2.2.5>
  408dc7:	ba bd 84 43 00       	mov    $0x4384bd,%edx
  408dcc:	be 90 82 43 00       	mov    $0x438290,%esi
  408dd1:	48 89 c7             	mov    %rax,%rdi
  408dd4:	b8 00 00 00 00       	mov    $0x0,%eax
  408dd9:	e8 b2 e1 ff ff       	callq  406f90 <fprintf@plt>
  408dde:	bf ff ff ff ff       	mov    $0xffffffff,%edi
  408de3:	e8 38 df ff ff       	callq  406d20 <exit@plt>
  }
  int fetch_count = 0, fetch_start = 0;
  408de8:	c7 85 24 ff ff ff 00 	movl   $0x0,-0xdc(%rbp)
  408def:	00 00 00 
  408df2:	c7 85 2c ff ff ff 00 	movl   $0x0,-0xd4(%rbp)
  408df9:	00 00 00 
  
  send_buf_item * tmpbuf[ITEM_PER_INSERT];
  int tmp_count = 0;  
  408dfc:	c7 85 28 ff ff ff 00 	movl   $0x0,-0xd8(%rbp)
  408e03:	00 00 00 

  while(1) {
    //get items from the queue
    if (fetch_count == fetch_start) {
  408e06:	8b 85 24 ff ff ff    	mov    -0xdc(%rbp),%eax
  408e0c:	3b 85 2c ff ff ff    	cmp    -0xd4(%rbp),%eax
  408e12:	75 5f                	jne    408e73 <Compress+0x137>
      int r = dequeue(&compress_que[qid], &fetch_count, (void **)fetchbuf);
  408e14:	48 8b 0d 65 1c e5 01 	mov    0x1e51c65(%rip),%rcx        # 225aa80 <compress_que>
  408e1b:	8b 85 30 ff ff ff    	mov    -0xd0(%rbp),%eax
  408e21:	48 63 d0             	movslq %eax,%rdx
  408e24:	48 89 d0             	mov    %rdx,%rax
  408e27:	48 c1 e0 02          	shl    $0x2,%rax
  408e2b:	48 01 d0             	add    %rdx,%rax
  408e2e:	48 c1 e0 02          	shl    $0x2,%rax
  408e32:	48 01 d0             	add    %rdx,%rax
  408e35:	48 c1 e0 03          	shl    $0x3,%rax
  408e39:	48 01 c1             	add    %rax,%rcx
  408e3c:	48 8b 95 40 ff ff ff 	mov    -0xc0(%rbp),%rdx
  408e43:	48 8d 85 24 ff ff ff 	lea    -0xdc(%rbp),%rax
  408e4a:	48 89 c6             	mov    %rax,%rsi
  408e4d:	48 89 cf             	mov    %rcx,%rdi
  408e50:	e8 0d 41 00 00       	callq  40cf62 <dequeue>
  408e55:	89 85 34 ff ff ff    	mov    %eax,-0xcc(%rbp)
      if (r < 0) break;
  408e5b:	83 bd 34 ff ff ff 00 	cmpl   $0x0,-0xcc(%rbp)
  408e62:	79 05                	jns    408e69 <Compress+0x12d>
  408e64:	e9 ca 00 00 00       	jmpq   408f33 <Compress+0x1f7>

      fetch_start = 0;
  408e69:	c7 85 2c ff ff ff 00 	movl   $0x0,-0xd4(%rbp)
  408e70:	00 00 00 
    }
    
    //fetch one item
    item = fetchbuf[fetch_start];
  408e73:	8b 85 2c ff ff ff    	mov    -0xd4(%rbp),%eax
  408e79:	48 98                	cltq   
  408e7b:	48 8d 14 c5 00 00 00 	lea    0x0(,%rax,8),%rdx
  408e82:	00 
  408e83:	48 8b 85 40 ff ff ff 	mov    -0xc0(%rbp),%rax
  408e8a:	48 01 d0             	add    %rdx,%rax
  408e8d:	48 8b 00             	mov    (%rax),%rax
  408e90:	48 89 85 48 ff ff ff 	mov    %rax,-0xb8(%rbp)
    fetch_start ++;
  408e97:	83 85 2c ff ff ff 01 	addl   $0x1,-0xd4(%rbp)

    if (item == NULL) break;
  408e9e:	48 83 bd 48 ff ff ff 	cmpq   $0x0,-0xb8(%rbp)
  408ea5:	00 
  408ea6:	75 05                	jne    408ead <Compress+0x171>
  408ea8:	e9 86 00 00 00       	jmpq   408f33 <Compress+0x1f7>

    sub_Compress(item);
  408ead:	48 8b 85 48 ff ff ff 	mov    -0xb8(%rbp),%rax
  408eb4:	48 89 c7             	mov    %rax,%rdi
  408eb7:	e8 bd fb ff ff       	callq  408a79 <sub_Compress>

    tmpbuf[tmp_count] = item;
  408ebc:	8b 85 28 ff ff ff    	mov    -0xd8(%rbp),%eax
  408ec2:	48 98                	cltq   
  408ec4:	48 8b 95 48 ff ff ff 	mov    -0xb8(%rbp),%rdx
  408ecb:	48 89 94 c5 50 ff ff 	mov    %rdx,-0xb0(%rbp,%rax,8)
  408ed2:	ff 
    tmp_count ++;
  408ed3:	8b 85 28 ff ff ff    	mov    -0xd8(%rbp),%eax
  408ed9:	83 c0 01             	add    $0x1,%eax
  408edc:	89 85 28 ff ff ff    	mov    %eax,-0xd8(%rbp)
    
    //put the item in the next queue for the write thread
    if (tmp_count >= ITEM_PER_INSERT) {      
  408ee2:	8b 85 28 ff ff ff    	mov    -0xd8(%rbp),%eax
  408ee8:	83 f8 13             	cmp    $0x13,%eax
  408eeb:	7e 41                	jle    408f2e <Compress+0x1f2>
      enqueue(&send_que[qid], &tmp_count, (void **)tmpbuf);
  408eed:	48 8b 0d 5c 1b a5 01 	mov    0x1a51b5c(%rip),%rcx        # 1e5aa50 <send_que>
  408ef4:	8b 85 30 ff ff ff    	mov    -0xd0(%rbp),%eax
  408efa:	48 63 d0             	movslq %eax,%rdx
  408efd:	48 89 d0             	mov    %rdx,%rax
  408f00:	48 c1 e0 02          	shl    $0x2,%rax
  408f04:	48 01 d0             	add    %rdx,%rax
  408f07:	48 c1 e0 02          	shl    $0x2,%rax
  408f0b:	48 01 d0             	add    %rdx,%rax
  408f0e:	48 c1 e0 03          	shl    $0x3,%rax
  408f12:	48 01 c1             	add    %rax,%rcx
  408f15:	48 8d 95 50 ff ff ff 	lea    -0xb0(%rbp),%rdx
  408f1c:	48 8d 85 28 ff ff ff 	lea    -0xd8(%rbp),%rax
  408f23:	48 89 c6             	mov    %rax,%rsi
  408f26:	48 89 cf             	mov    %rcx,%rdi
  408f29:	e8 be 41 00 00       	callq  40d0ec <enqueue>
    }
  }
  408f2e:	e9 d3 fe ff ff       	jmpq   408e06 <Compress+0xca>
 
  if (tmp_count > 0) {
  408f33:	8b 85 28 ff ff ff    	mov    -0xd8(%rbp),%eax
  408f39:	85 c0                	test   %eax,%eax
  408f3b:	7e 41                	jle    408f7e <Compress+0x242>
    enqueue(&send_que[qid], &tmp_count, (void **)tmpbuf);
  408f3d:	48 8b 0d 0c 1b a5 01 	mov    0x1a51b0c(%rip),%rcx        # 1e5aa50 <send_que>
  408f44:	8b 85 30 ff ff ff    	mov    -0xd0(%rbp),%eax
  408f4a:	48 63 d0             	movslq %eax,%rdx
  408f4d:	48 89 d0             	mov    %rdx,%rax
  408f50:	48 c1 e0 02          	shl    $0x2,%rax
  408f54:	48 01 d0             	add    %rdx,%rax
  408f57:	48 c1 e0 02          	shl    $0x2,%rax
  408f5b:	48 01 d0             	add    %rdx,%rax
  408f5e:	48 c1 e0 03          	shl    $0x3,%rax
  408f62:	48 01 c1             	add    %rax,%rcx
  408f65:	48 8d 95 50 ff ff ff 	lea    -0xb0(%rbp),%rdx
  408f6c:	48 8d 85 28 ff ff ff 	lea    -0xd8(%rbp),%rax
  408f73:	48 89 c6             	mov    %rax,%rsi
  408f76:	48 89 cf             	mov    %rcx,%rdi
  408f79:	e8 6e 41 00 00       	callq  40d0ec <enqueue>
  
  //free(fetchbuf);


  //count the number of compress threads that have finished
  queue_signal_terminate(&send_que[qid]);
  408f7e:	48 8b 0d cb 1a a5 01 	mov    0x1a51acb(%rip),%rcx        # 1e5aa50 <send_que>
  408f85:	8b 85 30 ff ff ff    	mov    -0xd0(%rbp),%eax
  408f8b:	48 63 d0             	movslq %eax,%rdx
  408f8e:	48 89 d0             	mov    %rdx,%rax
  408f91:	48 c1 e0 02          	shl    $0x2,%rax
  408f95:	48 01 d0             	add    %rdx,%rax
  408f98:	48 c1 e0 02          	shl    $0x2,%rax
  408f9c:	48 01 d0             	add    %rdx,%rax
  408f9f:	48 c1 e0 03          	shl    $0x3,%rax
  408fa3:	48 01 c8             	add    %rcx,%rax
  408fa6:	48 89 c7             	mov    %rax,%rdi
  408fa9:	e8 65 3f 00 00       	callq  40cf13 <queue_signal_terminate>
  return NULL;
  408fae:	b8 00 00 00 00       	mov    $0x0,%eax
}
  408fb3:	48 8b 75 f8          	mov    -0x8(%rbp),%rsi
  408fb7:	64 48 33 34 25 28 00 	xor    %fs:0x28,%rsi
  408fbe:	00 00 
  408fc0:	74 05                	je     408fc7 <Compress+0x28b>
  408fc2:	e8 f9 de ff ff       	callq  406ec0 <__stack_chk_fail@plt>
  408fc7:	c9                   	leaveq 
  408fc8:	c3                   	retq   

0000000000408fc9 <sub_ChunkProcess>:
// Then it will search the hash table to find whether this chunk has been
// in process. If it is not in hash table, put it in the hashtable and the queue for
// the compress thread.
// If current chunk has already in the hash table, put the item into the queue for the write thread.
// But before that, we should know that there is one more count, so we modify value->count and put it back?
send_buf_item * sub_ChunkProcess(data_chunk chunk) {
  408fc9:	55                   	push   %rbp
  408fca:	48 89 e5             	mov    %rsp,%rbp
  408fcd:	48 83 ec 40          	sub    $0x40,%rsp
  send_buf_item * item;
  send_body * body = NULL;
  408fd1:	48 c7 45 d0 00 00 00 	movq   $0x0,-0x30(%rbp)
  408fd8:	00 
  u_char * key;

  key = (u_char *)malloc(SHA1_LEN);
  408fd9:	bf 14 00 00 00       	mov    $0x14,%edi
  408fde:	e8 6d dd ff ff       	callq  406d50 <malloc@plt>
  408fe3:	48 89 45 d8          	mov    %rax,-0x28(%rbp)
  if(key == NULL) {
  408fe7:	48 83 7d d8 00       	cmpq   $0x0,-0x28(%rbp)
  408fec:	75 28                	jne    409016 <sub_ChunkProcess+0x4d>
    EXIT_TRACE("Memory allocation failed.\n");
  408fee:	48 8b 05 8b f9 24 00 	mov    0x24f98b(%rip),%rax        # 658980 <stderr@@GLIBC_2.2.5>
  408ff5:	ba d0 84 43 00       	mov    $0x4384d0,%edx
  408ffa:	be 90 82 43 00       	mov    $0x438290,%esi
  408fff:	48 89 c7             	mov    %rax,%rdi
  409002:	b8 00 00 00 00       	mov    $0x0,%eax
  409007:	e8 84 df ff ff       	callq  406f90 <fprintf@plt>
  40900c:	bf ff ff ff ff       	mov    $0xffffffff,%edi
  409011:	e8 0a dd ff ff       	callq  406d20 <exit@plt>
  }
  
  Calc_SHA1Sig(chunk.start, chunk.len, key);
  409016:	48 8b 45 18          	mov    0x18(%rbp),%rax
  40901a:	89 c1                	mov    %eax,%ecx
  40901c:	48 8b 45 10          	mov    0x10(%rbp),%rax
  409020:	48 8b 55 d8          	mov    -0x28(%rbp),%rdx
  409024:	89 ce                	mov    %ecx,%esi
  409026:	48 89 c7             	mov    %rax,%rdi
  409029:	e8 15 49 00 00       	callq  40d943 <Calc_SHA1Sig>


  struct hash_entry * entry;
  /* search the cache */
#ifdef PARALLEL
  pthread_mutex_t *ht_lock = hashtable_getlock(cache, (void *)key);
  40902e:	48 8b 05 8b 19 25 01 	mov    0x125198b(%rip),%rax        # 165a9c0 <cache>
  409035:	48 8b 55 d8          	mov    -0x28(%rbp),%rdx
  409039:	48 89 d6             	mov    %rdx,%rsi
  40903c:	48 89 c7             	mov    %rax,%rdi
  40903f:	e8 e4 39 00 00       	callq  40ca28 <hashtable_getlock>
  409044:	48 89 45 e0          	mov    %rax,-0x20(%rbp)
  pthread_mutex_lock(ht_lock);
  409048:	48 8b 45 e0          	mov    -0x20(%rbp),%rax
  40904c:	48 89 c7             	mov    %rax,%rdi
  40904f:	e8 2c dd ff ff       	callq  406d80 <pthread_mutex_lock@plt>
#endif
  if ((entry = hashtable_search(cache, (void *)key)) == NULL) {
  409054:	48 8b 05 65 19 25 01 	mov    0x1251965(%rip),%rax        # 165a9c0 <cache>
  40905b:	48 8b 55 d8          	mov    -0x28(%rbp),%rdx
  40905f:	48 89 d6             	mov    %rdx,%rsi
  409062:	48 89 c7             	mov    %rax,%rdi
  409065:	e8 d3 3a 00 00       	callq  40cb3d <hashtable_search>
  40906a:	48 89 45 e8          	mov    %rax,-0x18(%rbp)
  40906e:	48 83 7d e8 00       	cmpq   $0x0,-0x18(%rbp)
  409073:	0f 85 49 02 00 00    	jne    4092c2 <sub_ChunkProcess+0x2f9>
    // cache miss: put it in the hashtable and the queue for the compress thread
    struct pContent * value;

    value = (struct pContent *)malloc(sizeof(struct pContent));
  409079:	bf 48 00 00 00       	mov    $0x48,%edi
  40907e:	e8 cd dc ff ff       	callq  406d50 <malloc@plt>
  409083:	48 89 45 f0          	mov    %rax,-0x10(%rbp)
    if(value == NULL) {
  409087:	48 83 7d f0 00       	cmpq   $0x0,-0x10(%rbp)
  40908c:	75 28                	jne    4090b6 <sub_ChunkProcess+0xed>
      EXIT_TRACE("Memory allocation failed.\n");
  40908e:	48 8b 05 eb f8 24 00 	mov    0x24f8eb(%rip),%rax        # 658980 <stderr@@GLIBC_2.2.5>
  409095:	ba d0 84 43 00       	mov    $0x4384d0,%edx
  40909a:	be 90 82 43 00       	mov    $0x438290,%esi
  40909f:	48 89 c7             	mov    %rax,%rdi
  4090a2:	b8 00 00 00 00       	mov    $0x0,%eax
  4090a7:	e8 e4 de ff ff       	callq  406f90 <fprintf@plt>
  4090ac:	bf ff ff ff ff       	mov    $0xffffffff,%edi
  4090b1:	e8 6a dc ff ff       	callq  406d20 <exit@plt>
    }
    value->len = 0;
  4090b6:	48 8b 45 f0          	mov    -0x10(%rbp),%rax
  4090ba:	48 c7 00 00 00 00 00 	movq   $0x0,(%rax)
    value->count = 1;
  4090c1:	48 8b 45 f0          	mov    -0x10(%rbp),%rax
  4090c5:	c7 40 10 01 00 00 00 	movl   $0x1,0x10(%rax)
    value->content = NULL;
  4090cc:	48 8b 45 f0          	mov    -0x10(%rbp),%rax
  4090d0:	48 c7 40 08 00 00 00 	movq   $0x0,0x8(%rax)
  4090d7:	00 
    value->tag = TAG_OCCUPY;
  4090d8:	48 8b 45 f0          	mov    -0x10(%rbp),%rax
  4090dc:	c6 40 14 00          	movb   $0x0,0x14(%rax)
    if (hashtable_insert(cache, key, value) == 0) {
  4090e0:	48 8b 05 d9 18 25 01 	mov    0x12518d9(%rip),%rax        # 165a9c0 <cache>
  4090e7:	48 8b 55 f0          	mov    -0x10(%rbp),%rdx
  4090eb:	48 8b 4d d8          	mov    -0x28(%rbp),%rcx
  4090ef:	48 89 ce             	mov    %rcx,%rsi
  4090f2:	48 89 c7             	mov    %rax,%rdi
  4090f5:	e8 87 39 00 00       	callq  40ca81 <hashtable_insert>
  4090fa:	85 c0                	test   %eax,%eax
  4090fc:	75 28                	jne    409126 <sub_ChunkProcess+0x15d>
      EXIT_TRACE("hashtable_insert failed");
  4090fe:	48 8b 05 7b f8 24 00 	mov    0x24f87b(%rip),%rax        # 658980 <stderr@@GLIBC_2.2.5>
  409105:	ba d0 84 43 00       	mov    $0x4384d0,%edx
  40910a:	be da 82 43 00       	mov    $0x4382da,%esi
  40910f:	48 89 c7             	mov    %rax,%rdi
  409112:	b8 00 00 00 00       	mov    $0x0,%eax
  409117:	e8 74 de ff ff       	callq  406f90 <fprintf@plt>
  40911c:	bf ff ff ff ff       	mov    $0xffffffff,%edi
  409121:	e8 fa db ff ff       	callq  406d20 <exit@plt>
    }
//	fprintf(stderr, "%d: insert key %p\n", getpid(), key);
#ifdef PARALLEL
    pthread_cond_init(&value->empty, NULL);
  409126:	48 8b 45 f0          	mov    -0x10(%rbp),%rax
  40912a:	48 83 c0 18          	add    $0x18,%rax
  40912e:	be 00 00 00 00       	mov    $0x0,%esi
  409133:	48 89 c7             	mov    %rax,%rdi
  409136:	e8 a5 dc ff ff       	callq  406de0 <pthread_cond_init@plt>
#endif
      
    item = (send_buf_item *)malloc(sizeof(send_buf_item));
  40913b:	bf 20 00 00 00       	mov    $0x20,%edi
  409140:	e8 0b dc ff ff       	callq  406d50 <malloc@plt>
  409145:	48 89 45 c8          	mov    %rax,-0x38(%rbp)
    body = (send_body *)malloc(sizeof(send_body));
  409149:	bf 18 00 00 00       	mov    $0x18,%edi
  40914e:	e8 fd db ff ff       	callq  406d50 <malloc@plt>
  409153:	48 89 45 d0          	mov    %rax,-0x30(%rbp)
    if(item == NULL || body == NULL) {
  409157:	48 83 7d c8 00       	cmpq   $0x0,-0x38(%rbp)
  40915c:	74 07                	je     409165 <sub_ChunkProcess+0x19c>
  40915e:	48 83 7d d0 00       	cmpq   $0x0,-0x30(%rbp)
  409163:	75 28                	jne    40918d <sub_ChunkProcess+0x1c4>
      EXIT_TRACE("Memory allocation failed.\n");
  409165:	48 8b 05 14 f8 24 00 	mov    0x24f814(%rip),%rax        # 658980 <stderr@@GLIBC_2.2.5>
  40916c:	ba d0 84 43 00       	mov    $0x4384d0,%edx
  409171:	be 90 82 43 00       	mov    $0x438290,%esi
  409176:	48 89 c7             	mov    %rax,%rdi
  409179:	b8 00 00 00 00       	mov    $0x0,%eax
  40917e:	e8 0d de ff ff       	callq  406f90 <fprintf@plt>
  409183:	bf ff ff ff ff       	mov    $0xffffffff,%edi
  409188:	e8 93 db ff ff       	callq  406d20 <exit@plt>
    }
    body->fid = filecount;
  40918d:	8b 05 21 fb 24 00    	mov    0x24fb21(%rip),%eax        # 658cb4 <filecount>
  409193:	89 c2                	mov    %eax,%edx
  409195:	48 8b 45 d0          	mov    -0x30(%rbp),%rax
  409199:	89 10                	mov    %edx,(%rax)
    body->cid = chunk.cid;
  40919b:	8b 55 24             	mov    0x24(%rbp),%edx
  40919e:	48 8b 45 d0          	mov    -0x30(%rbp),%rax
  4091a2:	89 50 08             	mov    %edx,0x8(%rax)
    body->anchorid = chunk.anchorid;
  4091a5:	8b 55 20             	mov    0x20(%rbp),%edx
  4091a8:	48 8b 45 d0          	mov    -0x30(%rbp),%rax
  4091ac:	89 50 04             	mov    %edx,0x4(%rax)
    body->len = chunk.len;
  4091af:	48 8b 55 18          	mov    0x18(%rbp),%rdx
  4091b3:	48 8b 45 d0          	mov    -0x30(%rbp),%rax
  4091b7:	48 89 50 10          	mov    %rdx,0x10(%rax)
    item->content = (u_char * )malloc(body->len + 1);
  4091bb:	48 8b 45 d0          	mov    -0x30(%rbp),%rax
  4091bf:	48 8b 40 10          	mov    0x10(%rax),%rax
  4091c3:	48 83 c0 01          	add    $0x1,%rax
  4091c7:	48 89 c7             	mov    %rax,%rdi
  4091ca:	e8 81 db ff ff       	callq  406d50 <malloc@plt>
  4091cf:	48 89 c2             	mov    %rax,%rdx
  4091d2:	48 8b 45 c8          	mov    -0x38(%rbp),%rax
  4091d6:	48 89 50 10          	mov    %rdx,0x10(%rax)
    if(item->content == NULL) {
  4091da:	48 8b 45 c8          	mov    -0x38(%rbp),%rax
  4091de:	48 8b 40 10          	mov    0x10(%rax),%rax
  4091e2:	48 85 c0             	test   %rax,%rax
  4091e5:	75 28                	jne    40920f <sub_ChunkProcess+0x246>
      EXIT_TRACE("Memory allocation failed.\n");
  4091e7:	48 8b 05 92 f7 24 00 	mov    0x24f792(%rip),%rax        # 658980 <stderr@@GLIBC_2.2.5>
  4091ee:	ba d0 84 43 00       	mov    $0x4384d0,%edx
  4091f3:	be 90 82 43 00       	mov    $0x438290,%esi
  4091f8:	48 89 c7             	mov    %rax,%rdi
  4091fb:	b8 00 00 00 00       	mov    $0x0,%eax
  409200:	e8 8b dd ff ff       	callq  406f90 <fprintf@plt>
  409205:	bf ff ff ff ff       	mov    $0xffffffff,%edi
  40920a:	e8 11 db ff ff       	callq  406d20 <exit@plt>
    }
    memcpy(item->content, chunk.start, body->len);
  40920f:	48 8b 45 d0          	mov    -0x30(%rbp),%rax
  409213:	48 8b 50 10          	mov    0x10(%rax),%rdx
  409217:	48 8b 4d 10          	mov    0x10(%rbp),%rcx
  40921b:	48 8b 45 c8          	mov    -0x38(%rbp),%rax
  40921f:	48 8b 40 10          	mov    0x10(%rax),%rax
  409223:	48 89 ce             	mov    %rcx,%rsi
  409226:	48 89 c7             	mov    %rax,%rdi
  409229:	e8 c2 dd ff ff       	callq  406ff0 <memcpy@plt>
    item->content[body->len] = 0;
  40922e:	48 8b 45 c8          	mov    -0x38(%rbp),%rax
  409232:	48 8b 50 10          	mov    0x10(%rax),%rdx
  409236:	48 8b 45 d0          	mov    -0x30(%rbp),%rax
  40923a:	48 8b 40 10          	mov    0x10(%rax),%rax
  40923e:	48 01 d0             	add    %rdx,%rax
  409241:	c6 00 00             	movb   $0x0,(%rax)
    item->sha1 = (u_char *)malloc(SHA1_LEN);
  409244:	bf 14 00 00 00       	mov    $0x14,%edi
  409249:	e8 02 db ff ff       	callq  406d50 <malloc@plt>
  40924e:	48 89 c2             	mov    %rax,%rdx
  409251:	48 8b 45 c8          	mov    -0x38(%rbp),%rax
  409255:	48 89 50 18          	mov    %rdx,0x18(%rax)
    if(item->sha1 == NULL) {
  409259:	48 8b 45 c8          	mov    -0x38(%rbp),%rax
  40925d:	48 8b 40 18          	mov    0x18(%rax),%rax
  409261:	48 85 c0             	test   %rax,%rax
  409264:	75 28                	jne    40928e <sub_ChunkProcess+0x2c5>
      EXIT_TRACE("Memory allocation failed.\n");
  409266:	48 8b 05 13 f7 24 00 	mov    0x24f713(%rip),%rax        # 658980 <stderr@@GLIBC_2.2.5>
  40926d:	ba d0 84 43 00       	mov    $0x4384d0,%edx
  409272:	be 90 82 43 00       	mov    $0x438290,%esi
  409277:	48 89 c7             	mov    %rax,%rdi
  40927a:	b8 00 00 00 00       	mov    $0x0,%eax
  40927f:	e8 0c dd ff ff       	callq  406f90 <fprintf@plt>
  409284:	bf ff ff ff ff       	mov    $0xffffffff,%edi
  409289:	e8 92 da ff ff       	callq  406d20 <exit@plt>
    }
    memcpy(item->sha1, key, sizeof(u_char)*SHA1_LEN);
  40928e:	48 8b 45 c8          	mov    -0x38(%rbp),%rax
  409292:	48 8b 40 18          	mov    0x18(%rax),%rax
  409296:	48 8b 4d d8          	mov    -0x28(%rbp),%rcx
  40929a:	ba 14 00 00 00       	mov    $0x14,%edx
  40929f:	48 89 ce             	mov    %rcx,%rsi
  4092a2:	48 89 c7             	mov    %rax,%rdi
  4092a5:	e8 46 dd ff ff       	callq  406ff0 <memcpy@plt>

    item->type = TYPE_COMPRESS;
  4092aa:	48 8b 45 c8          	mov    -0x38(%rbp),%rax
  4092ae:	c6 00 01             	movb   $0x1,(%rax)
    // In fact, body is just one field in the item, that includes the total information.
    item->str = (u_char *)body;
  4092b1:	48 8b 45 c8          	mov    -0x38(%rbp),%rax
  4092b5:	48 8b 55 d0          	mov    -0x30(%rbp),%rdx
  4092b9:	48 89 50 08          	mov    %rdx,0x8(%rax)
  4092bd:	e9 db 00 00 00       	jmpq   40939d <sub_ChunkProcess+0x3d4>

  } else {
    // cache hit: put the item into the queue for the write thread 
    struct pContent * value = ((struct pContent *)entry->v);
  4092c2:	48 8b 45 e8          	mov    -0x18(%rbp),%rax
  4092c6:	48 8b 40 08          	mov    0x8(%rax),%rax
  4092ca:	48 89 45 f8          	mov    %rax,-0x8(%rbp)
    value->count += 1;
  4092ce:	48 8b 45 f8          	mov    -0x8(%rbp),%rax
  4092d2:	8b 40 10             	mov    0x10(%rax),%eax
  4092d5:	8d 50 01             	lea    0x1(%rax),%edx
  4092d8:	48 8b 45 f8          	mov    -0x8(%rbp),%rax
  4092dc:	89 50 10             	mov    %edx,0x10(%rax)
    // LTP, it is weird since value is pointed to v. unnecessary at all.
    hashtable_change(entry, (void *)value);
  4092df:	48 8b 55 f8          	mov    -0x8(%rbp),%rdx
  4092e3:	48 8b 45 e8          	mov    -0x18(%rbp),%rax
  4092e7:	48 89 d6             	mov    %rdx,%rsi
  4092ea:	48 89 c7             	mov    %rax,%rdi
  4092ed:	e8 ec 38 00 00       	callq  40cbde <hashtable_change>

    item = (send_buf_item *)malloc(sizeof(send_buf_item));
  4092f2:	bf 20 00 00 00       	mov    $0x20,%edi
  4092f7:	e8 54 da ff ff       	callq  406d50 <malloc@plt>
  4092fc:	48 89 45 c8          	mov    %rax,-0x38(%rbp)
    body = (send_body *)malloc(sizeof(send_body));
  409300:	bf 18 00 00 00       	mov    $0x18,%edi
  409305:	e8 46 da ff ff       	callq  406d50 <malloc@plt>
  40930a:	48 89 45 d0          	mov    %rax,-0x30(%rbp)
    if(item == NULL || body == NULL) {
  40930e:	48 83 7d c8 00       	cmpq   $0x0,-0x38(%rbp)
  409313:	74 07                	je     40931c <sub_ChunkProcess+0x353>
  409315:	48 83 7d d0 00       	cmpq   $0x0,-0x30(%rbp)
  40931a:	75 28                	jne    409344 <sub_ChunkProcess+0x37b>
      EXIT_TRACE("Memory allocation failed.\n");
  40931c:	48 8b 05 5d f6 24 00 	mov    0x24f65d(%rip),%rax        # 658980 <stderr@@GLIBC_2.2.5>
  409323:	ba d0 84 43 00       	mov    $0x4384d0,%edx
  409328:	be 90 82 43 00       	mov    $0x438290,%esi
  40932d:	48 89 c7             	mov    %rax,%rdi
  409330:	b8 00 00 00 00       	mov    $0x0,%eax
  409335:	e8 56 dc ff ff       	callq  406f90 <fprintf@plt>
  40933a:	bf ff ff ff ff       	mov    $0xffffffff,%edi
  40933f:	e8 dc d9 ff ff       	callq  406d20 <exit@plt>
    }
    body->fid = filecount;
  409344:	8b 05 6a f9 24 00    	mov    0x24f96a(%rip),%eax        # 658cb4 <filecount>
  40934a:	89 c2                	mov    %eax,%edx
  40934c:	48 8b 45 d0          	mov    -0x30(%rbp),%rax
  409350:	89 10                	mov    %edx,(%rax)
    body->cid = chunk.cid;
  409352:	8b 55 24             	mov    0x24(%rbp),%edx
  409355:	48 8b 45 d0          	mov    -0x30(%rbp),%rax
  409359:	89 50 08             	mov    %edx,0x8(%rax)
    body->anchorid = chunk.anchorid;
  40935c:	8b 55 20             	mov    0x20(%rbp),%edx
  40935f:	48 8b 45 d0          	mov    -0x30(%rbp),%rax
  409363:	89 50 04             	mov    %edx,0x4(%rax)
    body->len = SHA1_LEN;
  409366:	48 8b 45 d0          	mov    -0x30(%rbp),%rax
  40936a:	48 c7 40 10 14 00 00 	movq   $0x14,0x10(%rax)
  409371:	00 
    // What??? content is a key now but previous is the chunk itself?
    // Also, if the chunk is already met, why we still need to handle this?
    item->content = key;
  409372:	48 8b 45 c8          	mov    -0x38(%rbp),%rax
  409376:	48 8b 55 d8          	mov    -0x28(%rbp),%rdx
  40937a:	48 89 50 10          	mov    %rdx,0x10(%rax)
	//sha1 is NULL now, not the key anymore?
    item->sha1 = NULL;
  40937e:	48 8b 45 c8          	mov    -0x38(%rbp),%rax
  409382:	48 c7 40 18 00 00 00 	movq   $0x0,0x18(%rax)
  409389:	00 

    item->type = TYPE_FINGERPRINT;
  40938a:	48 8b 45 c8          	mov    -0x38(%rbp),%rax
  40938e:	c6 00 00             	movb   $0x0,(%rax)
    item->str = (u_char *)body;
  409391:	48 8b 45 c8          	mov    -0x38(%rbp),%rax
  409395:	48 8b 55 d0          	mov    -0x30(%rbp),%rdx
  409399:	48 89 50 08          	mov    %rdx,0x8(%rax)

  }

#ifdef PARALLEL
  pthread_mutex_unlock(ht_lock);
  40939d:	48 8b 45 e0          	mov    -0x20(%rbp),%rax
  4093a1:	48 89 c7             	mov    %rax,%rdi
  4093a4:	e8 97 db ff ff       	callq  406f40 <pthread_mutex_unlock@plt>
#endif

  if (chunk.start) MEM_FREE(chunk.start);
  4093a9:	48 8b 45 10          	mov    0x10(%rbp),%rax
  4093ad:	48 85 c0             	test   %rax,%rax
  4093b0:	74 1d                	je     4093cf <sub_ChunkProcess+0x406>
  4093b2:	48 8b 45 10          	mov    0x10(%rbp),%rax
  4093b6:	48 85 c0             	test   %rax,%rax
  4093b9:	74 14                	je     4093cf <sub_ChunkProcess+0x406>
  4093bb:	48 8b 45 10          	mov    0x10(%rbp),%rax
  4093bf:	48 89 c7             	mov    %rax,%rdi
  4093c2:	e8 d9 d9 ff ff       	callq  406da0 <free@plt>
  4093c7:	48 c7 45 10 00 00 00 	movq   $0x0,0x10(%rbp)
  4093ce:	00 
    
  return item;
  4093cf:	48 8b 45 c8          	mov    -0x38(%rbp),%rax
}
  4093d3:	c9                   	leaveq 
  4093d4:	c3                   	retq   

00000000004093d5 <ChunkProcess>:
 * Check whether a chunk is in the hash table or not.
 * If it is in the hash table, send only the SHA1 sum to the write thread
 * If not, send the data to the compress thread to get the output data
 */
void * 
ChunkProcess(void * targs) {
  4093d5:	55                   	push   %rbp
  4093d6:	48 89 e5             	mov    %rsp,%rbp
  4093d9:	48 81 ec 50 02 00 00 	sub    $0x250,%rsp
  4093e0:	48 89 bd b8 fd ff ff 	mov    %rdi,-0x248(%rbp)
  4093e7:	64 48 8b 04 25 28 00 	mov    %fs:0x28,%rax
  4093ee:	00 00 
  4093f0:	48 89 45 f8          	mov    %rax,-0x8(%rbp)
  4093f4:	31 c0                	xor    %eax,%eax
  struct thread_args *args = (struct thread_args *)targs;
  4093f6:	48 8b 85 b8 fd ff ff 	mov    -0x248(%rbp),%rax
  4093fd:	48 89 85 e0 fd ff ff 	mov    %rax,-0x220(%rbp)
  const int qid = args->tid / MAX_THREADS_PER_QUEUE;
  409404:	48 8b 85 e0 fd ff ff 	mov    -0x220(%rbp),%rax
  40940b:	8b 00                	mov    (%rax),%eax
  40940d:	8d 50 03             	lea    0x3(%rax),%edx
  409410:	85 c0                	test   %eax,%eax
  409412:	0f 48 c2             	cmovs  %edx,%eax
  409415:	c1 f8 02             	sar    $0x2,%eax
  409418:	89 85 d8 fd ff ff    	mov    %eax,-0x228(%rbp)
  data_chunk chunk;
  send_buf_item * item;
  
  fprintf(stderr, "%d : ChunkProcess\n", getpid()); 
  40941e:	e8 4d d9 ff ff       	callq  406d70 <getpid@plt>
  409423:	89 c2                	mov    %eax,%edx
  409425:	48 8b 05 54 f5 24 00 	mov    0x24f554(%rip),%rax        # 658980 <stderr@@GLIBC_2.2.5>
  40942c:	be f7 82 43 00       	mov    $0x4382f7,%esi
  409431:	48 89 c7             	mov    %rax,%rdi
  409434:	b8 00 00 00 00       	mov    $0x0,%eax
  409439:	e8 52 db ff ff       	callq  406f90 <fprintf@plt>

  data_chunk * fetchbuf[CHUNK_ANCHOR_PER_FETCH];
  int fetch_count = 0, fetch_start = 0;
  40943e:	c7 85 c8 fd ff ff 00 	movl   $0x0,-0x238(%rbp)
  409445:	00 00 00 
  409448:	c7 85 d4 fd ff ff 00 	movl   $0x0,-0x22c(%rbp)
  40944f:	00 00 00 
  
  send_buf_item * tmpbuf[ITEM_PER_INSERT];
  int tmp_count = 0;
  409452:	c7 85 cc fd ff ff 00 	movl   $0x0,-0x234(%rbp)
  409459:	00 00 00 
  send_buf_item * tmpsendbuf[ITEM_PER_INSERT];
  int tmpsend_count = 0;
  40945c:	c7 85 d0 fd ff ff 00 	movl   $0x0,-0x230(%rbp)
  409463:	00 00 00 

  // The input for this threads just come from the previous stage only. 
  // Each thread just need to remember its qid only.
  while (1) {
    //if no items existing, fetch a group of items from the pipeline
    if (fetch_count == fetch_start) {
  409466:	8b 85 c8 fd ff ff    	mov    -0x238(%rbp),%eax
  40946c:	3b 85 d4 fd ff ff    	cmp    -0x22c(%rbp),%eax
  409472:	75 5f                	jne    4094d3 <ChunkProcess+0xfe>
	  //dequeue will cause current thread to hang on the queue. 
      // When r < 0, means no data anymore. Current thread can exit now.
      int r = dequeue(&chunk_que[qid], &fetch_count, (void **)fetchbuf);
  409474:	48 8b 0d 15 16 e5 01 	mov    0x1e51615(%rip),%rcx        # 225aa90 <chunk_que>
  40947b:	8b 85 d8 fd ff ff    	mov    -0x228(%rbp),%eax
  409481:	48 63 d0             	movslq %eax,%rdx
  409484:	48 89 d0             	mov    %rdx,%rax
  409487:	48 c1 e0 02          	shl    $0x2,%rax
  40948b:	48 01 d0             	add    %rdx,%rax
  40948e:	48 c1 e0 02          	shl    $0x2,%rax
  409492:	48 01 d0             	add    %rdx,%rax
  409495:	48 c1 e0 03          	shl    $0x3,%rax
  409499:	48 01 c1             	add    %rax,%rcx
  40949c:	48 8d 95 10 fe ff ff 	lea    -0x1f0(%rbp),%rdx
  4094a3:	48 8d 85 c8 fd ff ff 	lea    -0x238(%rbp),%rax
  4094aa:	48 89 c6             	mov    %rax,%rsi
  4094ad:	48 89 cf             	mov    %rcx,%rdi
  4094b0:	e8 ad 3a 00 00       	callq  40cf62 <dequeue>
  4094b5:	89 85 dc fd ff ff    	mov    %eax,-0x224(%rbp)
      if (r < 0) break;
  4094bb:	83 bd dc fd ff ff 00 	cmpl   $0x0,-0x224(%rbp)
  4094c2:	79 05                	jns    4094c9 <ChunkProcess+0xf4>
  4094c4:	e9 af 01 00 00       	jmpq   409678 <ChunkProcess+0x2a3>

      fetch_start = 0;
  4094c9:	c7 85 d4 fd ff ff 00 	movl   $0x0,-0x22c(%rbp)
  4094d0:	00 00 00 
    }
    
    //get one item
	//fprintf(stderr, "%d: %d item %p\n", getpid(), args->tid, chunk.start);
    chunk.start = fetchbuf[fetch_start]->start;
  4094d3:	8b 85 d4 fd ff ff    	mov    -0x22c(%rbp),%eax
  4094d9:	48 98                	cltq   
  4094db:	48 8b 84 c5 10 fe ff 	mov    -0x1f0(%rbp,%rax,8),%rax
  4094e2:	ff 
  4094e3:	48 8b 00             	mov    (%rax),%rax
  4094e6:	48 89 85 f0 fd ff ff 	mov    %rax,-0x210(%rbp)
    chunk.len = fetchbuf[fetch_start]->len;    
  4094ed:	8b 85 d4 fd ff ff    	mov    -0x22c(%rbp),%eax
  4094f3:	48 98                	cltq   
  4094f5:	48 8b 84 c5 10 fe ff 	mov    -0x1f0(%rbp,%rax,8),%rax
  4094fc:	ff 
  4094fd:	48 8b 40 08          	mov    0x8(%rax),%rax
  409501:	48 89 85 f8 fd ff ff 	mov    %rax,-0x208(%rbp)
    chunk.cid = fetchbuf[fetch_start]->cid;
  409508:	8b 85 d4 fd ff ff    	mov    -0x22c(%rbp),%eax
  40950e:	48 98                	cltq   
  409510:	48 8b 84 c5 10 fe ff 	mov    -0x1f0(%rbp,%rax,8),%rax
  409517:	ff 
  409518:	8b 40 14             	mov    0x14(%rax),%eax
  40951b:	89 85 04 fe ff ff    	mov    %eax,-0x1fc(%rbp)
    chunk.anchorid = fetchbuf[fetch_start]->anchorid;
  409521:	8b 85 d4 fd ff ff    	mov    -0x22c(%rbp),%eax
  409527:	48 98                	cltq   
  409529:	48 8b 84 c5 10 fe ff 	mov    -0x1f0(%rbp,%rax,8),%rax
  409530:	ff 
  409531:	8b 40 10             	mov    0x10(%rax),%eax
  409534:	89 85 00 fe ff ff    	mov    %eax,-0x200(%rbp)
    fetch_start ++;
  40953a:	83 85 d4 fd ff ff 01 	addl   $0x1,-0x22c(%rbp)

    if (chunk.start == NULL) break;
  409541:	48 8b 85 f0 fd ff ff 	mov    -0x210(%rbp),%rax
  409548:	48 85 c0             	test   %rax,%rax
  40954b:	75 05                	jne    409552 <ChunkProcess+0x17d>
  40954d:	e9 26 01 00 00       	jmpq   409678 <ChunkProcess+0x2a3>

    item = sub_ChunkProcess(chunk);
  409552:	48 83 ec 08          	sub    $0x8,%rsp
  409556:	ff b5 00 fe ff ff    	pushq  -0x200(%rbp)
  40955c:	ff b5 f8 fd ff ff    	pushq  -0x208(%rbp)
  409562:	ff b5 f0 fd ff ff    	pushq  -0x210(%rbp)
  409568:	e8 5c fa ff ff       	callq  408fc9 <sub_ChunkProcess>
  40956d:	48 83 c4 20          	add    $0x20,%rsp
  409571:	48 89 85 e8 fd ff ff 	mov    %rax,-0x218(%rbp)

	// After sub_chunkprocess, we just got the item. 
    // Start to handle the item according different type now.
    if (item->type == TYPE_COMPRESS) {
  409578:	48 8b 85 e8 fd ff ff 	mov    -0x218(%rbp),%rax
  40957f:	0f b6 00             	movzbl (%rax),%eax
  409582:	3c 01                	cmp    $0x1,%al
  409584:	75 7b                	jne    409601 <ChunkProcess+0x22c>

      tmpbuf[tmp_count] = item;
  409586:	8b 85 cc fd ff ff    	mov    -0x234(%rbp),%eax
  40958c:	48 98                	cltq   
  40958e:	48 8b 95 e8 fd ff ff 	mov    -0x218(%rbp),%rdx
  409595:	48 89 94 c5 b0 fe ff 	mov    %rdx,-0x150(%rbp,%rax,8)
  40959c:	ff 
      tmp_count ++;
  40959d:	8b 85 cc fd ff ff    	mov    -0x234(%rbp),%eax
  4095a3:	83 c0 01             	add    $0x1,%eax
  4095a6:	89 85 cc fd ff ff    	mov    %eax,-0x234(%rbp)
     
	  // We won't do insert every time, we will wait for ITEM_PER_INSERT.
      // That means we can improve the performance???? Not sure, but we will
      // decrease the number of communication since we use local buffer to cache all items. 
      if (tmp_count >= ITEM_PER_INSERT) {      
  4095ac:	8b 85 cc fd ff ff    	mov    -0x234(%rbp),%eax
  4095b2:	83 f8 13             	cmp    $0x13,%eax
  4095b5:	0f 8e b8 00 00 00    	jle    409673 <ChunkProcess+0x29e>
        enqueue(&compress_que[qid], &tmp_count, (void **)tmpbuf);
  4095bb:	48 8b 0d be 14 e5 01 	mov    0x1e514be(%rip),%rcx        # 225aa80 <compress_que>
  4095c2:	8b 85 d8 fd ff ff    	mov    -0x228(%rbp),%eax
  4095c8:	48 63 d0             	movslq %eax,%rdx
  4095cb:	48 89 d0             	mov    %rdx,%rax
  4095ce:	48 c1 e0 02          	shl    $0x2,%rax
  4095d2:	48 01 d0             	add    %rdx,%rax
  4095d5:	48 c1 e0 02          	shl    $0x2,%rax
  4095d9:	48 01 d0             	add    %rdx,%rax
  4095dc:	48 c1 e0 03          	shl    $0x3,%rax
  4095e0:	48 01 c1             	add    %rax,%rcx
  4095e3:	48 8d 95 b0 fe ff ff 	lea    -0x150(%rbp),%rdx
  4095ea:	48 8d 85 cc fd ff ff 	lea    -0x234(%rbp),%rax
  4095f1:	48 89 c6             	mov    %rax,%rsi
  4095f4:	48 89 cf             	mov    %rcx,%rdi
  4095f7:	e8 f0 3a 00 00       	callq  40d0ec <enqueue>
  4095fc:	e9 65 fe ff ff       	jmpq   409466 <ChunkProcess+0x91>
      }
    } else {
      tmpsendbuf[tmpsend_count] = item;
  409601:	8b 85 d0 fd ff ff    	mov    -0x230(%rbp),%eax
  409607:	48 98                	cltq   
  409609:	48 8b 95 e8 fd ff ff 	mov    -0x218(%rbp),%rdx
  409610:	48 89 94 c5 50 ff ff 	mov    %rdx,-0xb0(%rbp,%rax,8)
  409617:	ff 
      tmpsend_count ++;
  409618:	8b 85 d0 fd ff ff    	mov    -0x230(%rbp),%eax
  40961e:	83 c0 01             	add    $0x1,%eax
  409621:	89 85 d0 fd ff ff    	mov    %eax,-0x230(%rbp)
      
      if (tmpsend_count >= ITEM_PER_INSERT) {
  409627:	8b 85 d0 fd ff ff    	mov    -0x230(%rbp),%eax
  40962d:	83 f8 13             	cmp    $0x13,%eax
  409630:	7e 41                	jle    409673 <ChunkProcess+0x29e>
        enqueue(&send_que[qid], &tmpsend_count, (void **)tmpsendbuf);
  409632:	48 8b 0d 17 14 a5 01 	mov    0x1a51417(%rip),%rcx        # 1e5aa50 <send_que>
  409639:	8b 85 d8 fd ff ff    	mov    -0x228(%rbp),%eax
  40963f:	48 63 d0             	movslq %eax,%rdx
  409642:	48 89 d0             	mov    %rdx,%rax
  409645:	48 c1 e0 02          	shl    $0x2,%rax
  409649:	48 01 d0             	add    %rdx,%rax
  40964c:	48 c1 e0 02          	shl    $0x2,%rax
  409650:	48 01 d0             	add    %rdx,%rax
  409653:	48 c1 e0 03          	shl    $0x3,%rax
  409657:	48 01 c1             	add    %rax,%rcx
  40965a:	48 8d 95 50 ff ff ff 	lea    -0xb0(%rbp),%rdx
  409661:	48 8d 85 d0 fd ff ff 	lea    -0x230(%rbp),%rax
  409668:	48 89 c6             	mov    %rax,%rsi
  40966b:	48 89 cf             	mov    %rcx,%rdi
  40966e:	e8 79 3a 00 00       	callq  40d0ec <enqueue>
      }
    }
  }
  409673:	e9 ee fd ff ff       	jmpq   409466 <ChunkProcess+0x91>
 
  // There is no previous worker here, we should add remainning work to corresponding queue anyway. 
  if (tmp_count > 0) {      
  409678:	8b 85 cc fd ff ff    	mov    -0x234(%rbp),%eax
  40967e:	85 c0                	test   %eax,%eax
  409680:	7e 41                	jle    4096c3 <ChunkProcess+0x2ee>
    enqueue(&compress_que[qid], &tmp_count, (void **)tmpbuf);
  409682:	48 8b 0d f7 13 e5 01 	mov    0x1e513f7(%rip),%rcx        # 225aa80 <compress_que>
  409689:	8b 85 d8 fd ff ff    	mov    -0x228(%rbp),%eax
  40968f:	48 63 d0             	movslq %eax,%rdx
  409692:	48 89 d0             	mov    %rdx,%rax
  409695:	48 c1 e0 02          	shl    $0x2,%rax
  409699:	48 01 d0             	add    %rdx,%rax
  40969c:	48 c1 e0 02          	shl    $0x2,%rax
  4096a0:	48 01 d0             	add    %rdx,%rax
  4096a3:	48 c1 e0 03          	shl    $0x3,%rax
  4096a7:	48 01 c1             	add    %rax,%rcx
  4096aa:	48 8d 95 b0 fe ff ff 	lea    -0x150(%rbp),%rdx
  4096b1:	48 8d 85 cc fd ff ff 	lea    -0x234(%rbp),%rax
  4096b8:	48 89 c6             	mov    %rax,%rsi
  4096bb:	48 89 cf             	mov    %rcx,%rdi
  4096be:	e8 29 3a 00 00       	callq  40d0ec <enqueue>
  }
    
  if (tmpsend_count > 0) {      
  4096c3:	8b 85 d0 fd ff ff    	mov    -0x230(%rbp),%eax
  4096c9:	85 c0                	test   %eax,%eax
  4096cb:	7e 41                	jle    40970e <ChunkProcess+0x339>
    enqueue(&send_que[qid], &tmpsend_count, (void **)tmpsendbuf);
  4096cd:	48 8b 0d 7c 13 a5 01 	mov    0x1a5137c(%rip),%rcx        # 1e5aa50 <send_que>
  4096d4:	8b 85 d8 fd ff ff    	mov    -0x228(%rbp),%eax
  4096da:	48 63 d0             	movslq %eax,%rdx
  4096dd:	48 89 d0             	mov    %rdx,%rax
  4096e0:	48 c1 e0 02          	shl    $0x2,%rax
  4096e4:	48 01 d0             	add    %rdx,%rax
  4096e7:	48 c1 e0 02          	shl    $0x2,%rax
  4096eb:	48 01 d0             	add    %rdx,%rax
  4096ee:	48 c1 e0 03          	shl    $0x3,%rax
  4096f2:	48 01 c1             	add    %rax,%rcx
  4096f5:	48 8d 95 50 ff ff ff 	lea    -0xb0(%rbp),%rdx
  4096fc:	48 8d 85 d0 fd ff ff 	lea    -0x230(%rbp),%rax
  409703:	48 89 c6             	mov    %rax,%rsi
  409706:	48 89 cf             	mov    %rcx,%rdi
  409709:	e8 de 39 00 00       	callq  40d0ec <enqueue>
  }

  //Used to tell next stage that one more chunkProcess thread ends
  queue_signal_terminate(&compress_que[qid]);
  40970e:	48 8b 0d 6b 13 e5 01 	mov    0x1e5136b(%rip),%rcx        # 225aa80 <compress_que>
  409715:	8b 85 d8 fd ff ff    	mov    -0x228(%rbp),%eax
  40971b:	48 63 d0             	movslq %eax,%rdx
  40971e:	48 89 d0             	mov    %rdx,%rax
  409721:	48 c1 e0 02          	shl    $0x2,%rax
  409725:	48 01 d0             	add    %rdx,%rax
  409728:	48 c1 e0 02          	shl    $0x2,%rax
  40972c:	48 01 d0             	add    %rdx,%rax
  40972f:	48 c1 e0 03          	shl    $0x3,%rax
  409733:	48 01 c8             	add    %rcx,%rax
  409736:	48 89 c7             	mov    %rax,%rdi
  409739:	e8 d5 37 00 00       	callq  40cf13 <queue_signal_terminate>
    return NULL;
  40973e:	b8 00 00 00 00       	mov    $0x0,%eax
}
  409743:	48 8b 75 f8          	mov    -0x8(%rbp),%rsi
  409747:	64 48 33 34 25 28 00 	xor    %fs:0x28,%rsi
  40974e:	00 00 
  409750:	74 05                	je     409757 <ChunkProcess+0x382>
  409752:	e8 69 d7 ff ff       	callq  406ec0 <__stack_chk_fail@plt>
  409757:	c9                   	leaveq 
  409758:	c3                   	retq   

0000000000409759 <FindAllAnchors>:

/* 
 * Use rabin fingerprint to find all the anchors.
 */
void *
FindAllAnchors(void * targs) {
  409759:	55                   	push   %rbp
  40975a:	48 89 e5             	mov    %rsp,%rbp
  40975d:	53                   	push   %rbx
  40975e:	48 81 ec b8 39 01 00 	sub    $0x139b8,%rsp
  409765:	48 89 bd 48 c6 fe ff 	mov    %rdi,-0x139b8(%rbp)
  40976c:	64 48 8b 04 25 28 00 	mov    %fs:0x28,%rax
  409773:	00 00 
  409775:	48 89 45 e8          	mov    %rax,-0x18(%rbp)
  409779:	31 c0                	xor    %eax,%eax
  struct thread_args *args = (struct thread_args *)targs;
  40977b:	48 8b 85 48 c6 fe ff 	mov    -0x139b8(%rbp),%rax
  409782:	48 89 85 88 c6 fe ff 	mov    %rax,-0x13978(%rbp)
  const int qid = args->tid / MAX_THREADS_PER_QUEUE;
  409789:	48 8b 85 88 c6 fe ff 	mov    -0x13978(%rbp),%rax
  409790:	8b 00                	mov    (%rax),%eax
  409792:	8d 50 03             	lea    0x3(%rax),%edx
  409795:	85 c0                	test   %eax,%eax
  409797:	0f 48 c2             	cmovs  %edx,%eax
  40979a:	c1 f8 02             	sar    $0x2,%eax
  40979d:	89 85 70 c6 fe ff    	mov    %eax,-0x13990(%rbp)
  data_chunk * fetchbuf[MAX_PER_FETCH];
  int fetch_count = 0;
  4097a3:	c7 85 5c c6 fe ff 00 	movl   $0x0,-0x139a4(%rbp)
  4097aa:	00 00 00 
  int fetch_start = 0;
  4097ad:	c7 85 64 c6 fe ff 00 	movl   $0x0,-0x1399c(%rbp)
  4097b4:	00 00 00 
  
  fprintf(stderr, "%d : FindAllAnchors\n", getpid()); 
  4097b7:	e8 b4 d5 ff ff       	callq  406d70 <getpid@plt>
  4097bc:	89 c2                	mov    %eax,%edx
  4097be:	48 8b 05 bb f1 24 00 	mov    0x24f1bb(%rip),%rax        # 658980 <stderr@@GLIBC_2.2.5>
  4097c5:	be 0a 83 43 00       	mov    $0x43830a,%esi
  4097ca:	48 89 c7             	mov    %rax,%rdi
  4097cd:	b8 00 00 00 00       	mov    $0x0,%eax
  4097d2:	e8 b9 d7 ff ff       	callq  406f90 <fprintf@plt>
  u32int * rabintab = malloc(256*sizeof rabintab[0]);
  4097d7:	bf 00 04 00 00       	mov    $0x400,%edi
  4097dc:	e8 6f d5 ff ff       	callq  406d50 <malloc@plt>
  4097e1:	48 89 85 90 c6 fe ff 	mov    %rax,-0x13970(%rbp)
  u32int * rabinwintab = malloc(256*sizeof rabintab[0]);
  4097e8:	bf 00 04 00 00       	mov    $0x400,%edi
  4097ed:	e8 5e d5 ff ff       	callq  406d50 <malloc@plt>
  4097f2:	48 89 85 98 c6 fe ff 	mov    %rax,-0x13968(%rbp)
  if(rabintab == NULL || rabinwintab == NULL) {
  4097f9:	48 83 bd 90 c6 fe ff 	cmpq   $0x0,-0x13970(%rbp)
  409800:	00 
  409801:	74 0a                	je     40980d <FindAllAnchors+0xb4>
  409803:	48 83 bd 98 c6 fe ff 	cmpq   $0x0,-0x13968(%rbp)
  40980a:	00 
  40980b:	75 28                	jne    409835 <FindAllAnchors+0xdc>
    EXIT_TRACE("Memory allocation failed.\n");
  40980d:	48 8b 05 6c f1 24 00 	mov    0x24f16c(%rip),%rax        # 658980 <stderr@@GLIBC_2.2.5>
  409814:	ba e1 84 43 00       	mov    $0x4384e1,%edx
  409819:	be 90 82 43 00       	mov    $0x438290,%esi
  40981e:	48 89 c7             	mov    %rax,%rdi
  409821:	b8 00 00 00 00       	mov    $0x0,%eax
  409826:	e8 65 d7 ff ff       	callq  406f90 <fprintf@plt>
  40982b:	bf ff ff ff ff       	mov    $0xffffffff,%edi
  409830:	e8 eb d4 ff ff       	callq  406d20 <exit@plt>
  }

  data_chunk * tmpbuf[CHUNK_ANCHOR_PER_INSERT];
  int tmp_count = 0;
  409835:	c7 85 60 c6 fe ff 00 	movl   $0x0,-0x139a0(%rbp)
  40983c:	00 00 00 

    while (1) {
      data_chunk item;
      //if no item for process, get a group of items from the pipeline
      if (fetch_count == fetch_start) {
  40983f:	8b 85 5c c6 fe ff    	mov    -0x139a4(%rbp),%eax
  409845:	3b 85 64 c6 fe ff    	cmp    -0x1399c(%rbp),%eax
  40984b:	75 6e                	jne    4098bb <FindAllAnchors+0x162>
		// Fetch some items from anchor_queue
        int r = dequeue(&anchor_que[qid], &fetch_count, (void **)fetchbuf);
  40984d:	48 8b 0d ec 11 a5 01 	mov    0x1a511ec(%rip),%rcx        # 1e5aa40 <anchor_que>
  409854:	8b 85 70 c6 fe ff    	mov    -0x13990(%rbp),%eax
  40985a:	48 63 d0             	movslq %eax,%rdx
  40985d:	48 89 d0             	mov    %rdx,%rax
  409860:	48 c1 e0 02          	shl    $0x2,%rax
  409864:	48 01 d0             	add    %rdx,%rax
  409867:	48 c1 e0 02          	shl    $0x2,%rax
  40986b:	48 01 d0             	add    %rdx,%rax
  40986e:	48 c1 e0 03          	shl    $0x3,%rax
  409872:	48 01 c1             	add    %rax,%rcx
  409875:	48 8d 95 60 c7 fe ff 	lea    -0x138a0(%rbp),%rdx
  40987c:	48 8d 85 5c c6 fe ff 	lea    -0x139a4(%rbp),%rax
  409883:	48 89 c6             	mov    %rax,%rsi
  409886:	48 89 cf             	mov    %rcx,%rdi
  409889:	e8 d4 36 00 00       	callq  40cf62 <dequeue>
  40988e:	89 85 74 c6 fe ff    	mov    %eax,-0x1398c(%rbp)
	    // If r is -1, that means no item anymore??? 
        if (r < 0) {
  409894:	83 bd 74 c6 fe ff 00 	cmpl   $0x0,-0x1398c(%rbp)
  40989b:	79 14                	jns    4098b1 <FindAllAnchors+0x158>
          break;
  40989d:	90                   	nop

          MEM_FREE(item.start);
        }
    }  

    if (tmp_count > 0) {
  40989e:	8b 85 60 c6 fe ff    	mov    -0x139a0(%rbp),%eax
  4098a4:	85 c0                	test   %eax,%eax
  4098a6:	0f 8e 86 06 00 00    	jle    409f32 <FindAllAnchors+0x7d9>
  4098ac:	e9 40 06 00 00       	jmpq   409ef1 <FindAllAnchors+0x798>
	    // If r is -1, that means no item anymore??? 
        if (r < 0) {
          break;
        }
        
        fetch_start = 0;
  4098b1:	c7 85 64 c6 fe ff 00 	movl   $0x0,-0x1399c(%rbp)
  4098b8:	00 00 00 
      }
         
      // Fetch_start is used to identify first item that we can process. Fetch_count is 
      // the number of items that we fetch from the queue 
      if (fetch_start < fetch_count) {
  4098bb:	8b 85 5c c6 fe ff    	mov    -0x139a4(%rbp),%eax
  4098c1:	39 85 64 c6 fe ff    	cmp    %eax,-0x1399c(%rbp)
  4098c7:	0f 8d 1f 06 00 00    	jge    409eec <FindAllAnchors+0x793>
          //get one item
          item.start = fetchbuf[fetch_start]->start;
  4098cd:	8b 85 64 c6 fe ff    	mov    -0x1399c(%rbp),%eax
  4098d3:	48 98                	cltq   
  4098d5:	48 8b 84 c5 60 c7 fe 	mov    -0x138a0(%rbp,%rax,8),%rax
  4098dc:	ff 
  4098dd:	48 8b 00             	mov    (%rax),%rax
  4098e0:	48 89 85 a0 c6 fe ff 	mov    %rax,-0x13960(%rbp)
          item.len = fetchbuf[fetch_start]->len;
  4098e7:	8b 85 64 c6 fe ff    	mov    -0x1399c(%rbp),%eax
  4098ed:	48 98                	cltq   
  4098ef:	48 8b 84 c5 60 c7 fe 	mov    -0x138a0(%rbp,%rax,8),%rax
  4098f6:	ff 
  4098f7:	48 8b 40 08          	mov    0x8(%rax),%rax
  4098fb:	48 89 85 a8 c6 fe ff 	mov    %rax,-0x13958(%rbp)
          item.anchorid = fetchbuf[fetch_start]->anchorid;
  409902:	8b 85 64 c6 fe ff    	mov    -0x1399c(%rbp),%eax
  409908:	48 98                	cltq   
  40990a:	48 8b 84 c5 60 c7 fe 	mov    -0x138a0(%rbp,%rax,8),%rax
  409911:	ff 
  409912:	8b 40 10             	mov    0x10(%rax),%eax
  409915:	89 85 b0 c6 fe ff    	mov    %eax,-0x13950(%rbp)
		  // What? We don't need to do this, since it is not a circular buffer. But there is no harm to do this???
          fetch_start = (fetch_start + 1)%MAX_PER_FETCH;
  40991b:	8b 85 64 c6 fe ff    	mov    -0x1399c(%rbp),%eax
  409921:	8d 48 01             	lea    0x1(%rax),%ecx
  409924:	ba ad 8b db 68       	mov    $0x68db8bad,%edx
  409929:	89 c8                	mov    %ecx,%eax
  40992b:	f7 ea                	imul   %edx
  40992d:	c1 fa 0c             	sar    $0xc,%edx
  409930:	89 c8                	mov    %ecx,%eax
  409932:	c1 f8 1f             	sar    $0x1f,%eax
  409935:	29 c2                	sub    %eax,%edx
  409937:	89 d0                	mov    %edx,%eax
  409939:	89 85 64 c6 fe ff    	mov    %eax,-0x1399c(%rbp)
  40993f:	8b 85 64 c6 fe ff    	mov    -0x1399c(%rbp),%eax
  409945:	69 c0 10 27 00 00    	imul   $0x2710,%eax,%eax
  40994b:	29 c1                	sub    %eax,%ecx
  40994d:	89 c8                	mov    %ecx,%eax
  40994f:	89 85 64 c6 fe ff    	mov    %eax,-0x1399c(%rbp)
               
          rabininit(rf_win, rabintab, rabinwintab);
  409955:	8b 05 2d 11 e5 01    	mov    0x1e5112d(%rip),%eax        # 225aa88 <rf_win>
  40995b:	48 8b 95 98 c6 fe ff 	mov    -0x13968(%rbp),%rdx
  409962:	48 8b 8d 90 c6 fe ff 	mov    -0x13970(%rbp),%rcx
  409969:	48 89 ce             	mov    %rcx,%rsi
  40996c:	89 c7                	mov    %eax,%edi
  40996e:	e8 88 3a 00 00       	callq  40d3fb <rabininit>
          
          u_char * p;
          
          u_int32 chcount = 0;
  409973:	c7 85 68 c6 fe ff 00 	movl   $0x0,-0x13998(%rbp)
  40997a:	00 00 00 
          // First, anchor and p will have the same value in the beginning.
          u_char * anchor = item.start;
  40997d:	48 8b 85 a0 c6 fe ff 	mov    -0x13960(%rbp),%rax
  409984:	48 89 85 80 c6 fe ff 	mov    %rax,-0x13980(%rbp)
          p = item.start;
  40998b:	48 8b 85 a0 c6 fe ff 	mov    -0x13960(%rbp),%rax
  409992:	48 89 85 78 c6 fe ff 	mov    %rax,-0x13988(%rbp)
		  // n is 60K in the beginning
          int n = MAX_RABIN_CHUNK_SIZE;
  409999:	c7 85 6c c6 fe ff 00 	movl   $0xf000,-0x13994(%rbp)
  4099a0:	f0 00 00 
          while(p < item.start+item.len) {
  4099a3:	e9 9d 02 00 00       	jmpq   409c45 <FindAllAnchors+0x4ec>
			// Check whether current item is smaller than specified size?
            if (item.len + item.start - p < n) {
  4099a8:	48 8b 95 a0 c6 fe ff 	mov    -0x13960(%rbp),%rdx
  4099af:	48 8b 85 a8 c6 fe ff 	mov    -0x13958(%rbp),%rax
  4099b6:	48 01 d0             	add    %rdx,%rax
  4099b9:	48 89 c2             	mov    %rax,%rdx
  4099bc:	48 8b 85 78 c6 fe ff 	mov    -0x13988(%rbp),%rax
  4099c3:	48 29 c2             	sub    %rax,%rdx
  4099c6:	8b 85 6c c6 fe ff    	mov    -0x13994(%rbp),%eax
  4099cc:	48 98                	cltq   
  4099ce:	48 39 c2             	cmp    %rax,%rdx
  4099d1:	7d 27                	jge    4099fa <FindAllAnchors+0x2a1>
              n = item.len +item.start -p;
  4099d3:	48 8b 95 a0 c6 fe ff 	mov    -0x13960(%rbp),%rdx
  4099da:	48 8b 85 a8 c6 fe ff 	mov    -0x13958(%rbp),%rax
  4099e1:	48 01 d0             	add    %rdx,%rax
  4099e4:	48 89 c2             	mov    %rax,%rdx
  4099e7:	48 8b 85 78 c6 fe ff 	mov    -0x13988(%rbp),%rax
  4099ee:	48 29 c2             	sub    %rax,%rdx
  4099f1:	48 89 d0             	mov    %rdx,%rax
  4099f4:	89 85 6c c6 fe ff    	mov    %eax,-0x13994(%rbp)
            }
            //find next anchor
            p = p + rabinseg(p, n, rf_win, rabintab, rabinwintab);
  4099fa:	8b 15 88 10 e5 01    	mov    0x1e51088(%rip),%edx        # 225aa88 <rf_win>
  409a00:	48 8b bd 98 c6 fe ff 	mov    -0x13968(%rbp),%rdi
  409a07:	48 8b 8d 90 c6 fe ff 	mov    -0x13970(%rbp),%rcx
  409a0e:	8b b5 6c c6 fe ff    	mov    -0x13994(%rbp),%esi
  409a14:	48 8b 85 78 c6 fe ff 	mov    -0x13988(%rbp),%rax
  409a1b:	49 89 f8             	mov    %rdi,%r8
  409a1e:	48 89 c7             	mov    %rax,%rdi
  409a21:	e8 19 3a 00 00       	callq  40d43f <rabinseg>
  409a26:	48 98                	cltq   
  409a28:	48 01 85 78 c6 fe ff 	add    %rax,-0x13988(%rbp)
          
            //insert into anchor queue: (anchor, p-src+1)
            tmpbuf[tmp_count] = (data_chunk *)malloc(sizeof(data_chunk));
  409a2f:	8b 9d 60 c6 fe ff    	mov    -0x139a0(%rbp),%ebx
  409a35:	bf 18 00 00 00       	mov    $0x18,%edi
  409a3a:	e8 11 d3 ff ff       	callq  406d50 <malloc@plt>
  409a3f:	48 89 c2             	mov    %rax,%rdx
  409a42:	48 63 c3             	movslq %ebx,%rax
  409a45:	48 89 94 c5 c0 c6 fe 	mov    %rdx,-0x13940(%rbp,%rax,8)
  409a4c:	ff 
            if(tmpbuf[tmp_count] == NULL) {
  409a4d:	8b 85 60 c6 fe ff    	mov    -0x139a0(%rbp),%eax
  409a53:	48 98                	cltq   
  409a55:	48 8b 84 c5 c0 c6 fe 	mov    -0x13940(%rbp,%rax,8),%rax
  409a5c:	ff 
  409a5d:	48 85 c0             	test   %rax,%rax
  409a60:	75 28                	jne    409a8a <FindAllAnchors+0x331>
              EXIT_TRACE("Memory allocation failed.\n");
  409a62:	48 8b 05 17 ef 24 00 	mov    0x24ef17(%rip),%rax        # 658980 <stderr@@GLIBC_2.2.5>
  409a69:	ba e1 84 43 00       	mov    $0x4384e1,%edx
  409a6e:	be 90 82 43 00       	mov    $0x438290,%esi
  409a73:	48 89 c7             	mov    %rax,%rdi
  409a76:	b8 00 00 00 00       	mov    $0x0,%eax
  409a7b:	e8 10 d5 ff ff       	callq  406f90 <fprintf@plt>
  409a80:	bf ff ff ff ff       	mov    $0xffffffff,%edi
  409a85:	e8 96 d2 ff ff       	callq  406d20 <exit@plt>
            }

			// Report some race condition here.
            tmpbuf[tmp_count]->start = (u_char *)malloc(p - anchor + 1);
  409a8a:	8b 85 60 c6 fe ff    	mov    -0x139a0(%rbp),%eax
  409a90:	48 98                	cltq   
  409a92:	48 8b 9c c5 c0 c6 fe 	mov    -0x13940(%rbp,%rax,8),%rbx
  409a99:	ff 
  409a9a:	48 8b 95 78 c6 fe ff 	mov    -0x13988(%rbp),%rdx
  409aa1:	48 8b 85 80 c6 fe ff 	mov    -0x13980(%rbp),%rax
  409aa8:	48 29 c2             	sub    %rax,%rdx
  409aab:	48 89 d0             	mov    %rdx,%rax
  409aae:	48 83 c0 01          	add    $0x1,%rax
  409ab2:	48 89 c7             	mov    %rax,%rdi
  409ab5:	e8 96 d2 ff ff       	callq  406d50 <malloc@plt>
  409aba:	48 89 03             	mov    %rax,(%rbx)
            //fprintf(stderr, "anchor %p to %p\n", tmpbuf[tmp_count]->start, tmpbuf[tmp_count]->start+(p - anchor + 1));

            if(tmpbuf[tmp_count]->start == NULL) {
  409abd:	8b 85 60 c6 fe ff    	mov    -0x139a0(%rbp),%eax
  409ac3:	48 98                	cltq   
  409ac5:	48 8b 84 c5 c0 c6 fe 	mov    -0x13940(%rbp,%rax,8),%rax
  409acc:	ff 
  409acd:	48 8b 00             	mov    (%rax),%rax
  409ad0:	48 85 c0             	test   %rax,%rax
  409ad3:	75 28                	jne    409afd <FindAllAnchors+0x3a4>
              EXIT_TRACE("Memory allocation failed.\n");
  409ad5:	48 8b 05 a4 ee 24 00 	mov    0x24eea4(%rip),%rax        # 658980 <stderr@@GLIBC_2.2.5>
  409adc:	ba e1 84 43 00       	mov    $0x4384e1,%edx
  409ae1:	be 90 82 43 00       	mov    $0x438290,%esi
  409ae6:	48 89 c7             	mov    %rax,%rdi
  409ae9:	b8 00 00 00 00       	mov    $0x0,%eax
  409aee:	e8 9d d4 ff ff       	callq  406f90 <fprintf@plt>
  409af3:	bf ff ff ff ff       	mov    $0xffffffff,%edi
  409af8:	e8 23 d2 ff ff       	callq  406d20 <exit@plt>
            }
            tmpbuf[tmp_count]->len = p-anchor;
  409afd:	8b 85 60 c6 fe ff    	mov    -0x139a0(%rbp),%eax
  409b03:	48 98                	cltq   
  409b05:	48 8b 84 c5 c0 c6 fe 	mov    -0x13940(%rbp,%rax,8),%rax
  409b0c:	ff 
  409b0d:	48 8b 8d 78 c6 fe ff 	mov    -0x13988(%rbp),%rcx
  409b14:	48 8b 95 80 c6 fe ff 	mov    -0x13980(%rbp),%rdx
  409b1b:	48 29 d1             	sub    %rdx,%rcx
  409b1e:	48 89 ca             	mov    %rcx,%rdx
  409b21:	48 89 50 08          	mov    %rdx,0x8(%rax)
            tmpbuf[tmp_count]->anchorid = item.anchorid;
  409b25:	8b 85 60 c6 fe ff    	mov    -0x139a0(%rbp),%eax
  409b2b:	48 98                	cltq   
  409b2d:	48 8b 84 c5 c0 c6 fe 	mov    -0x13940(%rbp,%rax,8),%rax
  409b34:	ff 
  409b35:	8b 95 b0 c6 fe ff    	mov    -0x13950(%rbp),%edx
  409b3b:	89 50 10             	mov    %edx,0x10(%rax)
            tmpbuf[tmp_count]->cid = chcount;
  409b3e:	8b 85 60 c6 fe ff    	mov    -0x139a0(%rbp),%eax
  409b44:	48 98                	cltq   
  409b46:	48 8b 84 c5 c0 c6 fe 	mov    -0x13940(%rbp,%rax,8),%rax
  409b4d:	ff 
  409b4e:	8b 95 68 c6 fe ff    	mov    -0x13998(%rbp),%edx
  409b54:	89 50 14             	mov    %edx,0x14(%rax)
              
            chcount++;              
  409b57:	83 85 68 c6 fe ff 01 	addl   $0x1,-0x13998(%rbp)
            chunks_per_anchor[item.anchorid] = chcount;
  409b5e:	8b 95 b0 c6 fe ff    	mov    -0x13950(%rbp),%edx
  409b64:	8b 85 68 c6 fe ff    	mov    -0x13998(%rbp),%eax
  409b6a:	89 d2                	mov    %edx,%edx
  409b6c:	89 04 95 80 aa e5 01 	mov    %eax,0x1e5aa80(,%rdx,4)
            memcpy(tmpbuf[tmp_count]->start, anchor, p-anchor);
  409b73:	48 8b 95 78 c6 fe ff 	mov    -0x13988(%rbp),%rdx
  409b7a:	48 8b 85 80 c6 fe ff 	mov    -0x13980(%rbp),%rax
  409b81:	48 29 c2             	sub    %rax,%rdx
  409b84:	48 89 d0             	mov    %rdx,%rax
  409b87:	48 89 c2             	mov    %rax,%rdx
  409b8a:	8b 85 60 c6 fe ff    	mov    -0x139a0(%rbp),%eax
  409b90:	48 98                	cltq   
  409b92:	48 8b 84 c5 c0 c6 fe 	mov    -0x13940(%rbp,%rax,8),%rax
  409b99:	ff 
  409b9a:	48 8b 00             	mov    (%rax),%rax
  409b9d:	48 8b 8d 80 c6 fe ff 	mov    -0x13980(%rbp),%rcx
  409ba4:	48 89 ce             	mov    %rcx,%rsi
  409ba7:	48 89 c7             	mov    %rax,%rdi
  409baa:	e8 41 d4 ff ff       	callq  406ff0 <memcpy@plt>
            tmpbuf[tmp_count]->start[p-anchor] = 0;
  409baf:	8b 85 60 c6 fe ff    	mov    -0x139a0(%rbp),%eax
  409bb5:	48 98                	cltq   
  409bb7:	48 8b 84 c5 c0 c6 fe 	mov    -0x13940(%rbp,%rax,8),%rax
  409bbe:	ff 
  409bbf:	48 8b 00             	mov    (%rax),%rax
  409bc2:	48 8b 8d 78 c6 fe ff 	mov    -0x13988(%rbp),%rcx
  409bc9:	48 8b 95 80 c6 fe ff 	mov    -0x13980(%rbp),%rdx
  409bd0:	48 29 d1             	sub    %rdx,%rcx
  409bd3:	48 89 ca             	mov    %rcx,%rdx
  409bd6:	48 01 d0             	add    %rdx,%rax
  409bd9:	c6 00 00             	movb   $0x0,(%rax)
            tmp_count ++;                            
  409bdc:	8b 85 60 c6 fe ff    	mov    -0x139a0(%rbp),%eax
  409be2:	83 c0 01             	add    $0x1,%eax
  409be5:	89 85 60 c6 fe ff    	mov    %eax,-0x139a0(%rbp)

            if (tmp_count >= CHUNK_ANCHOR_PER_INSERT) {
  409beb:	8b 85 60 c6 fe ff    	mov    -0x139a0(%rbp),%eax
  409bf1:	83 f8 13             	cmp    $0x13,%eax
  409bf4:	7e 41                	jle    409c37 <FindAllAnchors+0x4de>
              enqueue(&chunk_que[qid], &tmp_count, (void **)tmpbuf);
  409bf6:	48 8b 0d 93 0e e5 01 	mov    0x1e50e93(%rip),%rcx        # 225aa90 <chunk_que>
  409bfd:	8b 85 70 c6 fe ff    	mov    -0x13990(%rbp),%eax
  409c03:	48 63 d0             	movslq %eax,%rdx
  409c06:	48 89 d0             	mov    %rdx,%rax
  409c09:	48 c1 e0 02          	shl    $0x2,%rax
  409c0d:	48 01 d0             	add    %rdx,%rax
  409c10:	48 c1 e0 02          	shl    $0x2,%rax
  409c14:	48 01 d0             	add    %rdx,%rax
  409c17:	48 c1 e0 03          	shl    $0x3,%rax
  409c1b:	48 01 c1             	add    %rax,%rcx
  409c1e:	48 8d 95 c0 c6 fe ff 	lea    -0x13940(%rbp),%rdx
  409c25:	48 8d 85 60 c6 fe ff 	lea    -0x139a0(%rbp),%rax
  409c2c:	48 89 c6             	mov    %rax,%rsi
  409c2f:	48 89 cf             	mov    %rcx,%rdi
  409c32:	e8 b5 34 00 00       	callq  40d0ec <enqueue>
            }
              
            anchor = p;
  409c37:	48 8b 85 78 c6 fe ff 	mov    -0x13988(%rbp),%rax
  409c3e:	48 89 85 80 c6 fe ff 	mov    %rax,-0x13980(%rbp)
          // First, anchor and p will have the same value in the beginning.
          u_char * anchor = item.start;
          p = item.start;
		  // n is 60K in the beginning
          int n = MAX_RABIN_CHUNK_SIZE;
          while(p < item.start+item.len) {
  409c45:	48 8b 95 a0 c6 fe ff 	mov    -0x13960(%rbp),%rdx
  409c4c:	48 8b 85 a8 c6 fe ff 	mov    -0x13958(%rbp),%rax
  409c53:	48 01 d0             	add    %rdx,%rax
  409c56:	48 3b 85 78 c6 fe ff 	cmp    -0x13988(%rbp),%rax
  409c5d:	0f 87 45 fd ff ff    	ja     4099a8 <FindAllAnchors+0x24f>
              
            anchor = p;
          } 

          //insert the remaining item to the anchor queue
          if (item.start + item.len - anchor > 0) {
  409c63:	48 8b 95 a0 c6 fe ff 	mov    -0x13960(%rbp),%rdx
  409c6a:	48 8b 85 a8 c6 fe ff 	mov    -0x13958(%rbp),%rax
  409c71:	48 01 d0             	add    %rdx,%rax
  409c74:	48 89 c2             	mov    %rax,%rdx
  409c77:	48 8b 85 80 c6 fe ff 	mov    -0x13980(%rbp),%rax
  409c7e:	48 29 c2             	sub    %rax,%rdx
  409c81:	48 89 d0             	mov    %rdx,%rax
  409c84:	48 85 c0             	test   %rax,%rax
  409c87:	0f 8e 39 02 00 00    	jle    409ec6 <FindAllAnchors+0x76d>
            
            tmpbuf[tmp_count] = (data_chunk*)malloc(sizeof(data_chunk));
  409c8d:	8b 9d 60 c6 fe ff    	mov    -0x139a0(%rbp),%ebx
  409c93:	bf 18 00 00 00       	mov    $0x18,%edi
  409c98:	e8 b3 d0 ff ff       	callq  406d50 <malloc@plt>
  409c9d:	48 89 c2             	mov    %rax,%rdx
  409ca0:	48 63 c3             	movslq %ebx,%rax
  409ca3:	48 89 94 c5 c0 c6 fe 	mov    %rdx,-0x13940(%rbp,%rax,8)
  409caa:	ff 
            if(tmpbuf[tmp_count] == NULL) {
  409cab:	8b 85 60 c6 fe ff    	mov    -0x139a0(%rbp),%eax
  409cb1:	48 98                	cltq   
  409cb3:	48 8b 84 c5 c0 c6 fe 	mov    -0x13940(%rbp,%rax,8),%rax
  409cba:	ff 
  409cbb:	48 85 c0             	test   %rax,%rax
  409cbe:	75 28                	jne    409ce8 <FindAllAnchors+0x58f>
              EXIT_TRACE("Memory allocation failed.\n");
  409cc0:	48 8b 05 b9 ec 24 00 	mov    0x24ecb9(%rip),%rax        # 658980 <stderr@@GLIBC_2.2.5>
  409cc7:	ba e1 84 43 00       	mov    $0x4384e1,%edx
  409ccc:	be 90 82 43 00       	mov    $0x438290,%esi
  409cd1:	48 89 c7             	mov    %rax,%rdi
  409cd4:	b8 00 00 00 00       	mov    $0x0,%eax
  409cd9:	e8 b2 d2 ff ff       	callq  406f90 <fprintf@plt>
  409cde:	bf ff ff ff ff       	mov    $0xffffffff,%edi
  409ce3:	e8 38 d0 ff ff       	callq  406d20 <exit@plt>
            }

            tmpbuf[tmp_count]->start = (u_char *)malloc(item.start + item.len - anchor + 1);
  409ce8:	8b 85 60 c6 fe ff    	mov    -0x139a0(%rbp),%eax
  409cee:	48 98                	cltq   
  409cf0:	48 8b 9c c5 c0 c6 fe 	mov    -0x13940(%rbp,%rax,8),%rbx
  409cf7:	ff 
  409cf8:	48 8b 95 a0 c6 fe ff 	mov    -0x13960(%rbp),%rdx
  409cff:	48 8b 85 a8 c6 fe ff 	mov    -0x13958(%rbp),%rax
  409d06:	48 01 d0             	add    %rdx,%rax
  409d09:	48 89 c2             	mov    %rax,%rdx
  409d0c:	48 8b 85 80 c6 fe ff 	mov    -0x13980(%rbp),%rax
  409d13:	48 29 c2             	sub    %rax,%rdx
  409d16:	48 89 d0             	mov    %rdx,%rax
  409d19:	48 83 c0 01          	add    $0x1,%rax
  409d1d:	48 89 c7             	mov    %rax,%rdi
  409d20:	e8 2b d0 ff ff       	callq  406d50 <malloc@plt>
  409d25:	48 89 03             	mov    %rax,(%rbx)
			
            if(tmpbuf[tmp_count] == NULL) {
  409d28:	8b 85 60 c6 fe ff    	mov    -0x139a0(%rbp),%eax
  409d2e:	48 98                	cltq   
  409d30:	48 8b 84 c5 c0 c6 fe 	mov    -0x13940(%rbp,%rax,8),%rax
  409d37:	ff 
  409d38:	48 85 c0             	test   %rax,%rax
  409d3b:	75 28                	jne    409d65 <FindAllAnchors+0x60c>
              EXIT_TRACE("Memory allocation failed.\n");
  409d3d:	48 8b 05 3c ec 24 00 	mov    0x24ec3c(%rip),%rax        # 658980 <stderr@@GLIBC_2.2.5>
  409d44:	ba e1 84 43 00       	mov    $0x4384e1,%edx
  409d49:	be 90 82 43 00       	mov    $0x438290,%esi
  409d4e:	48 89 c7             	mov    %rax,%rdi
  409d51:	b8 00 00 00 00       	mov    $0x0,%eax
  409d56:	e8 35 d2 ff ff       	callq  406f90 <fprintf@plt>
  409d5b:	bf ff ff ff ff       	mov    $0xffffffff,%edi
  409d60:	e8 bb cf ff ff       	callq  406d20 <exit@plt>
            }
            tmpbuf[tmp_count]->len = item.start + item.len -anchor;
  409d65:	8b 85 60 c6 fe ff    	mov    -0x139a0(%rbp),%eax
  409d6b:	48 98                	cltq   
  409d6d:	48 8b 84 c5 c0 c6 fe 	mov    -0x13940(%rbp,%rax,8),%rax
  409d74:	ff 
  409d75:	48 8b 8d a0 c6 fe ff 	mov    -0x13960(%rbp),%rcx
  409d7c:	48 8b 95 a8 c6 fe ff 	mov    -0x13958(%rbp),%rdx
  409d83:	48 01 ca             	add    %rcx,%rdx
  409d86:	48 89 d1             	mov    %rdx,%rcx
  409d89:	48 8b 95 80 c6 fe ff 	mov    -0x13980(%rbp),%rdx
  409d90:	48 29 d1             	sub    %rdx,%rcx
  409d93:	48 89 ca             	mov    %rcx,%rdx
  409d96:	48 89 50 08          	mov    %rdx,0x8(%rax)
            tmpbuf[tmp_count]->cid = chcount;
  409d9a:	8b 85 60 c6 fe ff    	mov    -0x139a0(%rbp),%eax
  409da0:	48 98                	cltq   
  409da2:	48 8b 84 c5 c0 c6 fe 	mov    -0x13940(%rbp,%rax,8),%rax
  409da9:	ff 
  409daa:	8b 95 68 c6 fe ff    	mov    -0x13998(%rbp),%edx
  409db0:	89 50 14             	mov    %edx,0x14(%rax)
            tmpbuf[tmp_count]->anchorid = item.anchorid;
  409db3:	8b 85 60 c6 fe ff    	mov    -0x139a0(%rbp),%eax
  409db9:	48 98                	cltq   
  409dbb:	48 8b 84 c5 c0 c6 fe 	mov    -0x13940(%rbp,%rax,8),%rax
  409dc2:	ff 
  409dc3:	8b 95 b0 c6 fe ff    	mov    -0x13950(%rbp),%edx
  409dc9:	89 50 10             	mov    %edx,0x10(%rax)
            chcount ++;
  409dcc:	83 85 68 c6 fe ff 01 	addl   $0x1,-0x13998(%rbp)
            chunks_per_anchor[item.anchorid] = chcount;
  409dd3:	8b 95 b0 c6 fe ff    	mov    -0x13950(%rbp),%edx
  409dd9:	8b 85 68 c6 fe ff    	mov    -0x13998(%rbp),%eax
  409ddf:	89 d2                	mov    %edx,%edx
  409de1:	89 04 95 80 aa e5 01 	mov    %eax,0x1e5aa80(,%rdx,4)
            memcpy(tmpbuf[tmp_count]->start, anchor, item.start + item.len -anchor);
  409de8:	48 8b 95 a0 c6 fe ff 	mov    -0x13960(%rbp),%rdx
  409def:	48 8b 85 a8 c6 fe ff 	mov    -0x13958(%rbp),%rax
  409df6:	48 01 d0             	add    %rdx,%rax
  409df9:	48 89 c2             	mov    %rax,%rdx
  409dfc:	48 8b 85 80 c6 fe ff 	mov    -0x13980(%rbp),%rax
  409e03:	48 29 c2             	sub    %rax,%rdx
  409e06:	48 89 d0             	mov    %rdx,%rax
  409e09:	48 89 c2             	mov    %rax,%rdx
  409e0c:	8b 85 60 c6 fe ff    	mov    -0x139a0(%rbp),%eax
  409e12:	48 98                	cltq   
  409e14:	48 8b 84 c5 c0 c6 fe 	mov    -0x13940(%rbp,%rax,8),%rax
  409e1b:	ff 
  409e1c:	48 8b 00             	mov    (%rax),%rax
  409e1f:	48 8b 8d 80 c6 fe ff 	mov    -0x13980(%rbp),%rcx
  409e26:	48 89 ce             	mov    %rcx,%rsi
  409e29:	48 89 c7             	mov    %rax,%rdi
  409e2c:	e8 bf d1 ff ff       	callq  406ff0 <memcpy@plt>
            tmpbuf[tmp_count]->start[item.start + item.len -anchor] = 0;
  409e31:	8b 85 60 c6 fe ff    	mov    -0x139a0(%rbp),%eax
  409e37:	48 98                	cltq   
  409e39:	48 8b 84 c5 c0 c6 fe 	mov    -0x13940(%rbp,%rax,8),%rax
  409e40:	ff 
  409e41:	48 8b 00             	mov    (%rax),%rax
  409e44:	48 8b 8d a0 c6 fe ff 	mov    -0x13960(%rbp),%rcx
  409e4b:	48 8b 95 a8 c6 fe ff 	mov    -0x13958(%rbp),%rdx
  409e52:	48 01 ca             	add    %rcx,%rdx
  409e55:	48 89 d1             	mov    %rdx,%rcx
  409e58:	48 8b 95 80 c6 fe ff 	mov    -0x13980(%rbp),%rdx
  409e5f:	48 29 d1             	sub    %rdx,%rcx
  409e62:	48 89 ca             	mov    %rcx,%rdx
  409e65:	48 01 d0             	add    %rdx,%rax
  409e68:	c6 00 00             	movb   $0x0,(%rax)
            tmp_count ++;
  409e6b:	8b 85 60 c6 fe ff    	mov    -0x139a0(%rbp),%eax
  409e71:	83 c0 01             	add    $0x1,%eax
  409e74:	89 85 60 c6 fe ff    	mov    %eax,-0x139a0(%rbp)
            
            if (tmp_count >= CHUNK_ANCHOR_PER_INSERT) {
  409e7a:	8b 85 60 c6 fe ff    	mov    -0x139a0(%rbp),%eax
  409e80:	83 f8 13             	cmp    $0x13,%eax
  409e83:	7e 41                	jle    409ec6 <FindAllAnchors+0x76d>
              enqueue(&chunk_que[qid], &tmp_count, (void **)tmpbuf);
  409e85:	48 8b 0d 04 0c e5 01 	mov    0x1e50c04(%rip),%rcx        # 225aa90 <chunk_que>
  409e8c:	8b 85 70 c6 fe ff    	mov    -0x13990(%rbp),%eax
  409e92:	48 63 d0             	movslq %eax,%rdx
  409e95:	48 89 d0             	mov    %rdx,%rax
  409e98:	48 c1 e0 02          	shl    $0x2,%rax
  409e9c:	48 01 d0             	add    %rdx,%rax
  409e9f:	48 c1 e0 02          	shl    $0x2,%rax
  409ea3:	48 01 d0             	add    %rdx,%rax
  409ea6:	48 c1 e0 03          	shl    $0x3,%rax
  409eaa:	48 01 c1             	add    %rax,%rcx
  409ead:	48 8d 95 c0 c6 fe ff 	lea    -0x13940(%rbp),%rdx
  409eb4:	48 8d 85 60 c6 fe ff 	lea    -0x139a0(%rbp),%rax
  409ebb:	48 89 c6             	mov    %rax,%rsi
  409ebe:	48 89 cf             	mov    %rcx,%rdi
  409ec1:	e8 26 32 00 00       	callq  40d0ec <enqueue>
            }
          }

          MEM_FREE(item.start);
  409ec6:	48 8b 85 a0 c6 fe ff 	mov    -0x13960(%rbp),%rax
  409ecd:	48 85 c0             	test   %rax,%rax
  409ed0:	74 1a                	je     409eec <FindAllAnchors+0x793>
  409ed2:	48 8b 85 a0 c6 fe ff 	mov    -0x13960(%rbp),%rax
  409ed9:	48 89 c7             	mov    %rax,%rdi
  409edc:	e8 bf ce ff ff       	callq  406da0 <free@plt>
  409ee1:	48 c7 85 a0 c6 fe ff 	movq   $0x0,-0x13960(%rbp)
  409ee8:	00 00 00 00 
        }
    }  
  409eec:	e9 4e f9 ff ff       	jmpq   40983f <FindAllAnchors+0xe6>

    if (tmp_count > 0) {
      enqueue(&chunk_que[qid], &tmp_count, (void **)tmpbuf);
  409ef1:	48 8b 0d 98 0b e5 01 	mov    0x1e50b98(%rip),%rcx        # 225aa90 <chunk_que>
  409ef8:	8b 85 70 c6 fe ff    	mov    -0x13990(%rbp),%eax
  409efe:	48 63 d0             	movslq %eax,%rdx
  409f01:	48 89 d0             	mov    %rdx,%rax
  409f04:	48 c1 e0 02          	shl    $0x2,%rax
  409f08:	48 01 d0             	add    %rdx,%rax
  409f0b:	48 c1 e0 02          	shl    $0x2,%rax
  409f0f:	48 01 d0             	add    %rdx,%rax
  409f12:	48 c1 e0 03          	shl    $0x3,%rax
  409f16:	48 01 c1             	add    %rax,%rcx
  409f19:	48 8d 95 c0 c6 fe ff 	lea    -0x13940(%rbp),%rdx
  409f20:	48 8d 85 60 c6 fe ff 	lea    -0x139a0(%rbp),%rax
  409f27:	48 89 c6             	mov    %rax,%rsi
  409f2a:	48 89 cf             	mov    %rcx,%rdi
  409f2d:	e8 ba 31 00 00       	callq  40d0ec <enqueue>
  for (i = 0; i < CHUNK_ANCHOR_PER_INSERT; i ++) {
    MEM_FREE(tmpbuf[i]);
    }*/

    //count the end thread
    queue_signal_terminate(&chunk_que[qid]);
  409f32:	48 8b 0d 57 0b e5 01 	mov    0x1e50b57(%rip),%rcx        # 225aa90 <chunk_que>
  409f39:	8b 85 70 c6 fe ff    	mov    -0x13990(%rbp),%eax
  409f3f:	48 63 d0             	movslq %eax,%rdx
  409f42:	48 89 d0             	mov    %rdx,%rax
  409f45:	48 c1 e0 02          	shl    $0x2,%rax
  409f49:	48 01 d0             	add    %rdx,%rax
  409f4c:	48 c1 e0 02          	shl    $0x2,%rax
  409f50:	48 01 d0             	add    %rdx,%rax
  409f53:	48 c1 e0 03          	shl    $0x3,%rax
  409f57:	48 01 c8             	add    %rcx,%rax
  409f5a:	48 89 c7             	mov    %rax,%rdi
  409f5d:	e8 b1 2f 00 00       	callq  40cf13 <queue_signal_terminate>
  return NULL;
  409f62:	b8 00 00 00 00       	mov    $0x0,%eax
}
  409f67:	48 8b 5d e8          	mov    -0x18(%rbp),%rbx
  409f6b:	64 48 33 1c 25 28 00 	xor    %fs:0x28,%rbx
  409f72:	00 00 
  409f74:	74 05                	je     409f7b <FindAllAnchors+0x822>
  409f76:	e8 45 cf ff ff       	callq  406ec0 <__stack_chk_fail@plt>
  409f7b:	48 81 c4 b8 39 01 00 	add    $0x139b8,%rsp
  409f82:	5b                   	pop    %rbx
  409f83:	5d                   	pop    %rbp
  409f84:	c3                   	retq   

0000000000409f85 <SerialIntegratedPipeline>:
/* 
 * Integrate all computationally intensive pipeline
 * stages to improve cache efficiency.
 */
void *
SerialIntegratedPipeline(void * targs) {
  409f85:	55                   	push   %rbp
  409f86:	48 89 e5             	mov    %rsp,%rbp
  409f89:	48 81 ec c0 39 01 00 	sub    $0x139c0,%rsp
  409f90:	48 89 bd 48 c6 fe ff 	mov    %rdi,-0x139b8(%rbp)
  409f97:	64 48 8b 04 25 28 00 	mov    %fs:0x28,%rax
  409f9e:	00 00 
  409fa0:	48 89 45 f8          	mov    %rax,-0x8(%rbp)
  409fa4:	31 c0                	xor    %eax,%eax
  struct thread_args *args = (struct thread_args *)targs;
  409fa6:	48 8b 85 48 c6 fe ff 	mov    -0x139b8(%rbp),%rax
  409fad:	48 89 85 88 c6 fe ff 	mov    %rax,-0x13978(%rbp)
  const int qid = args->tid / MAX_THREADS_PER_QUEUE;
  409fb4:	48 8b 85 88 c6 fe ff 	mov    -0x13978(%rbp),%rax
  409fbb:	8b 00                	mov    (%rax),%eax
  409fbd:	8d 50 03             	lea    0x3(%rax),%edx
  409fc0:	85 c0                	test   %eax,%eax
  409fc2:	0f 48 c2             	cmovs  %edx,%eax
  409fc5:	c1 f8 02             	sar    $0x2,%eax
  409fc8:	89 85 70 c6 fe ff    	mov    %eax,-0x13990(%rbp)
  data_chunk * fetchbuf[MAX_PER_FETCH];
  int fetch_count = 0;
  409fce:	c7 85 5c c6 fe ff 00 	movl   $0x0,-0x139a4(%rbp)
  409fd5:	00 00 00 
  int fetch_start = 0;
  409fd8:	c7 85 64 c6 fe ff 00 	movl   $0x0,-0x1399c(%rbp)
  409fdf:	00 00 00 

  u32int * rabintab = malloc(256*sizeof rabintab[0]);
  409fe2:	bf 00 04 00 00       	mov    $0x400,%edi
  409fe7:	e8 64 cd ff ff       	callq  406d50 <malloc@plt>
  409fec:	48 89 85 90 c6 fe ff 	mov    %rax,-0x13970(%rbp)
  u32int * rabinwintab = malloc(256*sizeof rabintab[0]);
  409ff3:	bf 00 04 00 00       	mov    $0x400,%edi
  409ff8:	e8 53 cd ff ff       	callq  406d50 <malloc@plt>
  409ffd:	48 89 85 98 c6 fe ff 	mov    %rax,-0x13968(%rbp)
  if(rabintab == NULL || rabinwintab == NULL) {
  40a004:	48 83 bd 90 c6 fe ff 	cmpq   $0x0,-0x13970(%rbp)
  40a00b:	00 
  40a00c:	74 0a                	je     40a018 <SerialIntegratedPipeline+0x93>
  40a00e:	48 83 bd 98 c6 fe ff 	cmpq   $0x0,-0x13968(%rbp)
  40a015:	00 
  40a016:	75 28                	jne    40a040 <SerialIntegratedPipeline+0xbb>
    EXIT_TRACE("Memory allocation failed.\n");
  40a018:	48 8b 05 61 e9 24 00 	mov    0x24e961(%rip),%rax        # 658980 <stderr@@GLIBC_2.2.5>
  40a01f:	ba f0 84 43 00       	mov    $0x4384f0,%edx
  40a024:	be 90 82 43 00       	mov    $0x438290,%esi
  40a029:	48 89 c7             	mov    %rax,%rdi
  40a02c:	b8 00 00 00 00       	mov    $0x0,%eax
  40a031:	e8 5a cf ff ff       	callq  406f90 <fprintf@plt>
  40a036:	bf ff ff ff ff       	mov    $0xffffffff,%edi
  40a03b:	e8 e0 cc ff ff       	callq  406d20 <exit@plt>
  }

  data_chunk * tmpbuf;
  int tmpsend_count = 0;
  40a040:	c7 85 60 c6 fe ff 00 	movl   $0x0,-0x139a0(%rbp)
  40a047:	00 00 00 
  send_buf_item * tmpsendbuf[ITEM_PER_INSERT];

    while (1) {
      data_chunk item;
      //if no item for process, get a group of items from the pipeline
      if (fetch_count == fetch_start) {
  40a04a:	8b 85 5c c6 fe ff    	mov    -0x139a4(%rbp),%eax
  40a050:	3b 85 64 c6 fe ff    	cmp    -0x1399c(%rbp),%eax
  40a056:	75 6e                	jne    40a0c6 <SerialIntegratedPipeline+0x141>
        int r = dequeue(&anchor_que[qid], &fetch_count, (void **)fetchbuf); 
  40a058:	48 8b 0d e1 09 a5 01 	mov    0x1a509e1(%rip),%rcx        # 1e5aa40 <anchor_que>
  40a05f:	8b 85 70 c6 fe ff    	mov    -0x13990(%rbp),%eax
  40a065:	48 63 d0             	movslq %eax,%rdx
  40a068:	48 89 d0             	mov    %rdx,%rax
  40a06b:	48 c1 e0 02          	shl    $0x2,%rax
  40a06f:	48 01 d0             	add    %rdx,%rax
  40a072:	48 c1 e0 02          	shl    $0x2,%rax
  40a076:	48 01 d0             	add    %rdx,%rax
  40a079:	48 c1 e0 03          	shl    $0x3,%rax
  40a07d:	48 01 c1             	add    %rax,%rcx
  40a080:	48 8d 95 70 c7 fe ff 	lea    -0x13890(%rbp),%rdx
  40a087:	48 8d 85 5c c6 fe ff 	lea    -0x139a4(%rbp),%rax
  40a08e:	48 89 c6             	mov    %rax,%rsi
  40a091:	48 89 cf             	mov    %rcx,%rdi
  40a094:	e8 c9 2e 00 00       	callq  40cf62 <dequeue>
  40a099:	89 85 74 c6 fe ff    	mov    %eax,-0x1398c(%rbp)
        if (r < 0) break;
  40a09f:	83 bd 74 c6 fe ff 00 	cmpl   $0x0,-0x1398c(%rbp)
  40a0a6:	79 14                	jns    40a0bc <SerialIntegratedPipeline+0x137>
  40a0a8:	90                   	nop

          MEM_FREE(item.start);
        }
    }  

    if (tmpsend_count > 0) {
  40a0a9:	8b 85 60 c6 fe ff    	mov    -0x139a0(%rbp),%eax
  40a0af:	85 c0                	test   %eax,%eax
  40a0b1:	0f 8e 95 06 00 00    	jle    40a74c <SerialIntegratedPipeline+0x7c7>
  40a0b7:	e9 4f 06 00 00       	jmpq   40a70b <SerialIntegratedPipeline+0x786>
      //if no item for process, get a group of items from the pipeline
      if (fetch_count == fetch_start) {
        int r = dequeue(&anchor_que[qid], &fetch_count, (void **)fetchbuf); 
        if (r < 0) break;
        
        fetch_start = 0;
  40a0bc:	c7 85 64 c6 fe ff 00 	movl   $0x0,-0x1399c(%rbp)
  40a0c3:	00 00 00 
      }
          
        if (fetch_start < fetch_count) {
  40a0c6:	8b 85 5c c6 fe ff    	mov    -0x139a4(%rbp),%eax
  40a0cc:	39 85 64 c6 fe ff    	cmp    %eax,-0x1399c(%rbp)
  40a0d2:	0f 8d 2e 06 00 00    	jge    40a706 <SerialIntegratedPipeline+0x781>
          //get one item
          item.start = fetchbuf[fetch_start]->start;
  40a0d8:	8b 85 64 c6 fe ff    	mov    -0x1399c(%rbp),%eax
  40a0de:	48 98                	cltq   
  40a0e0:	48 8b 84 c5 70 c7 fe 	mov    -0x13890(%rbp,%rax,8),%rax
  40a0e7:	ff 
  40a0e8:	48 8b 00             	mov    (%rax),%rax
  40a0eb:	48 89 85 b0 c6 fe ff 	mov    %rax,-0x13950(%rbp)
          item.len = fetchbuf[fetch_start]->len;
  40a0f2:	8b 85 64 c6 fe ff    	mov    -0x1399c(%rbp),%eax
  40a0f8:	48 98                	cltq   
  40a0fa:	48 8b 84 c5 70 c7 fe 	mov    -0x13890(%rbp,%rax,8),%rax
  40a101:	ff 
  40a102:	48 8b 40 08          	mov    0x8(%rax),%rax
  40a106:	48 89 85 b8 c6 fe ff 	mov    %rax,-0x13948(%rbp)
          item.anchorid = fetchbuf[fetch_start]->anchorid;
  40a10d:	8b 85 64 c6 fe ff    	mov    -0x1399c(%rbp),%eax
  40a113:	48 98                	cltq   
  40a115:	48 8b 84 c5 70 c7 fe 	mov    -0x13890(%rbp,%rax,8),%rax
  40a11c:	ff 
  40a11d:	8b 40 10             	mov    0x10(%rax),%eax
  40a120:	89 85 c0 c6 fe ff    	mov    %eax,-0x13940(%rbp)
          fetch_start = (fetch_start + 1)%MAX_PER_FETCH;
  40a126:	8b 85 64 c6 fe ff    	mov    -0x1399c(%rbp),%eax
  40a12c:	8d 48 01             	lea    0x1(%rax),%ecx
  40a12f:	ba ad 8b db 68       	mov    $0x68db8bad,%edx
  40a134:	89 c8                	mov    %ecx,%eax
  40a136:	f7 ea                	imul   %edx
  40a138:	c1 fa 0c             	sar    $0xc,%edx
  40a13b:	89 c8                	mov    %ecx,%eax
  40a13d:	c1 f8 1f             	sar    $0x1f,%eax
  40a140:	29 c2                	sub    %eax,%edx
  40a142:	89 d0                	mov    %edx,%eax
  40a144:	89 85 64 c6 fe ff    	mov    %eax,-0x1399c(%rbp)
  40a14a:	8b 85 64 c6 fe ff    	mov    -0x1399c(%rbp),%eax
  40a150:	69 c0 10 27 00 00    	imul   $0x2710,%eax,%eax
  40a156:	29 c1                	sub    %eax,%ecx
  40a158:	89 c8                	mov    %ecx,%eax
  40a15a:	89 85 64 c6 fe ff    	mov    %eax,-0x1399c(%rbp)
    
          rabininit(rf_win, rabintab, rabinwintab);
  40a160:	8b 05 22 09 e5 01    	mov    0x1e50922(%rip),%eax        # 225aa88 <rf_win>
  40a166:	48 8b 95 98 c6 fe ff 	mov    -0x13968(%rbp),%rdx
  40a16d:	48 8b 8d 90 c6 fe ff 	mov    -0x13970(%rbp),%rcx
  40a174:	48 89 ce             	mov    %rcx,%rsi
  40a177:	89 c7                	mov    %eax,%edi
  40a179:	e8 7d 32 00 00       	callq  40d3fb <rabininit>
          
          u_char * p;
          
          u_int32 chcount = 0;
  40a17e:	c7 85 68 c6 fe ff 00 	movl   $0x0,-0x13998(%rbp)
  40a185:	00 00 00 
          u_char * anchor = item.start;
  40a188:	48 8b 85 b0 c6 fe ff 	mov    -0x13950(%rbp),%rax
  40a18f:	48 89 85 80 c6 fe ff 	mov    %rax,-0x13980(%rbp)
          p = item.start;
  40a196:	48 8b 85 b0 c6 fe ff 	mov    -0x13950(%rbp),%rax
  40a19d:	48 89 85 78 c6 fe ff 	mov    %rax,-0x13988(%rbp)
          int n = MAX_RABIN_CHUNK_SIZE;
  40a1a4:	c7 85 6c c6 fe ff 00 	movl   $0xf000,-0x13994(%rbp)
  40a1ab:	f0 00 00 
          while(p < item.start+item.len) {
  40a1ae:	e9 a3 02 00 00       	jmpq   40a456 <SerialIntegratedPipeline+0x4d1>
            if (item.len + item.start - p < n) {
  40a1b3:	48 8b 95 b0 c6 fe ff 	mov    -0x13950(%rbp),%rdx
  40a1ba:	48 8b 85 b8 c6 fe ff 	mov    -0x13948(%rbp),%rax
  40a1c1:	48 01 d0             	add    %rdx,%rax
  40a1c4:	48 89 c2             	mov    %rax,%rdx
  40a1c7:	48 8b 85 78 c6 fe ff 	mov    -0x13988(%rbp),%rax
  40a1ce:	48 29 c2             	sub    %rax,%rdx
  40a1d1:	8b 85 6c c6 fe ff    	mov    -0x13994(%rbp),%eax
  40a1d7:	48 98                	cltq   
  40a1d9:	48 39 c2             	cmp    %rax,%rdx
  40a1dc:	7d 27                	jge    40a205 <SerialIntegratedPipeline+0x280>
              n = item.len +item.start -p;
  40a1de:	48 8b 95 b0 c6 fe ff 	mov    -0x13950(%rbp),%rdx
  40a1e5:	48 8b 85 b8 c6 fe ff 	mov    -0x13948(%rbp),%rax
  40a1ec:	48 01 d0             	add    %rdx,%rax
  40a1ef:	48 89 c2             	mov    %rax,%rdx
  40a1f2:	48 8b 85 78 c6 fe ff 	mov    -0x13988(%rbp),%rax
  40a1f9:	48 29 c2             	sub    %rax,%rdx
  40a1fc:	48 89 d0             	mov    %rdx,%rax
  40a1ff:	89 85 6c c6 fe ff    	mov    %eax,-0x13994(%rbp)
            }
            //find next anchor
            p = p + rabinseg(p, n, rf_win, rabintab, rabinwintab);
  40a205:	8b 15 7d 08 e5 01    	mov    0x1e5087d(%rip),%edx        # 225aa88 <rf_win>
  40a20b:	48 8b bd 98 c6 fe ff 	mov    -0x13968(%rbp),%rdi
  40a212:	48 8b 8d 90 c6 fe ff 	mov    -0x13970(%rbp),%rcx
  40a219:	8b b5 6c c6 fe ff    	mov    -0x13994(%rbp),%esi
  40a21f:	48 8b 85 78 c6 fe ff 	mov    -0x13988(%rbp),%rax
  40a226:	49 89 f8             	mov    %rdi,%r8
  40a229:	48 89 c7             	mov    %rax,%rdi
  40a22c:	e8 0e 32 00 00       	callq  40d43f <rabinseg>
  40a231:	48 98                	cltq   
  40a233:	48 01 85 78 c6 fe ff 	add    %rax,-0x13988(%rbp)
          
            //insert into anchor queue: (anchor, p-src+1)
            tmpbuf = (data_chunk *)malloc(sizeof(data_chunk));
  40a23a:	bf 18 00 00 00       	mov    $0x18,%edi
  40a23f:	e8 0c cb ff ff       	callq  406d50 <malloc@plt>
  40a244:	48 89 85 a0 c6 fe ff 	mov    %rax,-0x13960(%rbp)
            if(tmpbuf == NULL) {
  40a24b:	48 83 bd a0 c6 fe ff 	cmpq   $0x0,-0x13960(%rbp)
  40a252:	00 
  40a253:	75 28                	jne    40a27d <SerialIntegratedPipeline+0x2f8>
              EXIT_TRACE("Memory allocation failed.\n");
  40a255:	48 8b 05 24 e7 24 00 	mov    0x24e724(%rip),%rax        # 658980 <stderr@@GLIBC_2.2.5>
  40a25c:	ba f0 84 43 00       	mov    $0x4384f0,%edx
  40a261:	be 90 82 43 00       	mov    $0x438290,%esi
  40a266:	48 89 c7             	mov    %rax,%rdi
  40a269:	b8 00 00 00 00       	mov    $0x0,%eax
  40a26e:	e8 1d cd ff ff       	callq  406f90 <fprintf@plt>
  40a273:	bf ff ff ff ff       	mov    $0xffffffff,%edi
  40a278:	e8 a3 ca ff ff       	callq  406d20 <exit@plt>
            }

            tmpbuf->start = (u_char *)malloc(p - anchor + 1);
  40a27d:	48 8b 95 78 c6 fe ff 	mov    -0x13988(%rbp),%rdx
  40a284:	48 8b 85 80 c6 fe ff 	mov    -0x13980(%rbp),%rax
  40a28b:	48 29 c2             	sub    %rax,%rdx
  40a28e:	48 89 d0             	mov    %rdx,%rax
  40a291:	48 83 c0 01          	add    $0x1,%rax
  40a295:	48 89 c7             	mov    %rax,%rdi
  40a298:	e8 b3 ca ff ff       	callq  406d50 <malloc@plt>
  40a29d:	48 89 c2             	mov    %rax,%rdx
  40a2a0:	48 8b 85 a0 c6 fe ff 	mov    -0x13960(%rbp),%rax
  40a2a7:	48 89 10             	mov    %rdx,(%rax)
            if(tmpbuf->start == NULL) {
  40a2aa:	48 8b 85 a0 c6 fe ff 	mov    -0x13960(%rbp),%rax
  40a2b1:	48 8b 00             	mov    (%rax),%rax
  40a2b4:	48 85 c0             	test   %rax,%rax
  40a2b7:	75 28                	jne    40a2e1 <SerialIntegratedPipeline+0x35c>
              EXIT_TRACE("Memory allocation failed.\n");
  40a2b9:	48 8b 05 c0 e6 24 00 	mov    0x24e6c0(%rip),%rax        # 658980 <stderr@@GLIBC_2.2.5>
  40a2c0:	ba f0 84 43 00       	mov    $0x4384f0,%edx
  40a2c5:	be 90 82 43 00       	mov    $0x438290,%esi
  40a2ca:	48 89 c7             	mov    %rax,%rdi
  40a2cd:	b8 00 00 00 00       	mov    $0x0,%eax
  40a2d2:	e8 b9 cc ff ff       	callq  406f90 <fprintf@plt>
  40a2d7:	bf ff ff ff ff       	mov    $0xffffffff,%edi
  40a2dc:	e8 3f ca ff ff       	callq  406d20 <exit@plt>
            }
            tmpbuf->len = p-anchor;
  40a2e1:	48 8b 95 78 c6 fe ff 	mov    -0x13988(%rbp),%rdx
  40a2e8:	48 8b 85 80 c6 fe ff 	mov    -0x13980(%rbp),%rax
  40a2ef:	48 29 c2             	sub    %rax,%rdx
  40a2f2:	48 89 d0             	mov    %rdx,%rax
  40a2f5:	48 89 c2             	mov    %rax,%rdx
  40a2f8:	48 8b 85 a0 c6 fe ff 	mov    -0x13960(%rbp),%rax
  40a2ff:	48 89 50 08          	mov    %rdx,0x8(%rax)
            tmpbuf->anchorid = item.anchorid;
  40a303:	8b 95 c0 c6 fe ff    	mov    -0x13940(%rbp),%edx
  40a309:	48 8b 85 a0 c6 fe ff 	mov    -0x13960(%rbp),%rax
  40a310:	89 50 10             	mov    %edx,0x10(%rax)
            tmpbuf->cid = chcount;
  40a313:	48 8b 85 a0 c6 fe ff 	mov    -0x13960(%rbp),%rax
  40a31a:	8b 95 68 c6 fe ff    	mov    -0x13998(%rbp),%edx
  40a320:	89 50 14             	mov    %edx,0x14(%rax)
              
            chcount++;              
  40a323:	83 85 68 c6 fe ff 01 	addl   $0x1,-0x13998(%rbp)
            chunks_per_anchor[item.anchorid] = chcount;
  40a32a:	8b 95 c0 c6 fe ff    	mov    -0x13940(%rbp),%edx
  40a330:	8b 85 68 c6 fe ff    	mov    -0x13998(%rbp),%eax
  40a336:	89 d2                	mov    %edx,%edx
  40a338:	89 04 95 80 aa e5 01 	mov    %eax,0x1e5aa80(,%rdx,4)
            memcpy(tmpbuf->start, anchor, p-anchor);
  40a33f:	48 8b 95 78 c6 fe ff 	mov    -0x13988(%rbp),%rdx
  40a346:	48 8b 85 80 c6 fe ff 	mov    -0x13980(%rbp),%rax
  40a34d:	48 29 c2             	sub    %rax,%rdx
  40a350:	48 89 d0             	mov    %rdx,%rax
  40a353:	48 89 c2             	mov    %rax,%rdx
  40a356:	48 8b 85 a0 c6 fe ff 	mov    -0x13960(%rbp),%rax
  40a35d:	48 8b 00             	mov    (%rax),%rax
  40a360:	48 8b 8d 80 c6 fe ff 	mov    -0x13980(%rbp),%rcx
  40a367:	48 89 ce             	mov    %rcx,%rsi
  40a36a:	48 89 c7             	mov    %rax,%rdi
  40a36d:	e8 7e cc ff ff       	callq  406ff0 <memcpy@plt>
            tmpbuf->start[p-anchor] = 0;
  40a372:	48 8b 85 a0 c6 fe ff 	mov    -0x13960(%rbp),%rax
  40a379:	48 8b 00             	mov    (%rax),%rax
  40a37c:	48 8b 8d 78 c6 fe ff 	mov    -0x13988(%rbp),%rcx
  40a383:	48 8b 95 80 c6 fe ff 	mov    -0x13980(%rbp),%rdx
  40a38a:	48 29 d1             	sub    %rdx,%rcx
  40a38d:	48 89 ca             	mov    %rcx,%rdx
  40a390:	48 01 d0             	add    %rdx,%rax
  40a393:	c6 00 00             	movb   $0x0,(%rax)
              
            senditem = sub_ChunkProcess(*tmpbuf);
  40a396:	48 83 ec 08          	sub    $0x8,%rsp
  40a39a:	48 8b 85 a0 c6 fe ff 	mov    -0x13960(%rbp),%rax
  40a3a1:	ff 70 10             	pushq  0x10(%rax)
  40a3a4:	ff 70 08             	pushq  0x8(%rax)
  40a3a7:	ff 30                	pushq  (%rax)
  40a3a9:	e8 1b ec ff ff       	callq  408fc9 <sub_ChunkProcess>
  40a3ae:	48 83 c4 20          	add    $0x20,%rsp
  40a3b2:	48 89 85 a8 c6 fe ff 	mov    %rax,-0x13958(%rbp)

            if (senditem->type == TYPE_COMPRESS) {
  40a3b9:	48 8b 85 a8 c6 fe ff 	mov    -0x13958(%rbp),%rax
  40a3c0:	0f b6 00             	movzbl (%rax),%eax
  40a3c3:	3c 01                	cmp    $0x1,%al
  40a3c5:	75 0f                	jne    40a3d6 <SerialIntegratedPipeline+0x451>
              sub_Compress(senditem);
  40a3c7:	48 8b 85 a8 c6 fe ff 	mov    -0x13958(%rbp),%rax
  40a3ce:	48 89 c7             	mov    %rax,%rdi
  40a3d1:	e8 a3 e6 ff ff       	callq  408a79 <sub_Compress>
            } 

            tmpsendbuf[tmpsend_count] = senditem;
  40a3d6:	8b 85 60 c6 fe ff    	mov    -0x139a0(%rbp),%eax
  40a3dc:	48 98                	cltq   
  40a3de:	48 8b 95 a8 c6 fe ff 	mov    -0x13958(%rbp),%rdx
  40a3e5:	48 89 94 c5 d0 c6 fe 	mov    %rdx,-0x13930(%rbp,%rax,8)
  40a3ec:	ff 
            tmpsend_count ++;
  40a3ed:	8b 85 60 c6 fe ff    	mov    -0x139a0(%rbp),%eax
  40a3f3:	83 c0 01             	add    $0x1,%eax
  40a3f6:	89 85 60 c6 fe ff    	mov    %eax,-0x139a0(%rbp)
              
            if (tmpsend_count >= ITEM_PER_INSERT) {
  40a3fc:	8b 85 60 c6 fe ff    	mov    -0x139a0(%rbp),%eax
  40a402:	83 f8 13             	cmp    $0x13,%eax
  40a405:	7e 41                	jle    40a448 <SerialIntegratedPipeline+0x4c3>
              enqueue(&send_que[qid], &tmpsend_count, (void **)tmpsendbuf);
  40a407:	48 8b 0d 42 06 a5 01 	mov    0x1a50642(%rip),%rcx        # 1e5aa50 <send_que>
  40a40e:	8b 85 70 c6 fe ff    	mov    -0x13990(%rbp),%eax
  40a414:	48 63 d0             	movslq %eax,%rdx
  40a417:	48 89 d0             	mov    %rdx,%rax
  40a41a:	48 c1 e0 02          	shl    $0x2,%rax
  40a41e:	48 01 d0             	add    %rdx,%rax
  40a421:	48 c1 e0 02          	shl    $0x2,%rax
  40a425:	48 01 d0             	add    %rdx,%rax
  40a428:	48 c1 e0 03          	shl    $0x3,%rax
  40a42c:	48 01 c1             	add    %rax,%rcx
  40a42f:	48 8d 95 d0 c6 fe ff 	lea    -0x13930(%rbp),%rdx
  40a436:	48 8d 85 60 c6 fe ff 	lea    -0x139a0(%rbp),%rax
  40a43d:	48 89 c6             	mov    %rax,%rsi
  40a440:	48 89 cf             	mov    %rcx,%rdi
  40a443:	e8 a4 2c 00 00       	callq  40d0ec <enqueue>
            }

            anchor = p;
  40a448:	48 8b 85 78 c6 fe ff 	mov    -0x13988(%rbp),%rax
  40a44f:	48 89 85 80 c6 fe ff 	mov    %rax,-0x13980(%rbp)
          
          u_int32 chcount = 0;
          u_char * anchor = item.start;
          p = item.start;
          int n = MAX_RABIN_CHUNK_SIZE;
          while(p < item.start+item.len) {
  40a456:	48 8b 95 b0 c6 fe ff 	mov    -0x13950(%rbp),%rdx
  40a45d:	48 8b 85 b8 c6 fe ff 	mov    -0x13948(%rbp),%rax
  40a464:	48 01 d0             	add    %rdx,%rax
  40a467:	48 3b 85 78 c6 fe ff 	cmp    -0x13988(%rbp),%rax
  40a46e:	0f 87 3f fd ff ff    	ja     40a1b3 <SerialIntegratedPipeline+0x22e>

            anchor = p;
          } 

          //insert the remaining item to the anchor queue
          if (item.start + item.len - anchor > 0) {
  40a474:	48 8b 95 b0 c6 fe ff 	mov    -0x13950(%rbp),%rdx
  40a47b:	48 8b 85 b8 c6 fe ff 	mov    -0x13948(%rbp),%rax
  40a482:	48 01 d0             	add    %rdx,%rax
  40a485:	48 89 c2             	mov    %rax,%rdx
  40a488:	48 8b 85 80 c6 fe ff 	mov    -0x13980(%rbp),%rax
  40a48f:	48 29 c2             	sub    %rax,%rdx
  40a492:	48 89 d0             	mov    %rdx,%rax
  40a495:	48 85 c0             	test   %rax,%rax
  40a498:	0f 8e 42 02 00 00    	jle    40a6e0 <SerialIntegratedPipeline+0x75b>
            
            tmpbuf = (data_chunk*)malloc(sizeof(data_chunk));
  40a49e:	bf 18 00 00 00       	mov    $0x18,%edi
  40a4a3:	e8 a8 c8 ff ff       	callq  406d50 <malloc@plt>
  40a4a8:	48 89 85 a0 c6 fe ff 	mov    %rax,-0x13960(%rbp)
            if(tmpbuf == NULL) {
  40a4af:	48 83 bd a0 c6 fe ff 	cmpq   $0x0,-0x13960(%rbp)
  40a4b6:	00 
  40a4b7:	75 28                	jne    40a4e1 <SerialIntegratedPipeline+0x55c>
              EXIT_TRACE("Memory allocation failed.\n");
  40a4b9:	48 8b 05 c0 e4 24 00 	mov    0x24e4c0(%rip),%rax        # 658980 <stderr@@GLIBC_2.2.5>
  40a4c0:	ba f0 84 43 00       	mov    $0x4384f0,%edx
  40a4c5:	be 90 82 43 00       	mov    $0x438290,%esi
  40a4ca:	48 89 c7             	mov    %rax,%rdi
  40a4cd:	b8 00 00 00 00       	mov    $0x0,%eax
  40a4d2:	e8 b9 ca ff ff       	callq  406f90 <fprintf@plt>
  40a4d7:	bf ff ff ff ff       	mov    $0xffffffff,%edi
  40a4dc:	e8 3f c8 ff ff       	callq  406d20 <exit@plt>
            }

            tmpbuf->start = (u_char *)malloc(item.start + item.len - anchor + 1);
  40a4e1:	48 8b 95 b0 c6 fe ff 	mov    -0x13950(%rbp),%rdx
  40a4e8:	48 8b 85 b8 c6 fe ff 	mov    -0x13948(%rbp),%rax
  40a4ef:	48 01 d0             	add    %rdx,%rax
  40a4f2:	48 89 c2             	mov    %rax,%rdx
  40a4f5:	48 8b 85 80 c6 fe ff 	mov    -0x13980(%rbp),%rax
  40a4fc:	48 29 c2             	sub    %rax,%rdx
  40a4ff:	48 89 d0             	mov    %rdx,%rax
  40a502:	48 83 c0 01          	add    $0x1,%rax
  40a506:	48 89 c7             	mov    %rax,%rdi
  40a509:	e8 42 c8 ff ff       	callq  406d50 <malloc@plt>
  40a50e:	48 89 c2             	mov    %rax,%rdx
  40a511:	48 8b 85 a0 c6 fe ff 	mov    -0x13960(%rbp),%rax
  40a518:	48 89 10             	mov    %rdx,(%rax)
            if(tmpbuf->start == NULL) {
  40a51b:	48 8b 85 a0 c6 fe ff 	mov    -0x13960(%rbp),%rax
  40a522:	48 8b 00             	mov    (%rax),%rax
  40a525:	48 85 c0             	test   %rax,%rax
  40a528:	75 28                	jne    40a552 <SerialIntegratedPipeline+0x5cd>
              EXIT_TRACE("Memory allocation failed.\n");
  40a52a:	48 8b 05 4f e4 24 00 	mov    0x24e44f(%rip),%rax        # 658980 <stderr@@GLIBC_2.2.5>
  40a531:	ba f0 84 43 00       	mov    $0x4384f0,%edx
  40a536:	be 90 82 43 00       	mov    $0x438290,%esi
  40a53b:	48 89 c7             	mov    %rax,%rdi
  40a53e:	b8 00 00 00 00       	mov    $0x0,%eax
  40a543:	e8 48 ca ff ff       	callq  406f90 <fprintf@plt>
  40a548:	bf ff ff ff ff       	mov    $0xffffffff,%edi
  40a54d:	e8 ce c7 ff ff       	callq  406d20 <exit@plt>
            }
            tmpbuf->len = item.start + item.len -anchor;
  40a552:	48 8b 95 b0 c6 fe ff 	mov    -0x13950(%rbp),%rdx
  40a559:	48 8b 85 b8 c6 fe ff 	mov    -0x13948(%rbp),%rax
  40a560:	48 01 d0             	add    %rdx,%rax
  40a563:	48 89 c2             	mov    %rax,%rdx
  40a566:	48 8b 85 80 c6 fe ff 	mov    -0x13980(%rbp),%rax
  40a56d:	48 29 c2             	sub    %rax,%rdx
  40a570:	48 89 d0             	mov    %rdx,%rax
  40a573:	48 89 c2             	mov    %rax,%rdx
  40a576:	48 8b 85 a0 c6 fe ff 	mov    -0x13960(%rbp),%rax
  40a57d:	48 89 50 08          	mov    %rdx,0x8(%rax)
            tmpbuf->cid = chcount;
  40a581:	48 8b 85 a0 c6 fe ff 	mov    -0x13960(%rbp),%rax
  40a588:	8b 95 68 c6 fe ff    	mov    -0x13998(%rbp),%edx
  40a58e:	89 50 14             	mov    %edx,0x14(%rax)
            tmpbuf->anchorid = item.anchorid;
  40a591:	8b 95 c0 c6 fe ff    	mov    -0x13940(%rbp),%edx
  40a597:	48 8b 85 a0 c6 fe ff 	mov    -0x13960(%rbp),%rax
  40a59e:	89 50 10             	mov    %edx,0x10(%rax)
            chcount ++;
  40a5a1:	83 85 68 c6 fe ff 01 	addl   $0x1,-0x13998(%rbp)
            chunks_per_anchor[item.anchorid] = chcount;
  40a5a8:	8b 95 c0 c6 fe ff    	mov    -0x13940(%rbp),%edx
  40a5ae:	8b 85 68 c6 fe ff    	mov    -0x13998(%rbp),%eax
  40a5b4:	89 d2                	mov    %edx,%edx
  40a5b6:	89 04 95 80 aa e5 01 	mov    %eax,0x1e5aa80(,%rdx,4)
            memcpy(tmpbuf->start, anchor, item.start + item.len -anchor);
  40a5bd:	48 8b 95 b0 c6 fe ff 	mov    -0x13950(%rbp),%rdx
  40a5c4:	48 8b 85 b8 c6 fe ff 	mov    -0x13948(%rbp),%rax
  40a5cb:	48 01 d0             	add    %rdx,%rax
  40a5ce:	48 89 c2             	mov    %rax,%rdx
  40a5d1:	48 8b 85 80 c6 fe ff 	mov    -0x13980(%rbp),%rax
  40a5d8:	48 29 c2             	sub    %rax,%rdx
  40a5db:	48 89 d0             	mov    %rdx,%rax
  40a5de:	48 89 c2             	mov    %rax,%rdx
  40a5e1:	48 8b 85 a0 c6 fe ff 	mov    -0x13960(%rbp),%rax
  40a5e8:	48 8b 00             	mov    (%rax),%rax
  40a5eb:	48 8b 8d 80 c6 fe ff 	mov    -0x13980(%rbp),%rcx
  40a5f2:	48 89 ce             	mov    %rcx,%rsi
  40a5f5:	48 89 c7             	mov    %rax,%rdi
  40a5f8:	e8 f3 c9 ff ff       	callq  406ff0 <memcpy@plt>
            tmpbuf->start[item.start + item.len -anchor] = 0;
  40a5fd:	48 8b 85 a0 c6 fe ff 	mov    -0x13960(%rbp),%rax
  40a604:	48 8b 00             	mov    (%rax),%rax
  40a607:	48 8b 8d b0 c6 fe ff 	mov    -0x13950(%rbp),%rcx
  40a60e:	48 8b 95 b8 c6 fe ff 	mov    -0x13948(%rbp),%rdx
  40a615:	48 01 ca             	add    %rcx,%rdx
  40a618:	48 89 d1             	mov    %rdx,%rcx
  40a61b:	48 8b 95 80 c6 fe ff 	mov    -0x13980(%rbp),%rdx
  40a622:	48 29 d1             	sub    %rdx,%rcx
  40a625:	48 89 ca             	mov    %rcx,%rdx
  40a628:	48 01 d0             	add    %rdx,%rax
  40a62b:	c6 00 00             	movb   $0x0,(%rax)
            
  
            senditem = sub_ChunkProcess(*tmpbuf);
  40a62e:	48 83 ec 08          	sub    $0x8,%rsp
  40a632:	48 8b 85 a0 c6 fe ff 	mov    -0x13960(%rbp),%rax
  40a639:	ff 70 10             	pushq  0x10(%rax)
  40a63c:	ff 70 08             	pushq  0x8(%rax)
  40a63f:	ff 30                	pushq  (%rax)
  40a641:	e8 83 e9 ff ff       	callq  408fc9 <sub_ChunkProcess>
  40a646:	48 83 c4 20          	add    $0x20,%rsp
  40a64a:	48 89 85 a8 c6 fe ff 	mov    %rax,-0x13958(%rbp)
            
            if (senditem->type == TYPE_COMPRESS) {
  40a651:	48 8b 85 a8 c6 fe ff 	mov    -0x13958(%rbp),%rax
  40a658:	0f b6 00             	movzbl (%rax),%eax
  40a65b:	3c 01                	cmp    $0x1,%al
  40a65d:	75 0f                	jne    40a66e <SerialIntegratedPipeline+0x6e9>
              sub_Compress(senditem);
  40a65f:	48 8b 85 a8 c6 fe ff 	mov    -0x13958(%rbp),%rax
  40a666:	48 89 c7             	mov    %rax,%rdi
  40a669:	e8 0b e4 ff ff       	callq  408a79 <sub_Compress>
            } 
            
            tmpsendbuf[tmpsend_count] = senditem;
  40a66e:	8b 85 60 c6 fe ff    	mov    -0x139a0(%rbp),%eax
  40a674:	48 98                	cltq   
  40a676:	48 8b 95 a8 c6 fe ff 	mov    -0x13958(%rbp),%rdx
  40a67d:	48 89 94 c5 d0 c6 fe 	mov    %rdx,-0x13930(%rbp,%rax,8)
  40a684:	ff 
            tmpsend_count ++;
  40a685:	8b 85 60 c6 fe ff    	mov    -0x139a0(%rbp),%eax
  40a68b:	83 c0 01             	add    $0x1,%eax
  40a68e:	89 85 60 c6 fe ff    	mov    %eax,-0x139a0(%rbp)
            
            if (tmpsend_count >= ITEM_PER_INSERT) {
  40a694:	8b 85 60 c6 fe ff    	mov    -0x139a0(%rbp),%eax
  40a69a:	83 f8 13             	cmp    $0x13,%eax
  40a69d:	7e 41                	jle    40a6e0 <SerialIntegratedPipeline+0x75b>
              enqueue(&send_que[qid], &tmpsend_count, (void **)tmpsendbuf);
  40a69f:	48 8b 0d aa 03 a5 01 	mov    0x1a503aa(%rip),%rcx        # 1e5aa50 <send_que>
  40a6a6:	8b 85 70 c6 fe ff    	mov    -0x13990(%rbp),%eax
  40a6ac:	48 63 d0             	movslq %eax,%rdx
  40a6af:	48 89 d0             	mov    %rdx,%rax
  40a6b2:	48 c1 e0 02          	shl    $0x2,%rax
  40a6b6:	48 01 d0             	add    %rdx,%rax
  40a6b9:	48 c1 e0 02          	shl    $0x2,%rax
  40a6bd:	48 01 d0             	add    %rdx,%rax
  40a6c0:	48 c1 e0 03          	shl    $0x3,%rax
  40a6c4:	48 01 c1             	add    %rax,%rcx
  40a6c7:	48 8d 95 d0 c6 fe ff 	lea    -0x13930(%rbp),%rdx
  40a6ce:	48 8d 85 60 c6 fe ff 	lea    -0x139a0(%rbp),%rax
  40a6d5:	48 89 c6             	mov    %rax,%rsi
  40a6d8:	48 89 cf             	mov    %rcx,%rdi
  40a6db:	e8 0c 2a 00 00       	callq  40d0ec <enqueue>
            }
          }

          MEM_FREE(item.start);
  40a6e0:	48 8b 85 b0 c6 fe ff 	mov    -0x13950(%rbp),%rax
  40a6e7:	48 85 c0             	test   %rax,%rax
  40a6ea:	74 1a                	je     40a706 <SerialIntegratedPipeline+0x781>
  40a6ec:	48 8b 85 b0 c6 fe ff 	mov    -0x13950(%rbp),%rax
  40a6f3:	48 89 c7             	mov    %rax,%rdi
  40a6f6:	e8 a5 c6 ff ff       	callq  406da0 <free@plt>
  40a6fb:	48 c7 85 b0 c6 fe ff 	movq   $0x0,-0x13950(%rbp)
  40a702:	00 00 00 00 
        }
    }  
  40a706:	e9 3f f9 ff ff       	jmpq   40a04a <SerialIntegratedPipeline+0xc5>

    if (tmpsend_count > 0) {
      enqueue(&send_que[qid], &tmpsend_count, (void **)tmpsendbuf);
  40a70b:	48 8b 0d 3e 03 a5 01 	mov    0x1a5033e(%rip),%rcx        # 1e5aa50 <send_que>
  40a712:	8b 85 70 c6 fe ff    	mov    -0x13990(%rbp),%eax
  40a718:	48 63 d0             	movslq %eax,%rdx
  40a71b:	48 89 d0             	mov    %rdx,%rax
  40a71e:	48 c1 e0 02          	shl    $0x2,%rax
  40a722:	48 01 d0             	add    %rdx,%rax
  40a725:	48 c1 e0 02          	shl    $0x2,%rax
  40a729:	48 01 d0             	add    %rdx,%rax
  40a72c:	48 c1 e0 03          	shl    $0x3,%rax
  40a730:	48 01 c1             	add    %rax,%rcx
  40a733:	48 8d 95 d0 c6 fe ff 	lea    -0x13930(%rbp),%rdx
  40a73a:	48 8d 85 60 c6 fe ff 	lea    -0x139a0(%rbp),%rax
  40a741:	48 89 c6             	mov    %rax,%rsi
  40a744:	48 89 cf             	mov    %rcx,%rdi
  40a747:	e8 a0 29 00 00       	callq  40d0ec <enqueue>
    }
  
  //count the number of compress threads that have finished
    queue_signal_terminate(&send_que[qid]);
  40a74c:	48 8b 0d fd 02 a5 01 	mov    0x1a502fd(%rip),%rcx        # 1e5aa50 <send_que>
  40a753:	8b 85 70 c6 fe ff    	mov    -0x13990(%rbp),%eax
  40a759:	48 63 d0             	movslq %eax,%rdx
  40a75c:	48 89 d0             	mov    %rdx,%rax
  40a75f:	48 c1 e0 02          	shl    $0x2,%rax
  40a763:	48 01 d0             	add    %rdx,%rax
  40a766:	48 c1 e0 02          	shl    $0x2,%rax
  40a76a:	48 01 d0             	add    %rdx,%rax
  40a76d:	48 c1 e0 03          	shl    $0x3,%rax
  40a771:	48 01 c8             	add    %rcx,%rax
  40a774:	48 89 c7             	mov    %rax,%rdi
  40a777:	e8 97 27 00 00       	callq  40cf13 <queue_signal_terminate>
    
  return NULL;
  40a77c:	b8 00 00 00 00       	mov    $0x0,%eax
}
  40a781:	48 8b 75 f8          	mov    -0x8(%rbp),%rsi
  40a785:	64 48 33 34 25 28 00 	xor    %fs:0x28,%rsi
  40a78c:	00 00 
  40a78e:	74 05                	je     40a795 <SerialIntegratedPipeline+0x810>
  40a790:	e8 2b c7 ff ff       	callq  406ec0 <__stack_chk_fail@plt>
  40a795:	c9                   	leaveq 
  40a796:	c3                   	retq   

000000000040a797 <DataProcess>:

/*
 * read file and send it to FindAllAnchor thread
 */
void * 
DataProcess(void * targs){
  40a797:	55                   	push   %rbp
  40a798:	48 89 e5             	mov    %rsp,%rbp
  40a79b:	53                   	push   %rbx
  40a79c:	48 81 ec a8 00 00 00 	sub    $0xa8,%rsp
  40a7a3:	48 89 bd 58 ff ff ff 	mov    %rdi,-0xa8(%rbp)
  40a7aa:	64 48 8b 04 25 28 00 	mov    %fs:0x28,%rax
  40a7b1:	00 00 
  40a7b3:	48 89 45 e8          	mov    %rax,-0x18(%rbp)
  40a7b7:	31 c0                	xor    %eax,%eax
  struct thread_args *args = (struct thread_args *)targs;
  40a7b9:	48 8b 85 58 ff ff ff 	mov    -0xa8(%rbp),%rax
  40a7c0:	48 89 45 b0          	mov    %rax,-0x50(%rbp)
  int qid = 0;
  40a7c4:	c7 85 74 ff ff ff 00 	movl   $0x0,-0x8c(%rbp)
  40a7cb:	00 00 00 
  int fd = args->fd;
  40a7ce:	48 8b 45 b0          	mov    -0x50(%rbp),%rax
  40a7d2:	8b 40 08             	mov    0x8(%rax),%eax
  40a7d5:	89 45 8c             	mov    %eax,-0x74(%rbp)
  u_long tmp;
  u_char * p;
  //int avg_bsize = 0;
  fprintf(stderr, "%d : DataProcess\n", getpid()); 
  40a7d8:	e8 93 c5 ff ff       	callq  406d70 <getpid@plt>
  40a7dd:	89 c2                	mov    %eax,%edx
  40a7df:	48 8b 05 9a e1 24 00 	mov    0x24e19a(%rip),%rax        # 658980 <stderr@@GLIBC_2.2.5>
  40a7e6:	be 1f 83 43 00       	mov    $0x43831f,%esi
  40a7eb:	48 89 c7             	mov    %rax,%rdi
  40a7ee:	b8 00 00 00 00       	mov    $0x0,%eax
  40a7f3:	e8 98 c7 ff ff       	callq  406f90 <fprintf@plt>
  u_char * anchor;
  
  u_char * src = (u_char *)malloc(MAXBUF*2);
  40a7f8:	bf 00 00 00 02       	mov    $0x2000000,%edi
  40a7fd:	e8 4e c5 ff ff       	callq  406d50 <malloc@plt>
  40a802:	48 89 45 b8          	mov    %rax,-0x48(%rbp)
  u_char * left = (u_char *)malloc(MAXBUF);
  40a806:	bf 00 00 00 01       	mov    $0x1000000,%edi
  40a80b:	e8 40 c5 ff ff       	callq  406d50 <malloc@plt>
  40a810:	48 89 45 c0          	mov    %rax,-0x40(%rbp)
  u_char * new = (u_char *) malloc(MAXBUF);
  40a814:	bf 00 00 00 01       	mov    $0x1000000,%edi
  40a819:	e8 32 c5 ff ff       	callq  406d50 <malloc@plt>
  40a81e:	48 89 45 c8          	mov    %rax,-0x38(%rbp)
  if(src == NULL || left == NULL || new == NULL) {
  40a822:	48 83 7d b8 00       	cmpq   $0x0,-0x48(%rbp)
  40a827:	74 0e                	je     40a837 <DataProcess+0xa0>
  40a829:	48 83 7d c0 00       	cmpq   $0x0,-0x40(%rbp)
  40a82e:	74 07                	je     40a837 <DataProcess+0xa0>
  40a830:	48 83 7d c8 00       	cmpq   $0x0,-0x38(%rbp)
  40a835:	75 28                	jne    40a85f <DataProcess+0xc8>
    EXIT_TRACE("Memory allocation failed.\n");
  40a837:	48 8b 05 42 e1 24 00 	mov    0x24e142(%rip),%rax        # 658980 <stderr@@GLIBC_2.2.5>
  40a83e:	ba 09 85 43 00       	mov    $0x438509,%edx
  40a843:	be 90 82 43 00       	mov    $0x438290,%esi
  40a848:	48 89 c7             	mov    %rax,%rdi
  40a84b:	b8 00 00 00 00       	mov    $0x0,%eax
  40a850:	e8 3b c7 ff ff       	callq  406f90 <fprintf@plt>
  40a855:	bf ff ff ff ff       	mov    $0xffffffff,%edi
  40a85a:	e8 c1 c4 ff ff       	callq  406d20 <exit@plt>
  }
  int srclen, left_bytes = 0;
  40a85f:	c7 85 7c ff ff ff 00 	movl   $0x0,-0x84(%rbp)
  40a866:	00 00 00 
  char more = 0;
  40a869:	c6 85 6f ff ff ff 00 	movb   $0x0,-0x91(%rbp)

  data_chunk * tmpbuf[ANCHOR_DATA_PER_INSERT];
  int tmp_count = 0;
  40a870:	c7 85 70 ff ff ff 00 	movl   $0x0,-0x90(%rbp)
  40a877:	00 00 00 

  int anchorcount = 0;
  40a87a:	c7 45 80 00 00 00 00 	movl   $0x0,-0x80(%rbp)

  u32int * rabintab = malloc(256*sizeof rabintab[0]);
  40a881:	bf 00 04 00 00       	mov    $0x400,%edi
  40a886:	e8 c5 c4 ff ff       	callq  406d50 <malloc@plt>
  40a88b:	48 89 45 d0          	mov    %rax,-0x30(%rbp)
  u32int * rabinwintab = malloc(256*sizeof rabintab[0]);
  40a88f:	bf 00 04 00 00       	mov    $0x400,%edi
  40a894:	e8 b7 c4 ff ff       	callq  406d50 <malloc@plt>
  40a899:	48 89 45 d8          	mov    %rax,-0x28(%rbp)
  if(rabintab == NULL || rabinwintab == NULL) {
  40a89d:	48 83 7d d0 00       	cmpq   $0x0,-0x30(%rbp)
  40a8a2:	74 07                	je     40a8ab <DataProcess+0x114>
  40a8a4:	48 83 7d d8 00       	cmpq   $0x0,-0x28(%rbp)
  40a8a9:	75 28                	jne    40a8d3 <DataProcess+0x13c>
    EXIT_TRACE("Memory allocation failed.\n");
  40a8ab:	48 8b 05 ce e0 24 00 	mov    0x24e0ce(%rip),%rax        # 658980 <stderr@@GLIBC_2.2.5>
  40a8b2:	ba 09 85 43 00       	mov    $0x438509,%edx
  40a8b7:	be 90 82 43 00       	mov    $0x438290,%esi
  40a8bc:	48 89 c7             	mov    %rax,%rdi
  40a8bf:	b8 00 00 00 00       	mov    $0x0,%eax
  40a8c4:	e8 c7 c6 ff ff       	callq  406f90 <fprintf@plt>
  40a8c9:	bf ff ff ff ff       	mov    $0xffffffff,%edi
  40a8ce:	e8 4d c4 ff ff       	callq  406d20 <exit@plt>
  }

  rf_win_dataprocess = 0;
  40a8d3:	c7 05 af 01 e5 01 00 	movl   $0x0,0x1e501af(%rip)        # 225aa8c <rf_win_dataprocess>
  40a8da:	00 00 00 
  rabininit(rf_win_dataprocess, rabintab, rabinwintab);
  40a8dd:	8b 05 a9 01 e5 01    	mov    0x1e501a9(%rip),%eax        # 225aa8c <rf_win_dataprocess>
  40a8e3:	48 8b 55 d8          	mov    -0x28(%rbp),%rdx
  40a8e7:	48 8b 4d d0          	mov    -0x30(%rbp),%rcx
  40a8eb:	48 89 ce             	mov    %rcx,%rsi
  40a8ee:	89 c7                	mov    %eax,%edi
  40a8f0:	e8 06 2b 00 00       	callq  40d3fb <rabininit>
  int n = MAX_RABIN_CHUNK_SIZE;
  40a8f5:	c7 45 84 00 f0 00 00 	movl   $0xf000,-0x7c(%rbp)


  //read from the file
  while ((srclen = read(fd, new, MAXBUF)) >= 0) {    
  40a8fc:	e9 9b 03 00 00       	jmpq   40ac9c <DataProcess+0x505>
    if (srclen) more = 1;
  40a901:	83 bd 78 ff ff ff 00 	cmpl   $0x0,-0x88(%rbp)
  40a908:	74 09                	je     40a913 <DataProcess+0x17c>
  40a90a:	c6 85 6f ff ff ff 01 	movb   $0x1,-0x91(%rbp)
  40a911:	eb 15                	jmp    40a928 <DataProcess+0x191>
    else {
      if (!more) break;
  40a913:	80 bd 6f ff ff ff 00 	cmpb   $0x0,-0x91(%rbp)
  40a91a:	75 05                	jne    40a921 <DataProcess+0x18a>
  40a91c:	e9 a4 03 00 00       	jmpq   40acc5 <DataProcess+0x52e>
      more =0;
  40a921:	c6 85 6f ff ff ff 00 	movb   $0x0,-0x91(%rbp)
    }
    
    memset(src, 0, sizeof(u_char)*MAXBUF);
  40a928:	48 8b 45 b8          	mov    -0x48(%rbp),%rax
  40a92c:	ba 00 00 00 01       	mov    $0x1000000,%edx
  40a931:	be 00 00 00 00       	mov    $0x0,%esi
  40a936:	48 89 c7             	mov    %rax,%rdi
  40a939:	e8 42 c3 ff ff       	callq  406c80 <memset@plt>

    if (left_bytes > 0){ 
  40a93e:	83 bd 7c ff ff ff 00 	cmpl   $0x0,-0x84(%rbp)
  40a945:	7e 5c                	jle    40a9a3 <DataProcess+0x20c>
      memcpy(src, left, left_bytes* sizeof(u_char));
  40a947:	8b 85 7c ff ff ff    	mov    -0x84(%rbp),%eax
  40a94d:	48 63 d0             	movslq %eax,%rdx
  40a950:	48 8b 4d c0          	mov    -0x40(%rbp),%rcx
  40a954:	48 8b 45 b8          	mov    -0x48(%rbp),%rax
  40a958:	48 89 ce             	mov    %rcx,%rsi
  40a95b:	48 89 c7             	mov    %rax,%rdi
  40a95e:	e8 8d c6 ff ff       	callq  406ff0 <memcpy@plt>
      memcpy(src+left_bytes, new, srclen *sizeof(u_char));
  40a963:	8b 85 78 ff ff ff    	mov    -0x88(%rbp),%eax
  40a969:	48 63 d0             	movslq %eax,%rdx
  40a96c:	8b 85 7c ff ff ff    	mov    -0x84(%rbp),%eax
  40a972:	48 63 c8             	movslq %eax,%rcx
  40a975:	48 8b 45 b8          	mov    -0x48(%rbp),%rax
  40a979:	48 01 c1             	add    %rax,%rcx
  40a97c:	48 8b 45 c8          	mov    -0x38(%rbp),%rax
  40a980:	48 89 c6             	mov    %rax,%rsi
  40a983:	48 89 cf             	mov    %rcx,%rdi
  40a986:	e8 65 c6 ff ff       	callq  406ff0 <memcpy@plt>
      srclen+= left_bytes;
  40a98b:	8b 85 7c ff ff ff    	mov    -0x84(%rbp),%eax
  40a991:	01 85 78 ff ff ff    	add    %eax,-0x88(%rbp)
      left_bytes = 0;
  40a997:	c7 85 7c ff ff ff 00 	movl   $0x0,-0x84(%rbp)
  40a99e:	00 00 00 
  40a9a1:	eb 1c                	jmp    40a9bf <DataProcess+0x228>
    } else {
      memcpy(src, new, srclen * sizeof(u_char));
  40a9a3:	8b 85 78 ff ff ff    	mov    -0x88(%rbp),%eax
  40a9a9:	48 63 d0             	movslq %eax,%rdx
  40a9ac:	48 8b 4d c8          	mov    -0x38(%rbp),%rcx
  40a9b0:	48 8b 45 b8          	mov    -0x48(%rbp),%rax
